ARM GAS  /var/folders/5r/xb8hq6p128d37tsfvtb6dnd00000gn/T//ccFK2jPO.s 			page 1


   1              		.cpu cortex-m0
   2              		.arch armv6s-m
   3              		.fpu softvfp
   4              		.eabi_attribute 20, 1
   5              		.eabi_attribute 21, 1
   6              		.eabi_attribute 23, 3
   7              		.eabi_attribute 24, 1
   8              		.eabi_attribute 25, 1
   9              		.eabi_attribute 26, 1
  10              		.eabi_attribute 30, 1
  11              		.eabi_attribute 34, 0
  12              		.eabi_attribute 18, 4
  13              		.file	"cmdQueue.c"
  14              		.text
  15              	.Ltext0:
  16              		.cfi_sections	.debug_frame
  17              		.file 1 "Core/Src/cmdQueue.c"
  18              		.section	.text.createQueue,"ax",%progbits
  19              		.align	1
  20              		.global	createQueue
  21              		.syntax unified
  22              		.code	16
  23              		.thumb_func
  25              	createQueue:
  26              	.LVL0:
  27              	.LFB40:
   1:Core/Src/cmdQueue.c **** #include "cmdQueue.h"
   2:Core/Src/cmdQueue.c **** 
   3:Core/Src/cmdQueue.c **** osSemaphoreId_t binarySem01CmdQueueHandle;
   4:Core/Src/cmdQueue.c **** 
   5:Core/Src/cmdQueue.c **** Cmd_Queue *createQueue(uint8_t cap, uint8_t itemBytes) {
  28              		.loc 1 5 56 view -0
  29              		.cfi_startproc
  30              		@ args = 0, pretend = 0, frame = 0
  31              		@ frame_needed = 0, uses_anonymous_args = 0
  32              		.loc 1 5 56 is_stmt 0 view .LVU1
  33 0000 70B5     		push	{r4, r5, r6, lr}
  34              	.LCFI0:
  35              		.cfi_def_cfa_offset 16
  36              		.cfi_offset 4, -16
  37              		.cfi_offset 5, -12
  38              		.cfi_offset 6, -8
  39              		.cfi_offset 14, -4
  40 0002 0500     		movs	r5, r0
  41 0004 0C00     		movs	r4, r1
   6:Core/Src/cmdQueue.c ****     /* Create the semaphores(s) */
   7:Core/Src/cmdQueue.c ****     binarySem01CmdQueueHandle = osSemaphoreNew(1, 1, NULL);
  42              		.loc 1 7 5 is_stmt 1 view .LVU2
  43              		.loc 1 7 33 is_stmt 0 view .LVU3
  44 0006 0022     		movs	r2, #0
  45 0008 0121     		movs	r1, #1
  46              	.LVL1:
  47              		.loc 1 7 33 view .LVU4
  48 000a 0120     		movs	r0, #1
  49              	.LVL2:
  50              		.loc 1 7 33 view .LVU5
  51 000c FFF7FEFF 		bl	osSemaphoreNew
ARM GAS  /var/folders/5r/xb8hq6p128d37tsfvtb6dnd00000gn/T//ccFK2jPO.s 			page 2


  52              	.LVL3:
  53              		.loc 1 7 31 discriminator 1 view .LVU6
  54 0010 0B4B     		ldr	r3, .L3
  55 0012 1860     		str	r0, [r3]
   8:Core/Src/cmdQueue.c ****     Cmd_Queue *q = NULL;
  56              		.loc 1 8 5 is_stmt 1 view .LVU7
  57              	.LVL4:
   9:Core/Src/cmdQueue.c ****     // Fail to create binary semaphore.
  10:Core/Src/cmdQueue.c ****     if (binarySem01CmdQueueHandle == NULL) {
  58              		.loc 1 10 5 view .LVU8
  59              		.loc 1 10 8 is_stmt 0 view .LVU9
  60 0014 0028     		cmp	r0, #0
  61 0016 12D0     		beq	.L1
  11:Core/Src/cmdQueue.c ****         return q;
  12:Core/Src/cmdQueue.c ****     }
  13:Core/Src/cmdQueue.c ****     uint16_t xQueueSizeInBytes = itemBytes * cap;
  62              		.loc 1 13 5 is_stmt 1 view .LVU10
  63              		.loc 1 13 14 is_stmt 0 view .LVU11
  64 0018 2800     		movs	r0, r5
  65 001a 6043     		muls	r0, r4
  66              	.LVL5:
  14:Core/Src/cmdQueue.c ****     q = (Cmd_Queue *)pvPortMalloc(xQueueSizeInBytes + sizeof(Cmd_Queue));
  67              		.loc 1 14 5 is_stmt 1 view .LVU12
  68              		.loc 1 14 22 is_stmt 0 view .LVU13
  69 001c 0C30     		adds	r0, r0, #12
  70              	.LVL6:
  71              		.loc 1 14 22 view .LVU14
  72 001e FFF7FEFF 		bl	pvPortMalloc
  73              	.LVL7:
  15:Core/Src/cmdQueue.c ****     if (q == NULL) {
  74              		.loc 1 15 5 is_stmt 1 view .LVU15
  75              		.loc 1 15 8 is_stmt 0 view .LVU16
  76 0022 0028     		cmp	r0, #0
  77 0024 0BD0     		beq	.L1
  16:Core/Src/cmdQueue.c ****         return q;
  17:Core/Src/cmdQueue.c ****     }
  18:Core/Src/cmdQueue.c ****     // storage area
  19:Core/Src/cmdQueue.c ****     q->data = ( uint16_t * )q + sizeof(Cmd_Queue);
  78              		.loc 1 19 5 is_stmt 1 view .LVU17
  79              		.loc 1 19 31 is_stmt 0 view .LVU18
  80 0026 0300     		movs	r3, r0
  81 0028 1833     		adds	r3, r3, #24
  82              		.loc 1 19 13 view .LVU19
  83 002a 8360     		str	r3, [r0, #8]
  20:Core/Src/cmdQueue.c ****     q->capacity = cap;
  84              		.loc 1 20 5 is_stmt 1 view .LVU20
  85              		.loc 1 20 17 is_stmt 0 view .LVU21
  86 002c 6DB2     		sxtb	r5, r5
  87              	.LVL8:
  88              		.loc 1 20 17 view .LVU22
  89 002e 8570     		strb	r5, [r0, #2]
  21:Core/Src/cmdQueue.c ****     q->front = 0;
  90              		.loc 1 21 5 is_stmt 1 view .LVU23
  91              		.loc 1 21 14 is_stmt 0 view .LVU24
  92 0030 0023     		movs	r3, #0
  93 0032 0370     		strb	r3, [r0]
  22:Core/Src/cmdQueue.c ****     q->back = -1;
ARM GAS  /var/folders/5r/xb8hq6p128d37tsfvtb6dnd00000gn/T//ccFK2jPO.s 			page 3


  94              		.loc 1 22 5 is_stmt 1 view .LVU25
  95              		.loc 1 22 13 is_stmt 0 view .LVU26
  96 0034 FF22     		movs	r2, #255
  97 0036 4270     		strb	r2, [r0, #1]
  23:Core/Src/cmdQueue.c ****     q->itemBytes = itemBytes;
  98              		.loc 1 23 5 is_stmt 1 view .LVU27
  99              		.loc 1 23 18 is_stmt 0 view .LVU28
 100 0038 64B2     		sxtb	r4, r4
 101              	.LVL9:
 102              		.loc 1 23 18 view .LVU29
 103 003a C470     		strb	r4, [r0, #3]
  24:Core/Src/cmdQueue.c ****     q->itemNum = 0;
 104              		.loc 1 24 5 is_stmt 1 view .LVU30
 105              		.loc 1 24 16 is_stmt 0 view .LVU31
 106 003c 0371     		strb	r3, [r0, #4]
  25:Core/Src/cmdQueue.c ****     return q;
 107              		.loc 1 25 5 is_stmt 1 view .LVU32
 108              	.LVL10:
 109              	.L1:
  26:Core/Src/cmdQueue.c **** }
 110              		.loc 1 26 1 is_stmt 0 view .LVU33
 111              		@ sp needed
 112 003e 70BD     		pop	{r4, r5, r6, pc}
 113              	.L4:
 114              		.align	2
 115              	.L3:
 116 0040 00000000 		.word	binarySem01CmdQueueHandle
 117              		.cfi_endproc
 118              	.LFE40:
 120              		.section	.text.isQueueEmpty,"ax",%progbits
 121              		.align	1
 122              		.global	isQueueEmpty
 123              		.syntax unified
 124              		.code	16
 125              		.thumb_func
 127              	isQueueEmpty:
 128              	.LVL11:
 129              	.LFB41:
  27:Core/Src/cmdQueue.c **** 
  28:Core/Src/cmdQueue.c **** uint8_t isQueueEmpty(Cmd_Queue *q) {
 130              		.loc 1 28 36 is_stmt 1 view -0
 131              		.cfi_startproc
 132              		@ args = 0, pretend = 0, frame = 0
 133              		@ frame_needed = 0, uses_anonymous_args = 0
 134              		.loc 1 28 36 is_stmt 0 view .LVU35
 135 0000 70B5     		push	{r4, r5, r6, lr}
 136              	.LCFI1:
 137              		.cfi_def_cfa_offset 16
 138              		.cfi_offset 4, -16
 139              		.cfi_offset 5, -12
 140              		.cfi_offset 6, -8
 141              		.cfi_offset 14, -4
 142 0002 0400     		movs	r4, r0
  29:Core/Src/cmdQueue.c ****     osSemaphoreAcquire(binarySem01CmdQueueHandle, osWaitForever);
 143              		.loc 1 29 5 is_stmt 1 view .LVU36
 144 0004 0121     		movs	r1, #1
 145 0006 074D     		ldr	r5, .L6
ARM GAS  /var/folders/5r/xb8hq6p128d37tsfvtb6dnd00000gn/T//ccFK2jPO.s 			page 4


 146 0008 2868     		ldr	r0, [r5]
 147              	.LVL12:
 148              		.loc 1 29 5 is_stmt 0 view .LVU37
 149 000a 4942     		rsbs	r1, r1, #0
 150 000c FFF7FEFF 		bl	osSemaphoreAcquire
 151              	.LVL13:
  30:Core/Src/cmdQueue.c ****     uint8_t res = (q->itemNum == 0);
 152              		.loc 1 30 5 is_stmt 1 view .LVU38
 153              		.loc 1 30 21 is_stmt 0 view .LVU39
 154 0010 2479     		ldrb	r4, [r4, #4]
 155              	.LVL14:
 156              		.loc 1 30 31 view .LVU40
 157 0012 6342     		rsbs	r3, r4, #0
 158 0014 5C41     		adcs	r4, r4, r3
 159 0016 E4B2     		uxtb	r4, r4
 160              	.LVL15:
  31:Core/Src/cmdQueue.c ****     osSemaphoreRelease(binarySem01CmdQueueHandle);
 161              		.loc 1 31 5 is_stmt 1 view .LVU41
 162 0018 2868     		ldr	r0, [r5]
 163 001a FFF7FEFF 		bl	osSemaphoreRelease
 164              	.LVL16:
  32:Core/Src/cmdQueue.c ****     return res;
 165              		.loc 1 32 5 view .LVU42
  33:Core/Src/cmdQueue.c **** }
 166              		.loc 1 33 1 is_stmt 0 view .LVU43
 167 001e 2000     		movs	r0, r4
 168              		@ sp needed
 169              	.LVL17:
 170              		.loc 1 33 1 view .LVU44
 171 0020 70BD     		pop	{r4, r5, r6, pc}
 172              	.L7:
 173 0022 C046     		.align	2
 174              	.L6:
 175 0024 00000000 		.word	binarySem01CmdQueueHandle
 176              		.cfi_endproc
 177              	.LFE41:
 179              		.section	.text.isQueueFull,"ax",%progbits
 180              		.align	1
 181              		.global	isQueueFull
 182              		.syntax unified
 183              		.code	16
 184              		.thumb_func
 186              	isQueueFull:
 187              	.LVL18:
 188              	.LFB42:
  34:Core/Src/cmdQueue.c **** 
  35:Core/Src/cmdQueue.c **** uint8_t isQueueFull(Cmd_Queue *q) {
 189              		.loc 1 35 35 is_stmt 1 view -0
 190              		.cfi_startproc
 191              		@ args = 0, pretend = 0, frame = 0
 192              		@ frame_needed = 0, uses_anonymous_args = 0
 193              		.loc 1 35 35 is_stmt 0 view .LVU46
 194 0000 70B5     		push	{r4, r5, r6, lr}
 195              	.LCFI2:
 196              		.cfi_def_cfa_offset 16
 197              		.cfi_offset 4, -16
 198              		.cfi_offset 5, -12
ARM GAS  /var/folders/5r/xb8hq6p128d37tsfvtb6dnd00000gn/T//ccFK2jPO.s 			page 5


 199              		.cfi_offset 6, -8
 200              		.cfi_offset 14, -4
 201 0002 0500     		movs	r5, r0
  36:Core/Src/cmdQueue.c ****     osSemaphoreAcquire(binarySem01CmdQueueHandle, osWaitForever);
 202              		.loc 1 36 5 is_stmt 1 view .LVU47
 203 0004 0121     		movs	r1, #1
 204 0006 094E     		ldr	r6, .L9
 205 0008 3068     		ldr	r0, [r6]
 206              	.LVL19:
 207              		.loc 1 36 5 is_stmt 0 view .LVU48
 208 000a 4942     		rsbs	r1, r1, #0
 209 000c FFF7FEFF 		bl	osSemaphoreAcquire
 210              	.LVL20:
  37:Core/Src/cmdQueue.c ****     uint8_t res =(q->itemNum == q->capacity);
 211              		.loc 1 37 5 is_stmt 1 view .LVU49
 212              		.loc 1 37 20 is_stmt 0 view .LVU50
 213 0010 2C79     		ldrb	r4, [r5, #4]
 214 0012 64B2     		sxtb	r4, r4
 215              		.loc 1 37 34 view .LVU51
 216 0014 AB78     		ldrb	r3, [r5, #2]
 217 0016 5BB2     		sxtb	r3, r3
 218              		.loc 1 37 30 view .LVU52
 219 0018 E41A     		subs	r4, r4, r3
 220 001a 6342     		rsbs	r3, r4, #0
 221 001c 5C41     		adcs	r4, r4, r3
 222 001e E4B2     		uxtb	r4, r4
 223              	.LVL21:
  38:Core/Src/cmdQueue.c ****     osSemaphoreRelease(binarySem01CmdQueueHandle);
 224              		.loc 1 38 5 is_stmt 1 view .LVU53
 225 0020 3068     		ldr	r0, [r6]
 226 0022 FFF7FEFF 		bl	osSemaphoreRelease
 227              	.LVL22:
  39:Core/Src/cmdQueue.c ****     return res;
 228              		.loc 1 39 5 view .LVU54
  40:Core/Src/cmdQueue.c **** }
 229              		.loc 1 40 1 is_stmt 0 view .LVU55
 230 0026 2000     		movs	r0, r4
 231              		@ sp needed
 232              	.LVL23:
 233              	.LVL24:
 234              		.loc 1 40 1 view .LVU56
 235 0028 70BD     		pop	{r4, r5, r6, pc}
 236              	.L10:
 237 002a C046     		.align	2
 238              	.L9:
 239 002c 00000000 		.word	binarySem01CmdQueueHandle
 240              		.cfi_endproc
 241              	.LFE42:
 243              		.global	__aeabi_idivmod
 244              		.section	.text.queuePush,"ax",%progbits
 245              		.align	1
 246              		.global	queuePush
 247              		.syntax unified
 248              		.code	16
 249              		.thumb_func
 251              	queuePush:
 252              	.LVL25:
ARM GAS  /var/folders/5r/xb8hq6p128d37tsfvtb6dnd00000gn/T//ccFK2jPO.s 			page 6


 253              	.LFB43:
  41:Core/Src/cmdQueue.c **** 
  42:Core/Src/cmdQueue.c **** int queuePush(Cmd_Queue *q, uint16_t item) {
 254              		.loc 1 42 44 is_stmt 1 view -0
 255              		.cfi_startproc
 256              		@ args = 0, pretend = 0, frame = 0
 257              		@ frame_needed = 0, uses_anonymous_args = 0
 258              		.loc 1 42 44 is_stmt 0 view .LVU58
 259 0000 70B5     		push	{r4, r5, r6, lr}
 260              	.LCFI3:
 261              		.cfi_def_cfa_offset 16
 262              		.cfi_offset 4, -16
 263              		.cfi_offset 5, -12
 264              		.cfi_offset 6, -8
 265              		.cfi_offset 14, -4
 266 0002 0400     		movs	r4, r0
 267 0004 0D00     		movs	r5, r1
  43:Core/Src/cmdQueue.c ****     osSemaphoreAcquire(binarySem01CmdQueueHandle, osWaitForever);
 268              		.loc 1 43 5 is_stmt 1 view .LVU59
 269 0006 0121     		movs	r1, #1
 270              	.LVL26:
 271              		.loc 1 43 5 is_stmt 0 view .LVU60
 272 0008 144B     		ldr	r3, .L15
 273 000a 1868     		ldr	r0, [r3]
 274              	.LVL27:
 275              		.loc 1 43 5 view .LVU61
 276 000c 4942     		rsbs	r1, r1, #0
 277 000e FFF7FEFF 		bl	osSemaphoreAcquire
 278              	.LVL28:
  44:Core/Src/cmdQueue.c ****     if (q->itemNum == q->capacity) {
 279              		.loc 1 44 5 is_stmt 1 view .LVU62
 280              		.loc 1 44 10 is_stmt 0 view .LVU63
 281 0012 2279     		ldrb	r2, [r4, #4]
 282 0014 52B2     		sxtb	r2, r2
 283              		.loc 1 44 24 view .LVU64
 284 0016 A378     		ldrb	r3, [r4, #2]
 285 0018 5BB2     		sxtb	r3, r3
 286              		.loc 1 44 8 view .LVU65
 287 001a 9A42     		cmp	r2, r3
 288 001c 16D0     		beq	.L14
  45:Core/Src/cmdQueue.c ****         osSemaphoreRelease(binarySem01CmdQueueHandle);
  46:Core/Src/cmdQueue.c ****         return -1;
  47:Core/Src/cmdQueue.c ****     }
  48:Core/Src/cmdQueue.c ****     int pos = (q->back + 1) % q->capacity;
 289              		.loc 1 48 5 is_stmt 1 view .LVU66
 290              		.loc 1 48 17 is_stmt 0 view .LVU67
 291 001e 6078     		ldrb	r0, [r4, #1]
 292 0020 40B2     		sxtb	r0, r0
 293              		.loc 1 48 24 view .LVU68
 294 0022 0130     		adds	r0, r0, #1
 295              		.loc 1 48 32 view .LVU69
 296 0024 A178     		ldrb	r1, [r4, #2]
 297 0026 49B2     		sxtb	r1, r1
 298              		.loc 1 48 9 view .LVU70
 299 0028 FFF7FEFF 		bl	__aeabi_idivmod
 300              	.LVL29:
  49:Core/Src/cmdQueue.c ****     q->back = pos;
ARM GAS  /var/folders/5r/xb8hq6p128d37tsfvtb6dnd00000gn/T//ccFK2jPO.s 			page 7


 301              		.loc 1 49 5 is_stmt 1 view .LVU71
 302              		.loc 1 49 13 is_stmt 0 view .LVU72
 303 002c 4BB2     		sxtb	r3, r1
 304 002e 6370     		strb	r3, [r4, #1]
  50:Core/Src/cmdQueue.c ****     q->data[pos] = item;
 305              		.loc 1 50 5 is_stmt 1 view .LVU73
 306              		.loc 1 50 6 is_stmt 0 view .LVU74
 307 0030 A268     		ldr	r2, [r4, #8]
 308              		.loc 1 50 12 view .LVU75
 309 0032 4B00     		lsls	r3, r1, #1
 310 0034 D318     		adds	r3, r2, r3
 311              		.loc 1 50 18 view .LVU76
 312 0036 1D80     		strh	r5, [r3]
  51:Core/Src/cmdQueue.c ****     q->itemNum += 1;
 313              		.loc 1 51 5 is_stmt 1 view .LVU77
 314              		.loc 1 51 6 is_stmt 0 view .LVU78
 315 0038 2379     		ldrb	r3, [r4, #4]
 316              		.loc 1 51 16 view .LVU79
 317 003a 0133     		adds	r3, r3, #1
 318 003c 5BB2     		sxtb	r3, r3
 319 003e 2371     		strb	r3, [r4, #4]
  52:Core/Src/cmdQueue.c ****     osSemaphoreRelease(binarySem01CmdQueueHandle);
 320              		.loc 1 52 5 is_stmt 1 view .LVU80
 321 0040 064B     		ldr	r3, .L15
 322 0042 1868     		ldr	r0, [r3]
 323 0044 FFF7FEFF 		bl	osSemaphoreRelease
 324              	.LVL30:
  53:Core/Src/cmdQueue.c ****     return 0;
 325              		.loc 1 53 5 view .LVU81
 326              		.loc 1 53 12 is_stmt 0 view .LVU82
 327 0048 0020     		movs	r0, #0
 328              	.LVL31:
 329              	.L11:
  54:Core/Src/cmdQueue.c **** }
 330              		.loc 1 54 1 view .LVU83
 331              		@ sp needed
 332              	.LVL32:
 333              	.LVL33:
 334              		.loc 1 54 1 view .LVU84
 335 004a 70BD     		pop	{r4, r5, r6, pc}
 336              	.LVL34:
 337              	.L14:
  45:Core/Src/cmdQueue.c ****         return -1;
 338              		.loc 1 45 9 is_stmt 1 view .LVU85
 339 004c 034B     		ldr	r3, .L15
 340 004e 1868     		ldr	r0, [r3]
 341 0050 FFF7FEFF 		bl	osSemaphoreRelease
 342              	.LVL35:
  46:Core/Src/cmdQueue.c ****     }
 343              		.loc 1 46 9 view .LVU86
  46:Core/Src/cmdQueue.c ****     }
 344              		.loc 1 46 16 is_stmt 0 view .LVU87
 345 0054 0120     		movs	r0, #1
 346 0056 4042     		rsbs	r0, r0, #0
 347 0058 F7E7     		b	.L11
 348              	.L16:
 349 005a C046     		.align	2
ARM GAS  /var/folders/5r/xb8hq6p128d37tsfvtb6dnd00000gn/T//ccFK2jPO.s 			page 8


 350              	.L15:
 351 005c 00000000 		.word	binarySem01CmdQueueHandle
 352              		.cfi_endproc
 353              	.LFE43:
 355              		.section	.text.queuePop,"ax",%progbits
 356              		.align	1
 357              		.global	queuePop
 358              		.syntax unified
 359              		.code	16
 360              		.thumb_func
 362              	queuePop:
 363              	.LVL36:
 364              	.LFB44:
  55:Core/Src/cmdQueue.c **** 
  56:Core/Src/cmdQueue.c **** uint16_t queuePop(Cmd_Queue *q) {
 365              		.loc 1 56 33 is_stmt 1 view -0
 366              		.cfi_startproc
 367              		@ args = 0, pretend = 0, frame = 0
 368              		@ frame_needed = 0, uses_anonymous_args = 0
 369              		.loc 1 56 33 is_stmt 0 view .LVU89
 370 0000 70B5     		push	{r4, r5, r6, lr}
 371              	.LCFI4:
 372              		.cfi_def_cfa_offset 16
 373              		.cfi_offset 4, -16
 374              		.cfi_offset 5, -12
 375              		.cfi_offset 6, -8
 376              		.cfi_offset 14, -4
 377 0002 0400     		movs	r4, r0
  57:Core/Src/cmdQueue.c ****     osSemaphoreAcquire(binarySem01CmdQueueHandle, osWaitForever);
 378              		.loc 1 57 5 is_stmt 1 view .LVU90
 379 0004 0121     		movs	r1, #1
 380 0006 144B     		ldr	r3, .L21
 381 0008 1868     		ldr	r0, [r3]
 382              	.LVL37:
 383              		.loc 1 57 5 is_stmt 0 view .LVU91
 384 000a 4942     		rsbs	r1, r1, #0
 385 000c FFF7FEFF 		bl	osSemaphoreAcquire
 386              	.LVL38:
  58:Core/Src/cmdQueue.c ****     if (q->itemNum == 0) {
 387              		.loc 1 58 5 is_stmt 1 view .LVU92
 388              		.loc 1 58 10 is_stmt 0 view .LVU93
 389 0010 2379     		ldrb	r3, [r4, #4]
 390              		.loc 1 58 8 view .LVU94
 391 0012 002B     		cmp	r3, #0
 392 0014 1AD0     		beq	.L20
  59:Core/Src/cmdQueue.c ****         osSemaphoreRelease(binarySem01CmdQueueHandle);
  60:Core/Src/cmdQueue.c ****         return 0xffff;
  61:Core/Src/cmdQueue.c ****     }
  62:Core/Src/cmdQueue.c ****     uint16_t item = q->data[q->front];
 393              		.loc 1 62 5 is_stmt 1 view .LVU95
 394              		.loc 1 62 22 is_stmt 0 view .LVU96
 395 0016 A268     		ldr	r2, [r4, #8]
 396              		.loc 1 62 30 view .LVU97
 397 0018 2378     		ldrb	r3, [r4]
 398 001a 5BB2     		sxtb	r3, r3
 399              		.loc 1 62 28 view .LVU98
 400 001c 5B00     		lsls	r3, r3, #1
ARM GAS  /var/folders/5r/xb8hq6p128d37tsfvtb6dnd00000gn/T//ccFK2jPO.s 			page 9


 401 001e D318     		adds	r3, r2, r3
 402              		.loc 1 62 14 view .LVU99
 403 0020 1D88     		ldrh	r5, [r3]
 404 0022 ADB2     		uxth	r5, r5
 405              	.LVL39:
  63:Core/Src/cmdQueue.c ****     q->front = ((q->front + 1) % q->capacity);
 406              		.loc 1 63 5 is_stmt 1 view .LVU100
 407              		.loc 1 63 19 is_stmt 0 view .LVU101
 408 0024 2078     		ldrb	r0, [r4]
 409 0026 40B2     		sxtb	r0, r0
 410              		.loc 1 63 27 view .LVU102
 411 0028 0130     		adds	r0, r0, #1
 412              		.loc 1 63 35 view .LVU103
 413 002a A178     		ldrb	r1, [r4, #2]
 414 002c 49B2     		sxtb	r1, r1
 415              		.loc 1 63 32 view .LVU104
 416 002e FFF7FEFF 		bl	__aeabi_idivmod
 417              	.LVL40:
 418              		.loc 1 63 14 view .LVU105
 419 0032 49B2     		sxtb	r1, r1
 420 0034 2170     		strb	r1, [r4]
  64:Core/Src/cmdQueue.c ****     q->itemNum--;
 421              		.loc 1 64 5 is_stmt 1 view .LVU106
 422              		.loc 1 64 6 is_stmt 0 view .LVU107
 423 0036 2379     		ldrb	r3, [r4, #4]
 424 0038 5BB2     		sxtb	r3, r3
 425              		.loc 1 64 15 view .LVU108
 426 003a 013B     		subs	r3, r3, #1
 427 003c 5BB2     		sxtb	r3, r3
 428 003e 2371     		strb	r3, [r4, #4]
  65:Core/Src/cmdQueue.c ****     osSemaphoreRelease(binarySem01CmdQueueHandle);
 429              		.loc 1 65 5 is_stmt 1 view .LVU109
 430 0040 054B     		ldr	r3, .L21
 431 0042 1868     		ldr	r0, [r3]
 432 0044 FFF7FEFF 		bl	osSemaphoreRelease
 433              	.LVL41:
  66:Core/Src/cmdQueue.c ****     return item;
 434              		.loc 1 66 5 view .LVU110
 435              	.L19:
  67:Core/Src/cmdQueue.c **** }
 436              		.loc 1 67 1 is_stmt 0 view .LVU111
 437 0048 2800     		movs	r0, r5
 438              		@ sp needed
 439              	.LVL42:
 440              		.loc 1 67 1 view .LVU112
 441 004a 70BD     		pop	{r4, r5, r6, pc}
 442              	.LVL43:
 443              	.L20:
  59:Core/Src/cmdQueue.c ****         return 0xffff;
 444              		.loc 1 59 9 is_stmt 1 view .LVU113
 445 004c 024B     		ldr	r3, .L21
 446 004e 1868     		ldr	r0, [r3]
 447 0050 FFF7FEFF 		bl	osSemaphoreRelease
 448              	.LVL44:
  60:Core/Src/cmdQueue.c ****     }
 449              		.loc 1 60 9 view .LVU114
  60:Core/Src/cmdQueue.c ****     }
ARM GAS  /var/folders/5r/xb8hq6p128d37tsfvtb6dnd00000gn/T//ccFK2jPO.s 			page 10


 450              		.loc 1 60 16 is_stmt 0 view .LVU115
 451 0054 014D     		ldr	r5, .L21+4
 452 0056 F7E7     		b	.L19
 453              	.L22:
 454              		.align	2
 455              	.L21:
 456 0058 00000000 		.word	binarySem01CmdQueueHandle
 457 005c FFFF0000 		.word	65535
 458              		.cfi_endproc
 459              	.LFE44:
 461              		.section	.text.queuePopItemByOpcode,"ax",%progbits
 462              		.align	1
 463              		.global	queuePopItemByOpcode
 464              		.syntax unified
 465              		.code	16
 466              		.thumb_func
 468              	queuePopItemByOpcode:
 469              	.LVL45:
 470              	.LFB45:
  68:Core/Src/cmdQueue.c **** 
  69:Core/Src/cmdQueue.c **** // When the return value is 0xffff, fail to find the item
  70:Core/Src/cmdQueue.c **** // that contain the target opcode.
  71:Core/Src/cmdQueue.c **** uint16_t queuePopItemByOpcode(Cmd_Queue *q, uint8_t targetOpcode) {
 471              		.loc 1 71 67 is_stmt 1 view -0
 472              		.cfi_startproc
 473              		@ args = 0, pretend = 0, frame = 0
 474              		@ frame_needed = 0, uses_anonymous_args = 0
 475              		.loc 1 71 67 is_stmt 0 view .LVU117
 476 0000 F8B5     		push	{r3, r4, r5, r6, r7, lr}
 477              	.LCFI5:
 478              		.cfi_def_cfa_offset 24
 479              		.cfi_offset 3, -24
 480              		.cfi_offset 4, -20
 481              		.cfi_offset 5, -16
 482              		.cfi_offset 6, -12
 483              		.cfi_offset 7, -8
 484              		.cfi_offset 14, -4
 485 0002 CE46     		mov	lr, r9
 486 0004 4746     		mov	r7, r8
 487 0006 80B5     		push	{r7, lr}
 488              	.LCFI6:
 489              		.cfi_def_cfa_offset 32
 490              		.cfi_offset 8, -32
 491              		.cfi_offset 9, -28
 492 0008 0400     		movs	r4, r0
 493 000a 8846     		mov	r8, r1
  72:Core/Src/cmdQueue.c ****     osSemaphoreAcquire(binarySem01CmdQueueHandle, osWaitForever);
 494              		.loc 1 72 5 is_stmt 1 view .LVU118
 495 000c 0121     		movs	r1, #1
 496              	.LVL46:
 497              		.loc 1 72 5 is_stmt 0 view .LVU119
 498 000e 3E4B     		ldr	r3, .L36
 499 0010 1868     		ldr	r0, [r3]
 500              	.LVL47:
 501              		.loc 1 72 5 view .LVU120
 502 0012 4942     		rsbs	r1, r1, #0
 503 0014 FFF7FEFF 		bl	osSemaphoreAcquire
ARM GAS  /var/folders/5r/xb8hq6p128d37tsfvtb6dnd00000gn/T//ccFK2jPO.s 			page 11


 504              	.LVL48:
  73:Core/Src/cmdQueue.c ****     uint16_t idx = q->front;
 505              		.loc 1 73 5 is_stmt 1 view .LVU121
 506              		.loc 1 73 21 is_stmt 0 view .LVU122
 507 0018 2078     		ldrb	r0, [r4]
 508 001a 40B2     		sxtb	r0, r0
 509              		.loc 1 73 14 view .LVU123
 510 001c 83B2     		uxth	r3, r0
 511 001e 9946     		mov	r9, r3
 512              	.LVL49:
  74:Core/Src/cmdQueue.c ****     if (q->itemNum == 0) {
 513              		.loc 1 74 5 is_stmt 1 view .LVU124
 514              		.loc 1 74 10 is_stmt 0 view .LVU125
 515 0020 2379     		ldrb	r3, [r4, #4]
 516              		.loc 1 74 8 view .LVU126
 517 0022 002B     		cmp	r3, #0
 518 0024 01D0     		beq	.L33
  75:Core/Src/cmdQueue.c ****         osSemaphoreRelease(binarySem01CmdQueueHandle);
  76:Core/Src/cmdQueue.c ****         return 0xffff;
  77:Core/Src/cmdQueue.c ****     }
  78:Core/Src/cmdQueue.c ****     uint16_t targetItem = 0xffff;
  79:Core/Src/cmdQueue.c ****     int8_t cnt = 0;
 519              		.loc 1 79 12 view .LVU127
 520 0026 0027     		movs	r7, #0
 521 0028 08E0     		b	.L24
 522              	.L33:
  75:Core/Src/cmdQueue.c ****         osSemaphoreRelease(binarySem01CmdQueueHandle);
 523              		.loc 1 75 9 is_stmt 1 view .LVU128
 524 002a 374B     		ldr	r3, .L36
 525 002c 1868     		ldr	r0, [r3]
 526 002e FFF7FEFF 		bl	osSemaphoreRelease
 527              	.LVL50:
  76:Core/Src/cmdQueue.c ****     }
 528              		.loc 1 76 9 view .LVU129
  76:Core/Src/cmdQueue.c ****     }
 529              		.loc 1 76 16 is_stmt 0 view .LVU130
 530 0032 364B     		ldr	r3, .L36+4
 531 0034 9846     		mov	r8, r3
 532              	.LVL51:
  76:Core/Src/cmdQueue.c ****     }
 533              		.loc 1 76 16 view .LVU131
 534 0036 61E0     		b	.L25
 535              	.LVL52:
 536              	.L26:
 537              	.LBB2:
  80:Core/Src/cmdQueue.c ****     while (cnt < q->itemNum) {
  81:Core/Src/cmdQueue.c ****         uint8_t curOpcode = (q->data[(idx + cnt) % q->capacity] >> 12);
  82:Core/Src/cmdQueue.c ****         if (curOpcode == targetOpcode) {
  83:Core/Src/cmdQueue.c ****             targetItem = q->data[(idx + cnt) % q->capacity];
  84:Core/Src/cmdQueue.c ****             break;
  85:Core/Src/cmdQueue.c ****         }
  86:Core/Src/cmdQueue.c ****         cnt++;
 538              		.loc 1 86 9 is_stmt 1 view .LVU132
 539              		.loc 1 86 12 is_stmt 0 view .LVU133
 540 0038 0137     		adds	r7, r7, #1
 541              	.LVL53:
 542              		.loc 1 86 12 view .LVU134
ARM GAS  /var/folders/5r/xb8hq6p128d37tsfvtb6dnd00000gn/T//ccFK2jPO.s 			page 12


 543 003a 7FB2     		sxtb	r7, r7
 544              	.LVL54:
 545              	.L24:
 546              		.loc 1 86 12 view .LVU135
 547              	.LBE2:
  80:Core/Src/cmdQueue.c ****     while (cnt < q->itemNum) {
 548              		.loc 1 80 16 is_stmt 1 view .LVU136
  80:Core/Src/cmdQueue.c ****     while (cnt < q->itemNum) {
 549              		.loc 1 80 19 is_stmt 0 view .LVU137
 550 003c 2379     		ldrb	r3, [r4, #4]
 551 003e 5BB2     		sxtb	r3, r3
  80:Core/Src/cmdQueue.c ****     while (cnt < q->itemNum) {
 552              		.loc 1 80 16 view .LVU138
 553 0040 BB42     		cmp	r3, r7
 554 0042 18DD     		ble	.L34
 555              	.LBB3:
  81:Core/Src/cmdQueue.c ****         if (curOpcode == targetOpcode) {
 556              		.loc 1 81 9 is_stmt 1 view .LVU139
  81:Core/Src/cmdQueue.c ****         if (curOpcode == targetOpcode) {
 557              		.loc 1 81 31 is_stmt 0 view .LVU140
 558 0044 A568     		ldr	r5, [r4, #8]
  81:Core/Src/cmdQueue.c ****         if (curOpcode == targetOpcode) {
 559              		.loc 1 81 43 view .LVU141
 560 0046 4B46     		mov	r3, r9
 561 0048 DE19     		adds	r6, r3, r7
  81:Core/Src/cmdQueue.c ****         if (curOpcode == targetOpcode) {
 562              		.loc 1 81 53 view .LVU142
 563 004a A178     		ldrb	r1, [r4, #2]
 564 004c 49B2     		sxtb	r1, r1
  81:Core/Src/cmdQueue.c ****         if (curOpcode == targetOpcode) {
 565              		.loc 1 81 50 view .LVU143
 566 004e 3000     		movs	r0, r6
 567 0050 FFF7FEFF 		bl	__aeabi_idivmod
 568              	.LVL55:
  81:Core/Src/cmdQueue.c ****         if (curOpcode == targetOpcode) {
 569              		.loc 1 81 37 view .LVU144
 570 0054 4B00     		lsls	r3, r1, #1
 571 0056 EB18     		adds	r3, r5, r3
 572 0058 1B88     		ldrh	r3, [r3]
  81:Core/Src/cmdQueue.c ****         if (curOpcode == targetOpcode) {
 573              		.loc 1 81 17 view .LVU145
 574 005a 1B0B     		lsrs	r3, r3, #12
 575              	.LVL56:
  82:Core/Src/cmdQueue.c ****             targetItem = q->data[(idx + cnt) % q->capacity];
 576              		.loc 1 82 9 is_stmt 1 view .LVU146
  82:Core/Src/cmdQueue.c ****             targetItem = q->data[(idx + cnt) % q->capacity];
 577              		.loc 1 82 12 is_stmt 0 view .LVU147
 578 005c 4345     		cmp	r3, r8
 579 005e EBD1     		bne	.L26
  83:Core/Src/cmdQueue.c ****             break;
 580              		.loc 1 83 13 is_stmt 1 view .LVU148
  83:Core/Src/cmdQueue.c ****             break;
 581              		.loc 1 83 49 is_stmt 0 view .LVU149
 582 0060 A178     		ldrb	r1, [r4, #2]
 583 0062 49B2     		sxtb	r1, r1
  83:Core/Src/cmdQueue.c ****             break;
 584              		.loc 1 83 46 view .LVU150
ARM GAS  /var/folders/5r/xb8hq6p128d37tsfvtb6dnd00000gn/T//ccFK2jPO.s 			page 13


 585 0064 3000     		movs	r0, r6
 586 0066 FFF7FEFF 		bl	__aeabi_idivmod
 587              	.LVL57:
  83:Core/Src/cmdQueue.c ****             break;
 588              		.loc 1 83 33 view .LVU151
 589 006a 4900     		lsls	r1, r1, #1
 590 006c 6D18     		adds	r5, r5, r1
  83:Core/Src/cmdQueue.c ****             break;
 591              		.loc 1 83 24 view .LVU152
 592 006e 2B88     		ldrh	r3, [r5]
 593 0070 9BB2     		uxth	r3, r3
 594 0072 9846     		mov	r8, r3
 595              	.LVL58:
  84:Core/Src/cmdQueue.c ****         }
 596              		.loc 1 84 13 is_stmt 1 view .LVU153
 597 0074 01E0     		b	.L27
 598              	.LVL59:
 599              	.L34:
  84:Core/Src/cmdQueue.c ****         }
 600              		.loc 1 84 13 is_stmt 0 view .LVU154
 601              	.LBE3:
  78:Core/Src/cmdQueue.c ****     int8_t cnt = 0;
 602              		.loc 1 78 14 view .LVU155
 603 0076 254B     		ldr	r3, .L36+4
 604 0078 9846     		mov	r8, r3
 605              	.L27:
 606              	.LVL60:
  87:Core/Src/cmdQueue.c ****     }
  88:Core/Src/cmdQueue.c ****     if (targetItem == 0xffff) {
 607              		.loc 1 88 5 is_stmt 1 view .LVU156
 608              		.loc 1 88 8 is_stmt 0 view .LVU157
 609 007a 244B     		ldr	r3, .L36+4
 610 007c 9845     		cmp	r8, r3
 611 007e 0AD0     		beq	.L35
  89:Core/Src/cmdQueue.c ****         osSemaphoreRelease(binarySem01CmdQueueHandle);
  90:Core/Src/cmdQueue.c ****         return 0xffff;
  91:Core/Src/cmdQueue.c ****     }
  92:Core/Src/cmdQueue.c ****     // Delete the item in the queue
  93:Core/Src/cmdQueue.c ****     idx = ((idx + cnt) % q->capacity);
 612              		.loc 1 93 5 is_stmt 1 view .LVU158
 613              		.loc 1 93 17 is_stmt 0 view .LVU159
 614 0080 4B46     		mov	r3, r9
 615 0082 D819     		adds	r0, r3, r7
 616              		.loc 1 93 27 view .LVU160
 617 0084 A178     		ldrb	r1, [r4, #2]
 618 0086 49B2     		sxtb	r1, r1
 619              		.loc 1 93 24 view .LVU161
 620 0088 FFF7FEFF 		bl	__aeabi_idivmod
 621              	.LVL61:
 622              		.loc 1 93 9 view .LVU162
 623 008c 8DB2     		uxth	r5, r1
 624              	.LVL62:
  94:Core/Src/cmdQueue.c ****     int8_t remain = q->itemNum - cnt;  //remaining elements number
 625              		.loc 1 94 5 is_stmt 1 view .LVU163
 626              		.loc 1 94 22 is_stmt 0 view .LVU164
 627 008e 2679     		ldrb	r6, [r4, #4]
 628              		.loc 1 94 32 view .LVU165
ARM GAS  /var/folders/5r/xb8hq6p128d37tsfvtb6dnd00000gn/T//ccFK2jPO.s 			page 14


 629 0090 F61B     		subs	r6, r6, r7
 630              		.loc 1 94 12 view .LVU166
 631 0092 76B2     		sxtb	r6, r6
 632              	.LVL63:
  95:Core/Src/cmdQueue.c ****     while (remain > 0) {
 633              		.loc 1 95 5 is_stmt 1 view .LVU167
 634              		.loc 1 95 11 is_stmt 0 view .LVU168
 635 0094 1BE0     		b	.L30
 636              	.LVL64:
 637              	.L35:
  89:Core/Src/cmdQueue.c ****         osSemaphoreRelease(binarySem01CmdQueueHandle);
 638              		.loc 1 89 9 is_stmt 1 view .LVU169
 639 0096 1C4B     		ldr	r3, .L36
 640 0098 1868     		ldr	r0, [r3]
 641 009a FFF7FEFF 		bl	osSemaphoreRelease
 642              	.LVL65:
  90:Core/Src/cmdQueue.c ****     }
 643              		.loc 1 90 9 view .LVU170
  90:Core/Src/cmdQueue.c ****     }
 644              		.loc 1 90 16 is_stmt 0 view .LVU171
 645 009e 2DE0     		b	.L25
 646              	.LVL66:
 647              	.L31:
 648              	.LBB4:
  96:Core/Src/cmdQueue.c ****         uint16_t nextIdx = ((idx + 1) % q->capacity);
 649              		.loc 1 96 9 is_stmt 1 view .LVU172
 650              		.loc 1 96 34 is_stmt 0 view .LVU173
 651 00a0 6F1C     		adds	r7, r5, #1
 652              		.loc 1 96 42 view .LVU174
 653 00a2 A178     		ldrb	r1, [r4, #2]
 654 00a4 49B2     		sxtb	r1, r1
 655              		.loc 1 96 39 view .LVU175
 656 00a6 3800     		movs	r0, r7
 657 00a8 FFF7FEFF 		bl	__aeabi_idivmod
 658              	.LVL67:
  97:Core/Src/cmdQueue.c ****         q->data[idx] = q->data[nextIdx];
 659              		.loc 1 97 9 is_stmt 1 view .LVU176
 660              		.loc 1 97 25 is_stmt 0 view .LVU177
 661 00ac A268     		ldr	r2, [r4, #8]
 662              		.loc 1 97 31 view .LVU178
 663 00ae 0B04     		lsls	r3, r1, #16
 664 00b0 DB0B     		lsrs	r3, r3, #15
 665 00b2 D318     		adds	r3, r2, r3
 666              		.loc 1 97 16 view .LVU179
 667 00b4 6D00     		lsls	r5, r5, #1
 668              	.LVL68:
 669              		.loc 1 97 16 view .LVU180
 670 00b6 5219     		adds	r2, r2, r5
 671              		.loc 1 97 31 view .LVU181
 672 00b8 1B88     		ldrh	r3, [r3]
 673 00ba 9BB2     		uxth	r3, r3
 674              		.loc 1 97 22 view .LVU182
 675 00bc 1380     		strh	r3, [r2]
  98:Core/Src/cmdQueue.c ****         idx = ((idx + 1) % q->capacity);
 676              		.loc 1 98 9 is_stmt 1 view .LVU183
 677              		.loc 1 98 29 is_stmt 0 view .LVU184
 678 00be A178     		ldrb	r1, [r4, #2]
ARM GAS  /var/folders/5r/xb8hq6p128d37tsfvtb6dnd00000gn/T//ccFK2jPO.s 			page 15


 679              	.LVL69:
 680              		.loc 1 98 29 view .LVU185
 681 00c0 49B2     		sxtb	r1, r1
 682              		.loc 1 98 26 view .LVU186
 683 00c2 3800     		movs	r0, r7
 684 00c4 FFF7FEFF 		bl	__aeabi_idivmod
 685              	.LVL70:
 686              		.loc 1 98 13 view .LVU187
 687 00c8 8DB2     		uxth	r5, r1
 688              	.LVL71:
  99:Core/Src/cmdQueue.c ****         remain--;
 689              		.loc 1 99 9 is_stmt 1 view .LVU188
 690              		.loc 1 99 15 is_stmt 0 view .LVU189
 691 00ca 013E     		subs	r6, r6, #1
 692              	.LVL72:
 693              		.loc 1 99 15 view .LVU190
 694 00cc 76B2     		sxtb	r6, r6
 695              	.LVL73:
 696              	.L30:
 697              		.loc 1 99 15 view .LVU191
 698              	.LBE4:
  95:Core/Src/cmdQueue.c ****         uint16_t nextIdx = ((idx + 1) % q->capacity);
 699              		.loc 1 95 19 is_stmt 1 view .LVU192
 700 00ce 002E     		cmp	r6, #0
 701 00d0 E6DC     		bgt	.L31
 100:Core/Src/cmdQueue.c ****     }
 101:Core/Src/cmdQueue.c ****     q->itemNum--;
 702              		.loc 1 101 5 view .LVU193
 703              		.loc 1 101 6 is_stmt 0 view .LVU194
 704 00d2 2379     		ldrb	r3, [r4, #4]
 705 00d4 5BB2     		sxtb	r3, r3
 706              		.loc 1 101 15 view .LVU195
 707 00d6 013B     		subs	r3, r3, #1
 708 00d8 5BB2     		sxtb	r3, r3
 709 00da 2371     		strb	r3, [r4, #4]
 102:Core/Src/cmdQueue.c ****     q->back = ((q->back - 1 + q->capacity) % q->capacity);
 710              		.loc 1 102 5 is_stmt 1 view .LVU196
 711              		.loc 1 102 18 is_stmt 0 view .LVU197
 712 00dc 6078     		ldrb	r0, [r4, #1]
 713 00de 40B2     		sxtb	r0, r0
 714              		.loc 1 102 25 view .LVU198
 715 00e0 0138     		subs	r0, r0, #1
 716              		.loc 1 102 32 view .LVU199
 717 00e2 A378     		ldrb	r3, [r4, #2]
 718 00e4 5BB2     		sxtb	r3, r3
 719              		.loc 1 102 29 view .LVU200
 720 00e6 C018     		adds	r0, r0, r3
 721              		.loc 1 102 47 view .LVU201
 722 00e8 A178     		ldrb	r1, [r4, #2]
 723 00ea 49B2     		sxtb	r1, r1
 724              		.loc 1 102 44 view .LVU202
 725 00ec FFF7FEFF 		bl	__aeabi_idivmod
 726              	.LVL74:
 727              		.loc 1 102 13 view .LVU203
 728 00f0 49B2     		sxtb	r1, r1
 729 00f2 6170     		strb	r1, [r4, #1]
 103:Core/Src/cmdQueue.c ****     osSemaphoreRelease(binarySem01CmdQueueHandle);
ARM GAS  /var/folders/5r/xb8hq6p128d37tsfvtb6dnd00000gn/T//ccFK2jPO.s 			page 16


 730              		.loc 1 103 5 is_stmt 1 view .LVU204
 731 00f4 044B     		ldr	r3, .L36
 732 00f6 1868     		ldr	r0, [r3]
 733 00f8 FFF7FEFF 		bl	osSemaphoreRelease
 734              	.LVL75:
 104:Core/Src/cmdQueue.c ****     return targetItem;
 735              		.loc 1 104 5 view .LVU205
 736              	.L25:
 105:Core/Src/cmdQueue.c **** }
 737              		.loc 1 105 1 is_stmt 0 view .LVU206
 738 00fc 4046     		mov	r0, r8
 739              		@ sp needed
 740              	.LVL76:
 741              		.loc 1 105 1 view .LVU207
 742 00fe C0BC     		pop	{r6, r7}
 743 0100 B946     		mov	r9, r7
 744 0102 B046     		mov	r8, r6
 745 0104 F8BD     		pop	{r3, r4, r5, r6, r7, pc}
 746              	.L37:
 747 0106 C046     		.align	2
 748              	.L36:
 749 0108 00000000 		.word	binarySem01CmdQueueHandle
 750 010c FFFF0000 		.word	65535
 751              		.cfi_endproc
 752              	.LFE45:
 754              		.section	.text.freeQueue,"ax",%progbits
 755              		.align	1
 756              		.global	freeQueue
 757              		.syntax unified
 758              		.code	16
 759              		.thumb_func
 761              	freeQueue:
 762              	.LVL77:
 763              	.LFB46:
 106:Core/Src/cmdQueue.c **** 
 107:Core/Src/cmdQueue.c **** void freeQueue(Cmd_Queue* q) {
 764              		.loc 1 107 30 is_stmt 1 view -0
 765              		.cfi_startproc
 766              		@ args = 0, pretend = 0, frame = 0
 767              		@ frame_needed = 0, uses_anonymous_args = 0
 768              		.loc 1 107 30 is_stmt 0 view .LVU209
 769 0000 70B5     		push	{r4, r5, r6, lr}
 770              	.LCFI7:
 771              		.cfi_def_cfa_offset 16
 772              		.cfi_offset 4, -16
 773              		.cfi_offset 5, -12
 774              		.cfi_offset 6, -8
 775              		.cfi_offset 14, -4
 776 0002 0400     		movs	r4, r0
 108:Core/Src/cmdQueue.c ****     osSemaphoreAcquire(binarySem01CmdQueueHandle, osWaitForever);
 777              		.loc 1 108 5 is_stmt 1 view .LVU210
 778 0004 0121     		movs	r1, #1
 779 0006 064D     		ldr	r5, .L39
 780 0008 2868     		ldr	r0, [r5]
 781              	.LVL78:
 782              		.loc 1 108 5 is_stmt 0 view .LVU211
 783 000a 4942     		rsbs	r1, r1, #0
ARM GAS  /var/folders/5r/xb8hq6p128d37tsfvtb6dnd00000gn/T//ccFK2jPO.s 			page 17


 784 000c FFF7FEFF 		bl	osSemaphoreAcquire
 785              	.LVL79:
 109:Core/Src/cmdQueue.c **** 	vPortFree(q);
 786              		.loc 1 109 2 is_stmt 1 view .LVU212
 787 0010 2000     		movs	r0, r4
 788 0012 FFF7FEFF 		bl	vPortFree
 789              	.LVL80:
 110:Core/Src/cmdQueue.c ****     osSemaphoreRelease(binarySem01CmdQueueHandle);
 790              		.loc 1 110 5 view .LVU213
 791 0016 2868     		ldr	r0, [r5]
 792 0018 FFF7FEFF 		bl	osSemaphoreRelease
 793              	.LVL81:
 111:Core/Src/cmdQueue.c **** }
 794              		.loc 1 111 1 is_stmt 0 view .LVU214
 795              		@ sp needed
 796              	.LVL82:
 797              		.loc 1 111 1 view .LVU215
 798 001c 70BD     		pop	{r4, r5, r6, pc}
 799              	.L40:
 800 001e C046     		.align	2
 801              	.L39:
 802 0020 00000000 		.word	binarySem01CmdQueueHandle
 803              		.cfi_endproc
 804              	.LFE46:
 806              		.global	binarySem01CmdQueueHandle
 807              		.section	.bss.binarySem01CmdQueueHandle,"aw",%nobits
 808              		.align	2
 811              	binarySem01CmdQueueHandle:
 812 0000 00000000 		.space	4
 813              		.text
 814              	.Letext0:
 815              		.file 2 "/Applications/ArmGNUToolchain/13.2.Rel1/arm-none-eabi/arm-none-eabi/include/machine/_defa
 816              		.file 3 "/Applications/ArmGNUToolchain/13.2.Rel1/arm-none-eabi/arm-none-eabi/include/sys/_stdint.h
 817              		.file 4 "Middlewares/Third_Party/FreeRTOS/Source/CMSIS_RTOS_V2/cmsis_os2.h"
 818              		.file 5 "Core/Inc/cmdQueue.h"
ARM GAS  /var/folders/5r/xb8hq6p128d37tsfvtb6dnd00000gn/T//ccFK2jPO.s 			page 18

