ARM GAS  /var/folders/kr/g9ry2bg56g773797gdtkvvkw0000gn/T//cc96uClB.s 			page 1


   1              		.cpu cortex-m0
   2              		.arch armv6s-m
   3              		.fpu softvfp
   4              		.eabi_attribute 20, 1
   5              		.eabi_attribute 21, 1
   6              		.eabi_attribute 23, 3
   7              		.eabi_attribute 24, 1
   8              		.eabi_attribute 25, 1
   9              		.eabi_attribute 26, 1
  10              		.eabi_attribute 30, 1
  11              		.eabi_attribute 34, 0
  12              		.eabi_attribute 18, 4
  13              		.file	"main.c"
  14              		.text
  15              	.Ltext0:
  16              		.cfi_sections	.debug_frame
  17              		.file 1 "Core/Src/main.c"
  18              		.section	.text.StartRouterTask,"ax",%progbits
  19              		.align	1
  20              		.global	StartRouterTask
  21              		.syntax unified
  22              		.code	16
  23              		.thumb_func
  25              	StartRouterTask:
  26              	.LFB50:
   1:Core/Src/main.c **** /* USER CODE BEGIN Header */
   2:Core/Src/main.c **** /**
   3:Core/Src/main.c ****   ******************************************************************************
   4:Core/Src/main.c ****   * @file           : main.c
   5:Core/Src/main.c ****   * @brief          : Main program body
   6:Core/Src/main.c ****   ******************************************************************************
   7:Core/Src/main.c ****   * @attention
   8:Core/Src/main.c ****   *
   9:Core/Src/main.c ****   * Copyright (c) 2024 STMicroelectronics.
  10:Core/Src/main.c ****   * All rights reserved.
  11:Core/Src/main.c ****   *
  12:Core/Src/main.c ****   * This software is licensed under terms that can be found in the LICENSE file
  13:Core/Src/main.c ****   * in the root directory of this software component.
  14:Core/Src/main.c ****   * If no LICENSE file comes with this software, it is provided AS-IS.
  15:Core/Src/main.c ****   *
  16:Core/Src/main.c ****   ******************************************************************************
  17:Core/Src/main.c ****   */
  18:Core/Src/main.c **** /* USER CODE END Header */
  19:Core/Src/main.c **** /* Includes ------------------------------------------------------------------*/
  20:Core/Src/main.c **** #include "main.h"
  21:Core/Src/main.c **** #include "cmsis_os.h"
  22:Core/Src/main.c **** 
  23:Core/Src/main.c **** /* Private includes ----------------------------------------------------------*/
  24:Core/Src/main.c **** /* USER CODE BEGIN Includes */
  25:Core/Src/main.c **** 
  26:Core/Src/main.c **** /* USER CODE END Includes */
  27:Core/Src/main.c **** 
  28:Core/Src/main.c **** /* Private typedef -----------------------------------------------------------*/
  29:Core/Src/main.c **** /* USER CODE BEGIN PTD */
  30:Core/Src/main.c **** 
  31:Core/Src/main.c **** /* USER CODE END PTD */
  32:Core/Src/main.c **** 
ARM GAS  /var/folders/kr/g9ry2bg56g773797gdtkvvkw0000gn/T//cc96uClB.s 			page 2


  33:Core/Src/main.c **** /* Private define ------------------------------------------------------------*/
  34:Core/Src/main.c **** /* USER CODE BEGIN PD */
  35:Core/Src/main.c **** 
  36:Core/Src/main.c **** /* USER CODE END PD */
  37:Core/Src/main.c **** 
  38:Core/Src/main.c **** /* Private macro -------------------------------------------------------------*/
  39:Core/Src/main.c **** /* USER CODE BEGIN PM */
  40:Core/Src/main.c **** 
  41:Core/Src/main.c **** /* USER CODE END PM */
  42:Core/Src/main.c **** 
  43:Core/Src/main.c **** /* Private variables ---------------------------------------------------------*/
  44:Core/Src/main.c **** I2C_HandleTypeDef hi2c2;
  45:Core/Src/main.c **** 
  46:Core/Src/main.c **** SPI_HandleTypeDef hspi2;
  47:Core/Src/main.c **** 
  48:Core/Src/main.c **** TSC_HandleTypeDef htsc;
  49:Core/Src/main.c **** 
  50:Core/Src/main.c **** PCD_HandleTypeDef hpcd_USB_FS;
  51:Core/Src/main.c **** /* Definitions for task router */
  52:Core/Src/main.c **** osThreadId_t routerTaskHandle;
  53:Core/Src/main.c **** const osThreadAttr_t routerTask_attributes = {
  54:Core/Src/main.c ****   .name = "routerTask",
  55:Core/Src/main.c ****   .stack_size = 128 * 4,
  56:Core/Src/main.c ****   .priority = (osPriority_t) osPriorityNormal,
  57:Core/Src/main.c **** };
  58:Core/Src/main.c **** 
  59:Core/Src/main.c **** /* Definitions for task blink1 */
  60:Core/Src/main.c **** osThreadId_t LEDTaskHandle;
  61:Core/Src/main.c **** const osThreadAttr_t LEDTask_attributes = {
  62:Core/Src/main.c ****   .name = "LEDTask",
  63:Core/Src/main.c ****   .stack_size = 128 * 4,
  64:Core/Src/main.c ****   .priority = (osPriority_t) osPriorityNormal,
  65:Core/Src/main.c **** };
  66:Core/Src/main.c **** 
  67:Core/Src/main.c **** /* USER CODE BEGIN PV */
  68:Core/Src/main.c **** 
  69:Core/Src/main.c **** /* USER CODE END PV */
  70:Core/Src/main.c **** 
  71:Core/Src/main.c **** /* Private function prototypes -----------------------------------------------*/
  72:Core/Src/main.c **** void SystemClock_Config(void);
  73:Core/Src/main.c **** static void MX_GPIO_Init(void);
  74:Core/Src/main.c **** static void MX_I2C2_Init(void);
  75:Core/Src/main.c **** static void MX_SPI2_Init(void);
  76:Core/Src/main.c **** static void MX_TSC_Init(void);
  77:Core/Src/main.c **** static void MX_USB_PCD_Init(void);
  78:Core/Src/main.c **** void StartRouterTask(void *argument);
  79:Core/Src/main.c **** void StartLEDTask(void *argument);
  80:Core/Src/main.c **** 
  81:Core/Src/main.c **** /* USER CODE BEGIN PFP */
  82:Core/Src/main.c **** 
  83:Core/Src/main.c **** /* USER CODE END PFP */
  84:Core/Src/main.c **** 
  85:Core/Src/main.c **** /* Private user code ---------------------------------------------------------*/
  86:Core/Src/main.c **** /* USER CODE BEGIN 0 */
  87:Core/Src/main.c **** 
  88:Core/Src/main.c **** /* USER CODE END 0 */
  89:Core/Src/main.c **** 
ARM GAS  /var/folders/kr/g9ry2bg56g773797gdtkvvkw0000gn/T//cc96uClB.s 			page 3


  90:Core/Src/main.c **** /**
  91:Core/Src/main.c ****   * @brief  The application entry point.
  92:Core/Src/main.c ****   * @retval int
  93:Core/Src/main.c ****   */
  94:Core/Src/main.c **** int main(void)
  95:Core/Src/main.c **** {
  96:Core/Src/main.c **** 
  97:Core/Src/main.c ****   /* USER CODE BEGIN 1 */
  98:Core/Src/main.c **** 
  99:Core/Src/main.c ****   /* USER CODE END 1 */
 100:Core/Src/main.c **** 
 101:Core/Src/main.c ****   /* MCU Configuration--------------------------------------------------------*/
 102:Core/Src/main.c **** 
 103:Core/Src/main.c ****   /* Reset of all peripherals, Initializes the Flash interface and the Systick. */
 104:Core/Src/main.c ****   HAL_Init();
 105:Core/Src/main.c **** 
 106:Core/Src/main.c ****   /* USER CODE BEGIN Init */
 107:Core/Src/main.c **** 
 108:Core/Src/main.c ****   /* USER CODE END Init */
 109:Core/Src/main.c **** 
 110:Core/Src/main.c ****   /* Configure the system clock */
 111:Core/Src/main.c ****   SystemClock_Config();
 112:Core/Src/main.c **** 
 113:Core/Src/main.c ****   /* USER CODE BEGIN SysInit */
 114:Core/Src/main.c **** 
 115:Core/Src/main.c ****   /* USER CODE END SysInit */
 116:Core/Src/main.c **** 
 117:Core/Src/main.c ****   /* Initialize all configured peripherals */
 118:Core/Src/main.c ****   MX_GPIO_Init();
 119:Core/Src/main.c ****   MX_I2C2_Init();
 120:Core/Src/main.c ****   MX_SPI2_Init();
 121:Core/Src/main.c ****   MX_TSC_Init();
 122:Core/Src/main.c ****   MX_USB_PCD_Init();
 123:Core/Src/main.c **** 
 124:Core/Src/main.c ****   initUsart3();
 125:Core/Src/main.c ****   /* USER CODE BEGIN 2 */
 126:Core/Src/main.c **** 
 127:Core/Src/main.c ****   /* USER CODE END 2 */
 128:Core/Src/main.c **** 
 129:Core/Src/main.c ****   /* Init scheduler */
 130:Core/Src/main.c ****   osKernelInitialize();
 131:Core/Src/main.c **** 
 132:Core/Src/main.c ****   /* USER CODE BEGIN RTOS_MUTEX */
 133:Core/Src/main.c ****   /* add mutexes, ... */
 134:Core/Src/main.c ****   /* USER CODE END RTOS_MUTEX */
 135:Core/Src/main.c **** 
 136:Core/Src/main.c ****   /* USER CODE BEGIN RTOS_SEMAPHORES */
 137:Core/Src/main.c ****   /* add semaphores, ... */
 138:Core/Src/main.c ****   /* USER CODE END RTOS_SEMAPHORES */
 139:Core/Src/main.c **** 
 140:Core/Src/main.c ****   /* USER CODE BEGIN RTOS_TIMERS */
 141:Core/Src/main.c ****   /* start timers, add new ones, ... */
 142:Core/Src/main.c ****   /* USER CODE END RTOS_TIMERS */
 143:Core/Src/main.c **** 
 144:Core/Src/main.c ****   /* USER CODE BEGIN RTOS_QUEUES */
 145:Core/Src/main.c ****   /* add queues, ... */
 146:Core/Src/main.c ****   /* USER CODE END RTOS_QUEUES */
ARM GAS  /var/folders/kr/g9ry2bg56g773797gdtkvvkw0000gn/T//cc96uClB.s 			page 4


 147:Core/Src/main.c **** 
 148:Core/Src/main.c ****   /* Create the thread(s) */
 149:Core/Src/main.c ****   /* creation of routerTask */
 150:Core/Src/main.c ****   routerTaskHandle = osThreadNew(StartRouterTask, NULL, &routerTask_attributes);
 151:Core/Src/main.c ****   /* creation of LEDTask */
 152:Core/Src/main.c ****   LEDTaskHandle = osThreadNew(StartLEDTask, NULL, &LEDTask_attributes);
 153:Core/Src/main.c **** 
 154:Core/Src/main.c ****   /* USER CODE BEGIN RTOS_THREADS */
 155:Core/Src/main.c ****   /* add threads, ... */
 156:Core/Src/main.c ****   /* USER CODE END RTOS_THREADS */
 157:Core/Src/main.c **** 
 158:Core/Src/main.c ****   /* USER CODE BEGIN RTOS_EVENTS */
 159:Core/Src/main.c ****   /* add events, ... */
 160:Core/Src/main.c ****   /* USER CODE END RTOS_EVENTS */
 161:Core/Src/main.c **** 
 162:Core/Src/main.c ****   /* Start scheduler */
 163:Core/Src/main.c ****   osKernelStart();
 164:Core/Src/main.c **** 
 165:Core/Src/main.c ****   /* We should never get here as control is now taken by the scheduler */
 166:Core/Src/main.c **** 
 167:Core/Src/main.c ****   /* Infinite loop */
 168:Core/Src/main.c ****   /* USER CODE BEGIN WHILE */
 169:Core/Src/main.c ****   while (1)
 170:Core/Src/main.c ****   {
 171:Core/Src/main.c ****     /* USER CODE END WHILE */
 172:Core/Src/main.c **** 
 173:Core/Src/main.c ****     /* USER CODE BEGIN 3 */
 174:Core/Src/main.c ****   }
 175:Core/Src/main.c ****   /* USER CODE END 3 */
 176:Core/Src/main.c **** }
 177:Core/Src/main.c **** 
 178:Core/Src/main.c **** /**
 179:Core/Src/main.c ****   * @brief System Clock Configuration
 180:Core/Src/main.c ****   * @retval None
 181:Core/Src/main.c ****   */
 182:Core/Src/main.c **** void SystemClock_Config(void)
 183:Core/Src/main.c **** {
 184:Core/Src/main.c ****   RCC_OscInitTypeDef RCC_OscInitStruct = {0};
 185:Core/Src/main.c ****   RCC_ClkInitTypeDef RCC_ClkInitStruct = {0};
 186:Core/Src/main.c ****   RCC_PeriphCLKInitTypeDef PeriphClkInit = {0};
 187:Core/Src/main.c **** 
 188:Core/Src/main.c ****   /** Initializes the RCC Oscillators according to the specified parameters
 189:Core/Src/main.c ****   * in the RCC_OscInitTypeDef structure.
 190:Core/Src/main.c ****   */
 191:Core/Src/main.c ****   RCC_OscInitStruct.OscillatorType = RCC_OSCILLATORTYPE_HSI|RCC_OSCILLATORTYPE_HSI48;
 192:Core/Src/main.c ****   RCC_OscInitStruct.HSIState = RCC_HSI_ON;
 193:Core/Src/main.c ****   RCC_OscInitStruct.HSI48State = RCC_HSI48_ON;
 194:Core/Src/main.c ****   RCC_OscInitStruct.HSICalibrationValue = RCC_HSICALIBRATION_DEFAULT;
 195:Core/Src/main.c ****   RCC_OscInitStruct.PLL.PLLState = RCC_PLL_ON;
 196:Core/Src/main.c ****   RCC_OscInitStruct.PLL.PLLSource = RCC_PLLSOURCE_HSI;
 197:Core/Src/main.c ****   RCC_OscInitStruct.PLL.PLLMUL = RCC_PLL_MUL6;
 198:Core/Src/main.c ****   RCC_OscInitStruct.PLL.PREDIV = RCC_PREDIV_DIV1;
 199:Core/Src/main.c ****   if (HAL_RCC_OscConfig(&RCC_OscInitStruct) != HAL_OK)
 200:Core/Src/main.c ****   {
 201:Core/Src/main.c ****     Error_Handler();
 202:Core/Src/main.c ****   }
 203:Core/Src/main.c **** 
ARM GAS  /var/folders/kr/g9ry2bg56g773797gdtkvvkw0000gn/T//cc96uClB.s 			page 5


 204:Core/Src/main.c ****   /** Initializes the CPU, AHB and APB buses clocks
 205:Core/Src/main.c ****   */
 206:Core/Src/main.c ****   RCC_ClkInitStruct.ClockType = RCC_CLOCKTYPE_HCLK|RCC_CLOCKTYPE_SYSCLK
 207:Core/Src/main.c ****                               |RCC_CLOCKTYPE_PCLK1;
 208:Core/Src/main.c ****   RCC_ClkInitStruct.SYSCLKSource = RCC_SYSCLKSOURCE_PLLCLK;
 209:Core/Src/main.c ****   RCC_ClkInitStruct.AHBCLKDivider = RCC_SYSCLK_DIV1;
 210:Core/Src/main.c ****   RCC_ClkInitStruct.APB1CLKDivider = RCC_HCLK_DIV1;
 211:Core/Src/main.c **** 
 212:Core/Src/main.c ****   if (HAL_RCC_ClockConfig(&RCC_ClkInitStruct, FLASH_LATENCY_1) != HAL_OK)
 213:Core/Src/main.c ****   {
 214:Core/Src/main.c ****     Error_Handler();
 215:Core/Src/main.c ****   }
 216:Core/Src/main.c ****   PeriphClkInit.PeriphClockSelection = RCC_PERIPHCLK_USB;
 217:Core/Src/main.c ****   PeriphClkInit.UsbClockSelection = RCC_USBCLKSOURCE_HSI48;
 218:Core/Src/main.c **** 
 219:Core/Src/main.c ****   if (HAL_RCCEx_PeriphCLKConfig(&PeriphClkInit) != HAL_OK)
 220:Core/Src/main.c ****   {
 221:Core/Src/main.c ****     Error_Handler();
 222:Core/Src/main.c ****   }
 223:Core/Src/main.c **** }
 224:Core/Src/main.c **** 
 225:Core/Src/main.c **** /**
 226:Core/Src/main.c ****   * @brief I2C2 Initialization Function
 227:Core/Src/main.c ****   * @param None
 228:Core/Src/main.c ****   * @retval None
 229:Core/Src/main.c ****   */
 230:Core/Src/main.c **** static void MX_I2C2_Init(void)
 231:Core/Src/main.c **** {
 232:Core/Src/main.c **** 
 233:Core/Src/main.c ****   /* USER CODE BEGIN I2C2_Init 0 */
 234:Core/Src/main.c **** 
 235:Core/Src/main.c ****   /* USER CODE END I2C2_Init 0 */
 236:Core/Src/main.c **** 
 237:Core/Src/main.c ****   /* USER CODE BEGIN I2C2_Init 1 */
 238:Core/Src/main.c **** 
 239:Core/Src/main.c ****   /* USER CODE END I2C2_Init 1 */
 240:Core/Src/main.c ****   hi2c2.Instance = I2C2;
 241:Core/Src/main.c ****   hi2c2.Init.Timing = 0x20303E5D;
 242:Core/Src/main.c ****   hi2c2.Init.OwnAddress1 = 0;
 243:Core/Src/main.c ****   hi2c2.Init.AddressingMode = I2C_ADDRESSINGMODE_7BIT;
 244:Core/Src/main.c ****   hi2c2.Init.DualAddressMode = I2C_DUALADDRESS_DISABLE;
 245:Core/Src/main.c ****   hi2c2.Init.OwnAddress2 = 0;
 246:Core/Src/main.c ****   hi2c2.Init.OwnAddress2Masks = I2C_OA2_NOMASK;
 247:Core/Src/main.c ****   hi2c2.Init.GeneralCallMode = I2C_GENERALCALL_DISABLE;
 248:Core/Src/main.c ****   hi2c2.Init.NoStretchMode = I2C_NOSTRETCH_DISABLE;
 249:Core/Src/main.c ****   if (HAL_I2C_Init(&hi2c2) != HAL_OK)
 250:Core/Src/main.c ****   {
 251:Core/Src/main.c ****     Error_Handler();
 252:Core/Src/main.c ****   }
 253:Core/Src/main.c **** 
 254:Core/Src/main.c ****   /** Configure Analogue filter
 255:Core/Src/main.c ****   */
 256:Core/Src/main.c ****   if (HAL_I2CEx_ConfigAnalogFilter(&hi2c2, I2C_ANALOGFILTER_ENABLE) != HAL_OK)
 257:Core/Src/main.c ****   {
 258:Core/Src/main.c ****     Error_Handler();
 259:Core/Src/main.c ****   }
 260:Core/Src/main.c **** 
ARM GAS  /var/folders/kr/g9ry2bg56g773797gdtkvvkw0000gn/T//cc96uClB.s 			page 6


 261:Core/Src/main.c ****   /** Configure Digital filter
 262:Core/Src/main.c ****   */
 263:Core/Src/main.c ****   if (HAL_I2CEx_ConfigDigitalFilter(&hi2c2, 0) != HAL_OK)
 264:Core/Src/main.c ****   {
 265:Core/Src/main.c ****     Error_Handler();
 266:Core/Src/main.c ****   }
 267:Core/Src/main.c ****   /* USER CODE BEGIN I2C2_Init 2 */
 268:Core/Src/main.c **** 
 269:Core/Src/main.c ****   /* USER CODE END I2C2_Init 2 */
 270:Core/Src/main.c **** 
 271:Core/Src/main.c **** }
 272:Core/Src/main.c **** 
 273:Core/Src/main.c **** /**
 274:Core/Src/main.c ****   * @brief SPI2 Initialization Function
 275:Core/Src/main.c ****   * @param None
 276:Core/Src/main.c ****   * @retval None
 277:Core/Src/main.c ****   */
 278:Core/Src/main.c **** static void MX_SPI2_Init(void)
 279:Core/Src/main.c **** {
 280:Core/Src/main.c **** 
 281:Core/Src/main.c ****   /* USER CODE BEGIN SPI2_Init 0 */
 282:Core/Src/main.c **** 
 283:Core/Src/main.c ****   /* USER CODE END SPI2_Init 0 */
 284:Core/Src/main.c **** 
 285:Core/Src/main.c ****   /* USER CODE BEGIN SPI2_Init 1 */
 286:Core/Src/main.c **** 
 287:Core/Src/main.c ****   /* USER CODE END SPI2_Init 1 */
 288:Core/Src/main.c ****   /* SPI2 parameter configuration*/
 289:Core/Src/main.c ****   hspi2.Instance = SPI2;
 290:Core/Src/main.c ****   hspi2.Init.Mode = SPI_MODE_MASTER;
 291:Core/Src/main.c ****   hspi2.Init.Direction = SPI_DIRECTION_2LINES;
 292:Core/Src/main.c ****   hspi2.Init.DataSize = SPI_DATASIZE_4BIT;
 293:Core/Src/main.c ****   hspi2.Init.CLKPolarity = SPI_POLARITY_LOW;
 294:Core/Src/main.c ****   hspi2.Init.CLKPhase = SPI_PHASE_1EDGE;
 295:Core/Src/main.c ****   hspi2.Init.NSS = SPI_NSS_SOFT;
 296:Core/Src/main.c ****   hspi2.Init.BaudRatePrescaler = SPI_BAUDRATEPRESCALER_4;
 297:Core/Src/main.c ****   hspi2.Init.FirstBit = SPI_FIRSTBIT_MSB;
 298:Core/Src/main.c ****   hspi2.Init.TIMode = SPI_TIMODE_DISABLE;
 299:Core/Src/main.c ****   hspi2.Init.CRCCalculation = SPI_CRCCALCULATION_DISABLE;
 300:Core/Src/main.c ****   hspi2.Init.CRCPolynomial = 7;
 301:Core/Src/main.c ****   hspi2.Init.CRCLength = SPI_CRC_LENGTH_DATASIZE;
 302:Core/Src/main.c ****   hspi2.Init.NSSPMode = SPI_NSS_PULSE_ENABLE;
 303:Core/Src/main.c ****   if (HAL_SPI_Init(&hspi2) != HAL_OK)
 304:Core/Src/main.c ****   {
 305:Core/Src/main.c ****     Error_Handler();
 306:Core/Src/main.c ****   }
 307:Core/Src/main.c ****   /* USER CODE BEGIN SPI2_Init 2 */
 308:Core/Src/main.c **** 
 309:Core/Src/main.c ****   /* USER CODE END SPI2_Init 2 */
 310:Core/Src/main.c **** 
 311:Core/Src/main.c **** }
 312:Core/Src/main.c **** 
 313:Core/Src/main.c **** /**
 314:Core/Src/main.c ****   * @brief TSC Initialization Function
 315:Core/Src/main.c ****   * @param None
 316:Core/Src/main.c ****   * @retval None
 317:Core/Src/main.c ****   */
ARM GAS  /var/folders/kr/g9ry2bg56g773797gdtkvvkw0000gn/T//cc96uClB.s 			page 7


 318:Core/Src/main.c **** static void MX_TSC_Init(void)
 319:Core/Src/main.c **** {
 320:Core/Src/main.c **** 
 321:Core/Src/main.c ****   /* USER CODE BEGIN TSC_Init 0 */
 322:Core/Src/main.c **** 
 323:Core/Src/main.c ****   /* USER CODE END TSC_Init 0 */
 324:Core/Src/main.c **** 
 325:Core/Src/main.c ****   /* USER CODE BEGIN TSC_Init 1 */
 326:Core/Src/main.c **** 
 327:Core/Src/main.c ****   /* USER CODE END TSC_Init 1 */
 328:Core/Src/main.c **** 
 329:Core/Src/main.c ****   /** Configure the TSC peripheral
 330:Core/Src/main.c ****   */
 331:Core/Src/main.c ****   htsc.Instance = TSC;
 332:Core/Src/main.c ****   htsc.Init.CTPulseHighLength = TSC_CTPH_2CYCLES;
 333:Core/Src/main.c ****   htsc.Init.CTPulseLowLength = TSC_CTPL_2CYCLES;
 334:Core/Src/main.c ****   htsc.Init.SpreadSpectrum = DISABLE;
 335:Core/Src/main.c ****   htsc.Init.SpreadSpectrumDeviation = 1;
 336:Core/Src/main.c ****   htsc.Init.SpreadSpectrumPrescaler = TSC_SS_PRESC_DIV1;
 337:Core/Src/main.c ****   htsc.Init.PulseGeneratorPrescaler = TSC_PG_PRESC_DIV4;
 338:Core/Src/main.c ****   htsc.Init.MaxCountValue = TSC_MCV_8191;
 339:Core/Src/main.c ****   htsc.Init.IODefaultMode = TSC_IODEF_OUT_PP_LOW;
 340:Core/Src/main.c ****   htsc.Init.SynchroPinPolarity = TSC_SYNC_POLARITY_FALLING;
 341:Core/Src/main.c ****   htsc.Init.AcquisitionMode = TSC_ACQ_MODE_NORMAL;
 342:Core/Src/main.c ****   htsc.Init.MaxCountInterrupt = DISABLE;
 343:Core/Src/main.c ****   htsc.Init.ChannelIOs = TSC_GROUP1_IO3|TSC_GROUP2_IO3|TSC_GROUP3_IO2;
 344:Core/Src/main.c ****   htsc.Init.ShieldIOs = 0;
 345:Core/Src/main.c ****   htsc.Init.SamplingIOs = TSC_GROUP1_IO4|TSC_GROUP2_IO4|TSC_GROUP3_IO3;
 346:Core/Src/main.c ****   if (HAL_TSC_Init(&htsc) != HAL_OK)
 347:Core/Src/main.c ****   {
 348:Core/Src/main.c ****     Error_Handler();
 349:Core/Src/main.c ****   }
 350:Core/Src/main.c ****   /* USER CODE BEGIN TSC_Init 2 */
 351:Core/Src/main.c **** 
 352:Core/Src/main.c ****   /* USER CODE END TSC_Init 2 */
 353:Core/Src/main.c **** 
 354:Core/Src/main.c **** }
 355:Core/Src/main.c **** 
 356:Core/Src/main.c **** /**
 357:Core/Src/main.c ****   * @brief USB Initialization Function
 358:Core/Src/main.c ****   * @param None
 359:Core/Src/main.c ****   * @retval None
 360:Core/Src/main.c ****   */
 361:Core/Src/main.c **** static void MX_USB_PCD_Init(void)
 362:Core/Src/main.c **** {
 363:Core/Src/main.c **** 
 364:Core/Src/main.c ****   /* USER CODE BEGIN USB_Init 0 */
 365:Core/Src/main.c **** 
 366:Core/Src/main.c ****   /* USER CODE END USB_Init 0 */
 367:Core/Src/main.c **** 
 368:Core/Src/main.c ****   /* USER CODE BEGIN USB_Init 1 */
 369:Core/Src/main.c **** 
 370:Core/Src/main.c ****   /* USER CODE END USB_Init 1 */
 371:Core/Src/main.c ****   hpcd_USB_FS.Instance = USB;
 372:Core/Src/main.c ****   hpcd_USB_FS.Init.dev_endpoints = 8;
 373:Core/Src/main.c ****   hpcd_USB_FS.Init.speed = PCD_SPEED_FULL;
 374:Core/Src/main.c ****   hpcd_USB_FS.Init.phy_itface = PCD_PHY_EMBEDDED;
ARM GAS  /var/folders/kr/g9ry2bg56g773797gdtkvvkw0000gn/T//cc96uClB.s 			page 8


 375:Core/Src/main.c ****   hpcd_USB_FS.Init.low_power_enable = DISABLE;
 376:Core/Src/main.c ****   hpcd_USB_FS.Init.lpm_enable = DISABLE;
 377:Core/Src/main.c ****   hpcd_USB_FS.Init.battery_charging_enable = DISABLE;
 378:Core/Src/main.c ****   if (HAL_PCD_Init(&hpcd_USB_FS) != HAL_OK)
 379:Core/Src/main.c ****   {
 380:Core/Src/main.c ****     Error_Handler();
 381:Core/Src/main.c ****   }
 382:Core/Src/main.c ****   /* USER CODE BEGIN USB_Init 2 */
 383:Core/Src/main.c **** 
 384:Core/Src/main.c ****   /* USER CODE END USB_Init 2 */
 385:Core/Src/main.c **** 
 386:Core/Src/main.c **** }
 387:Core/Src/main.c **** 
 388:Core/Src/main.c **** /**
 389:Core/Src/main.c ****   * @brief GPIO Initialization Function
 390:Core/Src/main.c ****   * @param None
 391:Core/Src/main.c ****   * @retval None
 392:Core/Src/main.c ****   */
 393:Core/Src/main.c **** static void MX_GPIO_Init(void)
 394:Core/Src/main.c **** {
 395:Core/Src/main.c ****   GPIO_InitTypeDef GPIO_InitStruct = {0};
 396:Core/Src/main.c **** /* USER CODE BEGIN MX_GPIO_Init_1 */
 397:Core/Src/main.c **** /* USER CODE END MX_GPIO_Init_1 */
 398:Core/Src/main.c **** 
 399:Core/Src/main.c ****   /* GPIO Ports Clock Enable */
 400:Core/Src/main.c ****   __HAL_RCC_GPIOC_CLK_ENABLE();
 401:Core/Src/main.c ****   __HAL_RCC_GPIOA_CLK_ENABLE();
 402:Core/Src/main.c ****   __HAL_RCC_GPIOB_CLK_ENABLE();
 403:Core/Src/main.c **** 
 404:Core/Src/main.c ****   /*Configure GPIO pin Output Level */
 405:Core/Src/main.c ****   HAL_GPIO_WritePin(GPIOC, NCS_MEMS_SPI_Pin|EXT_RESET_Pin|LD3_Pin|LD6_Pin
 406:Core/Src/main.c ****                           |LD4_Pin|LD5_Pin, GPIO_PIN_RESET);
 407:Core/Src/main.c **** 
 408:Core/Src/main.c ****   /*Configure GPIO pins : NCS_MEMS_SPI_Pin EXT_RESET_Pin LD3_Pin LD6_Pin
 409:Core/Src/main.c ****                            LD4_Pin LD5_Pin */
 410:Core/Src/main.c ****   GPIO_InitStruct.Pin = NCS_MEMS_SPI_Pin|EXT_RESET_Pin|LD3_Pin|LD6_Pin
 411:Core/Src/main.c ****                           |LD4_Pin|LD5_Pin;
 412:Core/Src/main.c ****   GPIO_InitStruct.Mode = GPIO_MODE_OUTPUT_PP;
 413:Core/Src/main.c ****   GPIO_InitStruct.Pull = GPIO_NOPULL;
 414:Core/Src/main.c ****   GPIO_InitStruct.Speed = GPIO_SPEED_FREQ_LOW;
 415:Core/Src/main.c ****   HAL_GPIO_Init(GPIOC, &GPIO_InitStruct);
 416:Core/Src/main.c **** 
 417:Core/Src/main.c ****   /*Configure GPIO pins : MEMS_INT1_Pin MEMS_INT2_Pin */
 418:Core/Src/main.c ****   GPIO_InitStruct.Pin = MEMS_INT1_Pin|MEMS_INT2_Pin;
 419:Core/Src/main.c ****   GPIO_InitStruct.Mode = GPIO_MODE_EVT_RISING;
 420:Core/Src/main.c ****   GPIO_InitStruct.Pull = GPIO_NOPULL;
 421:Core/Src/main.c ****   HAL_GPIO_Init(GPIOC, &GPIO_InitStruct);
 422:Core/Src/main.c **** 
 423:Core/Src/main.c ****   /*Configure GPIO pin : B1_Pin */
 424:Core/Src/main.c ****   GPIO_InitStruct.Pin = B1_Pin;
 425:Core/Src/main.c ****   GPIO_InitStruct.Mode = GPIO_MODE_EVT_RISING;
 426:Core/Src/main.c ****   GPIO_InitStruct.Pull = GPIO_NOPULL;
 427:Core/Src/main.c ****   HAL_GPIO_Init(B1_GPIO_Port, &GPIO_InitStruct);
 428:Core/Src/main.c **** 
 429:Core/Src/main.c **** /* USER CODE BEGIN MX_GPIO_Init_2 */
 430:Core/Src/main.c **** /* USER CODE END MX_GPIO_Init_2 */
 431:Core/Src/main.c **** }
ARM GAS  /var/folders/kr/g9ry2bg56g773797gdtkvvkw0000gn/T//cc96uClB.s 			page 9


 432:Core/Src/main.c **** 
 433:Core/Src/main.c **** /* USER CODE BEGIN 4 */
 434:Core/Src/main.c **** 
 435:Core/Src/main.c **** /* USER CODE END 4 */
 436:Core/Src/main.c **** 
 437:Core/Src/main.c **** /* USER CODE BEGIN Header_StartRouterTask */
 438:Core/Src/main.c **** /**
 439:Core/Src/main.c ****   * @brief  Function implementing the routerTask thread.
 440:Core/Src/main.c ****   * @param  argument: Not used
 441:Core/Src/main.c ****   * @retval None
 442:Core/Src/main.c ****   */
 443:Core/Src/main.c **** /* USER CODE END Header_StartRouterTask */
 444:Core/Src/main.c **** void StartRouterTask(void *argument)
 445:Core/Src/main.c **** {
  27              		.loc 1 445 1 view -0
  28              		.cfi_startproc
  29              		@ Volatile: function does not return.
  30              		@ args = 0, pretend = 0, frame = 0
  31              		@ frame_needed = 0, uses_anonymous_args = 0
  32              		@ link register save eliminated.
  33              	.LVL0:
  34              	.L2:
 446:Core/Src/main.c ****   /* USER CODE BEGIN 5 */
 447:Core/Src/main.c ****   /* Infinite loop */
 448:Core/Src/main.c ****   for(;;)
  35              		.loc 1 448 3 view .LVU1
 449:Core/Src/main.c ****   {
 450:Core/Src/main.c ****     //If queue is not empty
 451:Core/Src/main.c ****       //Retrieve command from queue
 452:Core/Src/main.c ****       //Determine which worker task corresponds to command
 453:Core/Src/main.c ****       //Wait until worker task is not busy/full
 454:Core/Src/main.c ****       //Send command to worker
 455:Core/Src/main.c ****         //Write command to global variable
 456:Core/Src/main.c ****         //wake worker - vtaskresume
 457:Core/Src/main.c ****   }
  36              		.loc 1 457 3 view .LVU2
 448:Core/Src/main.c ****   {
  37              		.loc 1 448 3 view .LVU3
  38 0000 FEE7     		b	.L2
  39              		.cfi_endproc
  40              	.LFE50:
  42              		.section	.text.MX_GPIO_Init,"ax",%progbits
  43              		.align	1
  44              		.syntax unified
  45              		.code	16
  46              		.thumb_func
  48              	MX_GPIO_Init:
  49              	.LFB49:
 394:Core/Src/main.c ****   GPIO_InitTypeDef GPIO_InitStruct = {0};
  50              		.loc 1 394 1 view -0
  51              		.cfi_startproc
  52              		@ args = 0, pretend = 0, frame = 32
  53              		@ frame_needed = 0, uses_anonymous_args = 0
  54 0000 F0B5     		push	{r4, r5, r6, r7, lr}
  55              	.LCFI0:
  56              		.cfi_def_cfa_offset 20
  57              		.cfi_offset 4, -20
ARM GAS  /var/folders/kr/g9ry2bg56g773797gdtkvvkw0000gn/T//cc96uClB.s 			page 10


  58              		.cfi_offset 5, -16
  59              		.cfi_offset 6, -12
  60              		.cfi_offset 7, -8
  61              		.cfi_offset 14, -4
  62 0002 89B0     		sub	sp, sp, #36
  63              	.LCFI1:
  64              		.cfi_def_cfa_offset 56
 395:Core/Src/main.c **** /* USER CODE BEGIN MX_GPIO_Init_1 */
  65              		.loc 1 395 3 view .LVU5
 395:Core/Src/main.c **** /* USER CODE BEGIN MX_GPIO_Init_1 */
  66              		.loc 1 395 20 is_stmt 0 view .LVU6
  67 0004 1422     		movs	r2, #20
  68 0006 0021     		movs	r1, #0
  69 0008 03A8     		add	r0, sp, #12
  70 000a FFF7FEFF 		bl	memset
  71              	.LVL1:
 400:Core/Src/main.c ****   __HAL_RCC_GPIOA_CLK_ENABLE();
  72              		.loc 1 400 3 is_stmt 1 view .LVU7
  73              	.LBB4:
 400:Core/Src/main.c ****   __HAL_RCC_GPIOA_CLK_ENABLE();
  74              		.loc 1 400 3 view .LVU8
 400:Core/Src/main.c ****   __HAL_RCC_GPIOA_CLK_ENABLE();
  75              		.loc 1 400 3 view .LVU9
  76 000e 204B     		ldr	r3, .L4
  77 0010 5A69     		ldr	r2, [r3, #20]
  78 0012 8021     		movs	r1, #128
  79 0014 0903     		lsls	r1, r1, #12
  80 0016 0A43     		orrs	r2, r1
  81 0018 5A61     		str	r2, [r3, #20]
 400:Core/Src/main.c ****   __HAL_RCC_GPIOA_CLK_ENABLE();
  82              		.loc 1 400 3 view .LVU10
  83 001a 5A69     		ldr	r2, [r3, #20]
  84 001c 0A40     		ands	r2, r1
  85 001e 0092     		str	r2, [sp]
 400:Core/Src/main.c ****   __HAL_RCC_GPIOA_CLK_ENABLE();
  86              		.loc 1 400 3 view .LVU11
  87 0020 009A     		ldr	r2, [sp]
  88              	.LBE4:
 400:Core/Src/main.c ****   __HAL_RCC_GPIOA_CLK_ENABLE();
  89              		.loc 1 400 3 view .LVU12
 401:Core/Src/main.c ****   __HAL_RCC_GPIOB_CLK_ENABLE();
  90              		.loc 1 401 3 view .LVU13
  91              	.LBB5:
 401:Core/Src/main.c ****   __HAL_RCC_GPIOB_CLK_ENABLE();
  92              		.loc 1 401 3 view .LVU14
 401:Core/Src/main.c ****   __HAL_RCC_GPIOB_CLK_ENABLE();
  93              		.loc 1 401 3 view .LVU15
  94 0022 5A69     		ldr	r2, [r3, #20]
  95 0024 8021     		movs	r1, #128
  96 0026 8902     		lsls	r1, r1, #10
  97 0028 0A43     		orrs	r2, r1
  98 002a 5A61     		str	r2, [r3, #20]
 401:Core/Src/main.c ****   __HAL_RCC_GPIOB_CLK_ENABLE();
  99              		.loc 1 401 3 view .LVU16
 100 002c 5A69     		ldr	r2, [r3, #20]
 101 002e 0A40     		ands	r2, r1
 102 0030 0192     		str	r2, [sp, #4]
ARM GAS  /var/folders/kr/g9ry2bg56g773797gdtkvvkw0000gn/T//cc96uClB.s 			page 11


 401:Core/Src/main.c ****   __HAL_RCC_GPIOB_CLK_ENABLE();
 103              		.loc 1 401 3 view .LVU17
 104 0032 019A     		ldr	r2, [sp, #4]
 105              	.LBE5:
 401:Core/Src/main.c ****   __HAL_RCC_GPIOB_CLK_ENABLE();
 106              		.loc 1 401 3 view .LVU18
 402:Core/Src/main.c **** 
 107              		.loc 1 402 3 view .LVU19
 108              	.LBB6:
 402:Core/Src/main.c **** 
 109              		.loc 1 402 3 view .LVU20
 402:Core/Src/main.c **** 
 110              		.loc 1 402 3 view .LVU21
 111 0034 5A69     		ldr	r2, [r3, #20]
 112 0036 8021     		movs	r1, #128
 113 0038 C902     		lsls	r1, r1, #11
 114 003a 0A43     		orrs	r2, r1
 115 003c 5A61     		str	r2, [r3, #20]
 402:Core/Src/main.c **** 
 116              		.loc 1 402 3 view .LVU22
 117 003e 5B69     		ldr	r3, [r3, #20]
 118 0040 0B40     		ands	r3, r1
 119 0042 0293     		str	r3, [sp, #8]
 402:Core/Src/main.c **** 
 120              		.loc 1 402 3 view .LVU23
 121 0044 029B     		ldr	r3, [sp, #8]
 122              	.LBE6:
 402:Core/Src/main.c **** 
 123              		.loc 1 402 3 view .LVU24
 405:Core/Src/main.c ****                           |LD4_Pin|LD5_Pin, GPIO_PIN_RESET);
 124              		.loc 1 405 3 view .LVU25
 125 0046 134C     		ldr	r4, .L4+4
 126 0048 134D     		ldr	r5, .L4+8
 127 004a 0022     		movs	r2, #0
 128 004c 2100     		movs	r1, r4
 129 004e 2800     		movs	r0, r5
 130 0050 FFF7FEFF 		bl	HAL_GPIO_WritePin
 131              	.LVL2:
 410:Core/Src/main.c ****                           |LD4_Pin|LD5_Pin;
 132              		.loc 1 410 3 view .LVU26
 410:Core/Src/main.c ****                           |LD4_Pin|LD5_Pin;
 133              		.loc 1 410 23 is_stmt 0 view .LVU27
 134 0054 0394     		str	r4, [sp, #12]
 412:Core/Src/main.c ****   GPIO_InitStruct.Pull = GPIO_NOPULL;
 135              		.loc 1 412 3 is_stmt 1 view .LVU28
 412:Core/Src/main.c ****   GPIO_InitStruct.Pull = GPIO_NOPULL;
 136              		.loc 1 412 24 is_stmt 0 view .LVU29
 137 0056 0127     		movs	r7, #1
 138 0058 0497     		str	r7, [sp, #16]
 413:Core/Src/main.c ****   GPIO_InitStruct.Speed = GPIO_SPEED_FREQ_LOW;
 139              		.loc 1 413 3 is_stmt 1 view .LVU30
 413:Core/Src/main.c ****   GPIO_InitStruct.Speed = GPIO_SPEED_FREQ_LOW;
 140              		.loc 1 413 24 is_stmt 0 view .LVU31
 141 005a 0024     		movs	r4, #0
 142 005c 0594     		str	r4, [sp, #20]
 414:Core/Src/main.c ****   HAL_GPIO_Init(GPIOC, &GPIO_InitStruct);
 143              		.loc 1 414 3 is_stmt 1 view .LVU32
ARM GAS  /var/folders/kr/g9ry2bg56g773797gdtkvvkw0000gn/T//cc96uClB.s 			page 12


 414:Core/Src/main.c ****   HAL_GPIO_Init(GPIOC, &GPIO_InitStruct);
 144              		.loc 1 414 25 is_stmt 0 view .LVU33
 145 005e 0694     		str	r4, [sp, #24]
 415:Core/Src/main.c **** 
 146              		.loc 1 415 3 is_stmt 1 view .LVU34
 147 0060 03A9     		add	r1, sp, #12
 148 0062 2800     		movs	r0, r5
 149 0064 FFF7FEFF 		bl	HAL_GPIO_Init
 150              	.LVL3:
 418:Core/Src/main.c ****   GPIO_InitStruct.Mode = GPIO_MODE_EVT_RISING;
 151              		.loc 1 418 3 view .LVU35
 418:Core/Src/main.c ****   GPIO_InitStruct.Mode = GPIO_MODE_EVT_RISING;
 152              		.loc 1 418 23 is_stmt 0 view .LVU36
 153 0068 0623     		movs	r3, #6
 154 006a 0393     		str	r3, [sp, #12]
 419:Core/Src/main.c ****   GPIO_InitStruct.Pull = GPIO_NOPULL;
 155              		.loc 1 419 3 is_stmt 1 view .LVU37
 419:Core/Src/main.c ****   GPIO_InitStruct.Pull = GPIO_NOPULL;
 156              		.loc 1 419 24 is_stmt 0 view .LVU38
 157 006c 9026     		movs	r6, #144
 158 006e 7603     		lsls	r6, r6, #13
 159 0070 0496     		str	r6, [sp, #16]
 420:Core/Src/main.c ****   HAL_GPIO_Init(GPIOC, &GPIO_InitStruct);
 160              		.loc 1 420 3 is_stmt 1 view .LVU39
 420:Core/Src/main.c ****   HAL_GPIO_Init(GPIOC, &GPIO_InitStruct);
 161              		.loc 1 420 24 is_stmt 0 view .LVU40
 162 0072 0594     		str	r4, [sp, #20]
 421:Core/Src/main.c **** 
 163              		.loc 1 421 3 is_stmt 1 view .LVU41
 164 0074 03A9     		add	r1, sp, #12
 165 0076 2800     		movs	r0, r5
 166 0078 FFF7FEFF 		bl	HAL_GPIO_Init
 167              	.LVL4:
 424:Core/Src/main.c ****   GPIO_InitStruct.Mode = GPIO_MODE_EVT_RISING;
 168              		.loc 1 424 3 view .LVU42
 424:Core/Src/main.c ****   GPIO_InitStruct.Mode = GPIO_MODE_EVT_RISING;
 169              		.loc 1 424 23 is_stmt 0 view .LVU43
 170 007c 0397     		str	r7, [sp, #12]
 425:Core/Src/main.c ****   GPIO_InitStruct.Pull = GPIO_NOPULL;
 171              		.loc 1 425 3 is_stmt 1 view .LVU44
 425:Core/Src/main.c ****   GPIO_InitStruct.Pull = GPIO_NOPULL;
 172              		.loc 1 425 24 is_stmt 0 view .LVU45
 173 007e 0496     		str	r6, [sp, #16]
 426:Core/Src/main.c ****   HAL_GPIO_Init(B1_GPIO_Port, &GPIO_InitStruct);
 174              		.loc 1 426 3 is_stmt 1 view .LVU46
 426:Core/Src/main.c ****   HAL_GPIO_Init(B1_GPIO_Port, &GPIO_InitStruct);
 175              		.loc 1 426 24 is_stmt 0 view .LVU47
 176 0080 0594     		str	r4, [sp, #20]
 427:Core/Src/main.c **** 
 177              		.loc 1 427 3 is_stmt 1 view .LVU48
 178 0082 9020     		movs	r0, #144
 179 0084 03A9     		add	r1, sp, #12
 180 0086 C005     		lsls	r0, r0, #23
 181 0088 FFF7FEFF 		bl	HAL_GPIO_Init
 182              	.LVL5:
 431:Core/Src/main.c **** 
 183              		.loc 1 431 1 is_stmt 0 view .LVU49
ARM GAS  /var/folders/kr/g9ry2bg56g773797gdtkvvkw0000gn/T//cc96uClB.s 			page 13


 184 008c 09B0     		add	sp, sp, #36
 185              		@ sp needed
 186 008e F0BD     		pop	{r4, r5, r6, r7, pc}
 187              	.L5:
 188              		.align	2
 189              	.L4:
 190 0090 00100240 		.word	1073876992
 191 0094 E1030000 		.word	993
 192 0098 00080048 		.word	1207961600
 193              		.cfi_endproc
 194              	.LFE49:
 196              		.section	.text.StartLEDTask,"ax",%progbits
 197              		.align	1
 198              		.global	StartLEDTask
 199              		.syntax unified
 200              		.code	16
 201              		.thumb_func
 203              	StartLEDTask:
 204              	.LFB51:
 458:Core/Src/main.c ****   
 459:Core/Src/main.c ****   /* USER CODE END 5 */
 460:Core/Src/main.c **** }
 461:Core/Src/main.c **** 
 462:Core/Src/main.c **** /* USER CODE BEGIN Header_StartLEDTask */
 463:Core/Src/main.c **** /**
 464:Core/Src/main.c ****   * @brief  Function implementing the LEDTask thread.
 465:Core/Src/main.c ****   * @param  argument: Not used
 466:Core/Src/main.c ****   * @retval None
 467:Core/Src/main.c ****   */
 468:Core/Src/main.c **** /* USER CODE END Header_StartLEDTask */
 469:Core/Src/main.c **** void StartLEDTask(void *argument)
 470:Core/Src/main.c **** {
 205              		.loc 1 470 1 is_stmt 1 view -0
 206              		.cfi_startproc
 207              		@ args = 0, pretend = 0, frame = 8
 208              		@ frame_needed = 0, uses_anonymous_args = 0
 209              	.LVL6:
 210              		.loc 1 470 1 is_stmt 0 view .LVU51
 211 0000 10B5     		push	{r4, lr}
 212              	.LCFI2:
 213              		.cfi_def_cfa_offset 8
 214              		.cfi_offset 4, -8
 215              		.cfi_offset 14, -4
 216 0002 82B0     		sub	sp, sp, #8
 217              	.LCFI3:
 218              		.cfi_def_cfa_offset 16
 219 0004 20E0     		b	.L12
 220              	.LVL7:
 221              	.L8:
 471:Core/Src/main.c ****   extern volatile uint16_t commandLED;
 472:Core/Src/main.c ****   //command 0xA color action dont care
 473:Core/Src/main.c ****   volatile uint32_t color;
 474:Core/Src/main.c ****   int LED_case; // LED to update
 475:Core/Src/main.c **** 
 476:Core/Src/main.c ****   /* Infinite loop */
 477:Core/Src/main.c ****   for(;;)
 478:Core/Src/main.c ****   {
ARM GAS  /var/folders/kr/g9ry2bg56g773797gdtkvvkw0000gn/T//cc96uClB.s 			page 14


 479:Core/Src/main.c ****     switch (commandLED >> 8) {    
 222              		.loc 1 479 5 view .LVU52
 223 0006 A42B     		cmp	r3, #164
 224 0008 02D1     		bne	.L7
 480:Core/Src/main.c ****       //Red LED - PC6
 481:Core/Src/main.c ****       case 0xA1:  
 482:Core/Src/main.c ****         LED_case = 1; // red LED
 483:Core/Src/main.c ****         break;
 484:Core/Src/main.c ****       //Green LED - PC9
 485:Core/Src/main.c ****       case 0xA2:
 486:Core/Src/main.c ****         LED_case = 2; // blue LED
 487:Core/Src/main.c ****         break;
 488:Core/Src/main.c ****       //Blue LED - PC7  
 489:Core/Src/main.c ****       case 0xA3:
 490:Core/Src/main.c ****         LED_case = 3; // green LED
 491:Core/Src/main.c ****         break;
 492:Core/Src/main.c ****       //Orange LED - PC8
 493:Core/Src/main.c ****       case 0xA4:
 494:Core/Src/main.c ****         LED_case = 4; // orange LED
 225              		.loc 1 494 18 view .LVU53
 226 000a 0424     		movs	r4, #4
 227              	.LVL8:
 228              		.loc 1 494 18 view .LVU54
 229 000c 00E0     		b	.L7
 230              	.LVL9:
 231              	.L13:
 490:Core/Src/main.c ****         break;
 232              		.loc 1 490 18 view .LVU55
 233 000e 0324     		movs	r4, #3
 234              	.LVL10:
 235              	.L7:
 495:Core/Src/main.c ****         break;
 496:Core/Src/main.c ****       default:
 497:Core/Src/main.c ****     }
 498:Core/Src/main.c **** 
 499:Core/Src/main.c ****     switch (commandLED >> 4) {
 236              		.loc 1 499 5 is_stmt 1 view .LVU56
 237              		.loc 1 499 24 is_stmt 0 view .LVU57
 238 0010 164B     		ldr	r3, .L15
 239 0012 1B88     		ldrh	r3, [r3]
 240 0014 1B09     		lsrs	r3, r3, #4
 241              		.loc 1 499 5 view .LVU58
 242 0016 022B     		cmp	r3, #2
 243 0018 0DD0     		beq	.L9
 244 001a 032B     		cmp	r3, #3
 245 001c 20D0     		beq	.L10
 246 001e 012B     		cmp	r3, #1
 247 0020 0ED1     		bne	.L11
 500:Core/Src/main.c ****       case 0x1:
 501:Core/Src/main.c ****         if (LED_case == 1) GPIOC->ODR |= (1 << 6);
 248              		.loc 1 501 9 is_stmt 1 view .LVU59
 249              		.loc 1 501 12 is_stmt 0 view .LVU60
 250 0022 012C     		cmp	r4, #1
 251 0024 0CD1     		bne	.L11
 252              		.loc 1 501 28 is_stmt 1 discriminator 1 view .LVU61
 253              		.loc 1 501 33 is_stmt 0 discriminator 1 view .LVU62
 254 0026 124A     		ldr	r2, .L15+4
ARM GAS  /var/folders/kr/g9ry2bg56g773797gdtkvvkw0000gn/T//cc96uClB.s 			page 15


 255 0028 5369     		ldr	r3, [r2, #20]
 256              		.loc 1 501 39 discriminator 1 view .LVU63
 257 002a 4021     		movs	r1, #64
 258 002c 0B43     		orrs	r3, r1
 259 002e 5361     		str	r3, [r2, #20]
 260 0030 06E0     		b	.L11
 261              	.L14:
 482:Core/Src/main.c ****         break;
 262              		.loc 1 482 18 view .LVU64
 263 0032 0124     		movs	r4, #1
 264              	.LVL11:
 482:Core/Src/main.c ****         break;
 265              		.loc 1 482 18 view .LVU65
 266 0034 ECE7     		b	.L7
 267              	.LVL12:
 268              	.L9:
 502:Core/Src/main.c ****         break;
 503:Core/Src/main.c ****       case 0x2:
 504:Core/Src/main.c ****         GPIOC->ODR &= ~color;
 269              		.loc 1 504 9 is_stmt 1 view .LVU66
 270              		.loc 1 504 23 is_stmt 0 view .LVU67
 271 0036 0199     		ldr	r1, [sp, #4]
 272              		.loc 1 504 14 view .LVU68
 273 0038 0D4A     		ldr	r2, .L15+4
 274 003a 5369     		ldr	r3, [r2, #20]
 275              		.loc 1 504 20 view .LVU69
 276 003c 8B43     		bics	r3, r1
 277 003e 5361     		str	r3, [r2, #20]
 505:Core/Src/main.c ****         break;
 278              		.loc 1 505 9 is_stmt 1 view .LVU70
 279              	.L11:
 506:Core/Src/main.c ****       case 0x3:
 507:Core/Src/main.c ****         GPIOC->ODR ^= color;
 508:Core/Src/main.c ****         break;
 509:Core/Src/main.c ****       default:
 510:Core/Src/main.c ****     }
 511:Core/Src/main.c ****     osDelay(1000);
 280              		.loc 1 511 5 view .LVU71
 281 0040 FA20     		movs	r0, #250
 282 0042 8000     		lsls	r0, r0, #2
 283 0044 FFF7FEFF 		bl	osDelay
 284              	.LVL13:
 477:Core/Src/main.c ****   {
 285              		.loc 1 477 3 view .LVU72
 286              	.L12:
 471:Core/Src/main.c ****   //command 0xA color action dont care
 287              		.loc 1 471 3 view .LVU73
 473:Core/Src/main.c ****   int LED_case; // LED to update
 288              		.loc 1 473 3 view .LVU74
 474:Core/Src/main.c **** 
 289              		.loc 1 474 3 view .LVU75
 477:Core/Src/main.c ****   {
 290              		.loc 1 477 3 view .LVU76
 479:Core/Src/main.c ****       //Red LED - PC6
 291              		.loc 1 479 5 view .LVU77
 479:Core/Src/main.c ****       //Red LED - PC6
 292              		.loc 1 479 24 is_stmt 0 view .LVU78
ARM GAS  /var/folders/kr/g9ry2bg56g773797gdtkvvkw0000gn/T//cc96uClB.s 			page 16


 293 0048 084B     		ldr	r3, .L15
 294 004a 1B88     		ldrh	r3, [r3]
 295 004c 1B0A     		lsrs	r3, r3, #8
 479:Core/Src/main.c ****       //Red LED - PC6
 296              		.loc 1 479 5 view .LVU79
 297 004e A32B     		cmp	r3, #163
 298 0050 DDD0     		beq	.L13
 299 0052 D8D8     		bhi	.L8
 300 0054 A12B     		cmp	r3, #161
 301 0056 ECD0     		beq	.L14
 302 0058 A22B     		cmp	r3, #162
 303 005a D9D1     		bne	.L7
 486:Core/Src/main.c ****         break;
 304              		.loc 1 486 18 view .LVU80
 305 005c 0224     		movs	r4, #2
 306              	.LVL14:
 486:Core/Src/main.c ****         break;
 307              		.loc 1 486 18 view .LVU81
 308 005e D7E7     		b	.L7
 309              	.LVL15:
 310              	.L10:
 507:Core/Src/main.c ****         break;
 311              		.loc 1 507 9 is_stmt 1 view .LVU82
 312 0060 0199     		ldr	r1, [sp, #4]
 507:Core/Src/main.c ****         break;
 313              		.loc 1 507 14 is_stmt 0 view .LVU83
 314 0062 034A     		ldr	r2, .L15+4
 315 0064 5369     		ldr	r3, [r2, #20]
 507:Core/Src/main.c ****         break;
 316              		.loc 1 507 20 view .LVU84
 317 0066 4B40     		eors	r3, r1
 318 0068 5361     		str	r3, [r2, #20]
 508:Core/Src/main.c ****       default:
 319              		.loc 1 508 9 is_stmt 1 view .LVU85
 320 006a E9E7     		b	.L11
 321              	.L16:
 322              		.align	2
 323              	.L15:
 324 006c 00000000 		.word	commandLED
 325 0070 00080048 		.word	1207961600
 326              		.cfi_endproc
 327              	.LFE51:
 329              		.section	.text.HAL_TIM_PeriodElapsedCallback,"ax",%progbits
 330              		.align	1
 331              		.global	HAL_TIM_PeriodElapsedCallback
 332              		.syntax unified
 333              		.code	16
 334              		.thumb_func
 336              	HAL_TIM_PeriodElapsedCallback:
 337              	.LVL16:
 338              	.LFB52:
 512:Core/Src/main.c ****   }
 513:Core/Src/main.c **** }
 514:Core/Src/main.c **** 
 515:Core/Src/main.c **** /**
 516:Core/Src/main.c ****   * @brief  Period elapsed callback in non blocking mode
 517:Core/Src/main.c ****   * @note   This function is called  when TIM6 interrupt took place, inside
ARM GAS  /var/folders/kr/g9ry2bg56g773797gdtkvvkw0000gn/T//cc96uClB.s 			page 17


 518:Core/Src/main.c ****   * HAL_TIM_IRQHandler(). It makes a direct call to HAL_IncTick() to increment
 519:Core/Src/main.c ****   * a global variable "uwTick" used as application time base.
 520:Core/Src/main.c ****   * @param  htim : TIM handle
 521:Core/Src/main.c ****   * @retval None
 522:Core/Src/main.c ****   */
 523:Core/Src/main.c **** void HAL_TIM_PeriodElapsedCallback(TIM_HandleTypeDef *htim)
 524:Core/Src/main.c **** {
 339              		.loc 1 524 1 view -0
 340              		.cfi_startproc
 341              		@ args = 0, pretend = 0, frame = 0
 342              		@ frame_needed = 0, uses_anonymous_args = 0
 343              		.loc 1 524 1 is_stmt 0 view .LVU87
 344 0000 10B5     		push	{r4, lr}
 345              	.LCFI4:
 346              		.cfi_def_cfa_offset 8
 347              		.cfi_offset 4, -8
 348              		.cfi_offset 14, -4
 525:Core/Src/main.c ****   /* USER CODE BEGIN Callback 0 */
 526:Core/Src/main.c **** 
 527:Core/Src/main.c ****   /* USER CODE END Callback 0 */
 528:Core/Src/main.c ****   if (htim->Instance == TIM6) {
 349              		.loc 1 528 3 is_stmt 1 view .LVU88
 350              		.loc 1 528 11 is_stmt 0 view .LVU89
 351 0002 0268     		ldr	r2, [r0]
 352              		.loc 1 528 6 view .LVU90
 353 0004 034B     		ldr	r3, .L20
 354 0006 9A42     		cmp	r2, r3
 355 0008 00D0     		beq	.L19
 356              	.LVL17:
 357              	.L17:
 529:Core/Src/main.c ****     HAL_IncTick();
 530:Core/Src/main.c ****   }
 531:Core/Src/main.c ****   /* USER CODE BEGIN Callback 1 */
 532:Core/Src/main.c **** 
 533:Core/Src/main.c ****   /* USER CODE END Callback 1 */
 534:Core/Src/main.c **** }
 358              		.loc 1 534 1 view .LVU91
 359              		@ sp needed
 360 000a 10BD     		pop	{r4, pc}
 361              	.LVL18:
 362              	.L19:
 529:Core/Src/main.c ****     HAL_IncTick();
 363              		.loc 1 529 5 is_stmt 1 view .LVU92
 364 000c FFF7FEFF 		bl	HAL_IncTick
 365              	.LVL19:
 366              		.loc 1 534 1 is_stmt 0 view .LVU93
 367 0010 FBE7     		b	.L17
 368              	.L21:
 369 0012 C046     		.align	2
 370              	.L20:
 371 0014 00100040 		.word	1073745920
 372              		.cfi_endproc
 373              	.LFE52:
 375              		.section	.text.Error_Handler,"ax",%progbits
 376              		.align	1
 377              		.global	Error_Handler
 378              		.syntax unified
ARM GAS  /var/folders/kr/g9ry2bg56g773797gdtkvvkw0000gn/T//cc96uClB.s 			page 18


 379              		.code	16
 380              		.thumb_func
 382              	Error_Handler:
 383              	.LFB53:
 535:Core/Src/main.c **** 
 536:Core/Src/main.c **** /**
 537:Core/Src/main.c ****   * @brief  This function is executed in case of error occurrence.
 538:Core/Src/main.c ****   * @retval None
 539:Core/Src/main.c ****   */
 540:Core/Src/main.c **** void Error_Handler(void)
 541:Core/Src/main.c **** {
 384              		.loc 1 541 1 is_stmt 1 view -0
 385              		.cfi_startproc
 386              		@ Volatile: function does not return.
 387              		@ args = 0, pretend = 0, frame = 0
 388              		@ frame_needed = 0, uses_anonymous_args = 0
 389              		@ link register save eliminated.
 542:Core/Src/main.c ****   /* USER CODE BEGIN Error_Handler_Debug */
 543:Core/Src/main.c ****   /* User can add his own implementation to report the HAL error return state */
 544:Core/Src/main.c ****   __disable_irq();
 390              		.loc 1 544 3 view .LVU95
 391              	.LBB7:
 392              	.LBI7:
 393              		.file 2 "Drivers/CMSIS/Include/cmsis_gcc.h"
   1:Drivers/CMSIS/Include/cmsis_gcc.h **** /**************************************************************************//**
   2:Drivers/CMSIS/Include/cmsis_gcc.h ****  * @file     cmsis_gcc.h
   3:Drivers/CMSIS/Include/cmsis_gcc.h ****  * @brief    CMSIS compiler GCC header file
   4:Drivers/CMSIS/Include/cmsis_gcc.h ****  * @version  V5.0.4
   5:Drivers/CMSIS/Include/cmsis_gcc.h ****  * @date     09. April 2018
   6:Drivers/CMSIS/Include/cmsis_gcc.h ****  ******************************************************************************/
   7:Drivers/CMSIS/Include/cmsis_gcc.h **** /*
   8:Drivers/CMSIS/Include/cmsis_gcc.h ****  * Copyright (c) 2009-2018 Arm Limited. All rights reserved.
   9:Drivers/CMSIS/Include/cmsis_gcc.h ****  *
  10:Drivers/CMSIS/Include/cmsis_gcc.h ****  * SPDX-License-Identifier: Apache-2.0
  11:Drivers/CMSIS/Include/cmsis_gcc.h ****  *
  12:Drivers/CMSIS/Include/cmsis_gcc.h ****  * Licensed under the Apache License, Version 2.0 (the License); you may
  13:Drivers/CMSIS/Include/cmsis_gcc.h ****  * not use this file except in compliance with the License.
  14:Drivers/CMSIS/Include/cmsis_gcc.h ****  * You may obtain a copy of the License at
  15:Drivers/CMSIS/Include/cmsis_gcc.h ****  *
  16:Drivers/CMSIS/Include/cmsis_gcc.h ****  * www.apache.org/licenses/LICENSE-2.0
  17:Drivers/CMSIS/Include/cmsis_gcc.h ****  *
  18:Drivers/CMSIS/Include/cmsis_gcc.h ****  * Unless required by applicable law or agreed to in writing, software
  19:Drivers/CMSIS/Include/cmsis_gcc.h ****  * distributed under the License is distributed on an AS IS BASIS, WITHOUT
  20:Drivers/CMSIS/Include/cmsis_gcc.h ****  * WARRANTIES OR CONDITIONS OF ANY KIND, either express or implied.
  21:Drivers/CMSIS/Include/cmsis_gcc.h ****  * See the License for the specific language governing permissions and
  22:Drivers/CMSIS/Include/cmsis_gcc.h ****  * limitations under the License.
  23:Drivers/CMSIS/Include/cmsis_gcc.h ****  */
  24:Drivers/CMSIS/Include/cmsis_gcc.h **** 
  25:Drivers/CMSIS/Include/cmsis_gcc.h **** #ifndef __CMSIS_GCC_H
  26:Drivers/CMSIS/Include/cmsis_gcc.h **** #define __CMSIS_GCC_H
  27:Drivers/CMSIS/Include/cmsis_gcc.h **** 
  28:Drivers/CMSIS/Include/cmsis_gcc.h **** /* ignore some GCC warnings */
  29:Drivers/CMSIS/Include/cmsis_gcc.h **** #pragma GCC diagnostic push
  30:Drivers/CMSIS/Include/cmsis_gcc.h **** #pragma GCC diagnostic ignored "-Wsign-conversion"
  31:Drivers/CMSIS/Include/cmsis_gcc.h **** #pragma GCC diagnostic ignored "-Wconversion"
  32:Drivers/CMSIS/Include/cmsis_gcc.h **** #pragma GCC diagnostic ignored "-Wunused-parameter"
  33:Drivers/CMSIS/Include/cmsis_gcc.h **** 
ARM GAS  /var/folders/kr/g9ry2bg56g773797gdtkvvkw0000gn/T//cc96uClB.s 			page 19


  34:Drivers/CMSIS/Include/cmsis_gcc.h **** /* Fallback for __has_builtin */
  35:Drivers/CMSIS/Include/cmsis_gcc.h **** #ifndef __has_builtin
  36:Drivers/CMSIS/Include/cmsis_gcc.h ****   #define __has_builtin(x) (0)
  37:Drivers/CMSIS/Include/cmsis_gcc.h **** #endif
  38:Drivers/CMSIS/Include/cmsis_gcc.h **** 
  39:Drivers/CMSIS/Include/cmsis_gcc.h **** /* CMSIS compiler specific defines */
  40:Drivers/CMSIS/Include/cmsis_gcc.h **** #ifndef   __ASM
  41:Drivers/CMSIS/Include/cmsis_gcc.h ****   #define __ASM                                  __asm
  42:Drivers/CMSIS/Include/cmsis_gcc.h **** #endif
  43:Drivers/CMSIS/Include/cmsis_gcc.h **** #ifndef   __INLINE
  44:Drivers/CMSIS/Include/cmsis_gcc.h ****   #define __INLINE                               inline
  45:Drivers/CMSIS/Include/cmsis_gcc.h **** #endif
  46:Drivers/CMSIS/Include/cmsis_gcc.h **** #ifndef   __STATIC_INLINE
  47:Drivers/CMSIS/Include/cmsis_gcc.h ****   #define __STATIC_INLINE                        static inline
  48:Drivers/CMSIS/Include/cmsis_gcc.h **** #endif
  49:Drivers/CMSIS/Include/cmsis_gcc.h **** #ifndef   __STATIC_FORCEINLINE                 
  50:Drivers/CMSIS/Include/cmsis_gcc.h ****   #define __STATIC_FORCEINLINE                   __attribute__((always_inline)) static inline
  51:Drivers/CMSIS/Include/cmsis_gcc.h **** #endif                                           
  52:Drivers/CMSIS/Include/cmsis_gcc.h **** #ifndef   __NO_RETURN
  53:Drivers/CMSIS/Include/cmsis_gcc.h ****   #define __NO_RETURN                            __attribute__((__noreturn__))
  54:Drivers/CMSIS/Include/cmsis_gcc.h **** #endif
  55:Drivers/CMSIS/Include/cmsis_gcc.h **** #ifndef   __USED
  56:Drivers/CMSIS/Include/cmsis_gcc.h ****   #define __USED                                 __attribute__((used))
  57:Drivers/CMSIS/Include/cmsis_gcc.h **** #endif
  58:Drivers/CMSIS/Include/cmsis_gcc.h **** #ifndef   __WEAK
  59:Drivers/CMSIS/Include/cmsis_gcc.h ****   #define __WEAK                                 __attribute__((weak))
  60:Drivers/CMSIS/Include/cmsis_gcc.h **** #endif
  61:Drivers/CMSIS/Include/cmsis_gcc.h **** #ifndef   __PACKED
  62:Drivers/CMSIS/Include/cmsis_gcc.h ****   #define __PACKED                               __attribute__((packed, aligned(1)))
  63:Drivers/CMSIS/Include/cmsis_gcc.h **** #endif
  64:Drivers/CMSIS/Include/cmsis_gcc.h **** #ifndef   __PACKED_STRUCT
  65:Drivers/CMSIS/Include/cmsis_gcc.h ****   #define __PACKED_STRUCT                        struct __attribute__((packed, aligned(1)))
  66:Drivers/CMSIS/Include/cmsis_gcc.h **** #endif
  67:Drivers/CMSIS/Include/cmsis_gcc.h **** #ifndef   __PACKED_UNION
  68:Drivers/CMSIS/Include/cmsis_gcc.h ****   #define __PACKED_UNION                         union __attribute__((packed, aligned(1)))
  69:Drivers/CMSIS/Include/cmsis_gcc.h **** #endif
  70:Drivers/CMSIS/Include/cmsis_gcc.h **** #ifndef   __UNALIGNED_UINT32        /* deprecated */
  71:Drivers/CMSIS/Include/cmsis_gcc.h ****   #pragma GCC diagnostic push
  72:Drivers/CMSIS/Include/cmsis_gcc.h ****   #pragma GCC diagnostic ignored "-Wpacked"
  73:Drivers/CMSIS/Include/cmsis_gcc.h ****   #pragma GCC diagnostic ignored "-Wattributes"
  74:Drivers/CMSIS/Include/cmsis_gcc.h ****   struct __attribute__((packed)) T_UINT32 { uint32_t v; };
  75:Drivers/CMSIS/Include/cmsis_gcc.h ****   #pragma GCC diagnostic pop
  76:Drivers/CMSIS/Include/cmsis_gcc.h ****   #define __UNALIGNED_UINT32(x)                  (((struct T_UINT32 *)(x))->v)
  77:Drivers/CMSIS/Include/cmsis_gcc.h **** #endif
  78:Drivers/CMSIS/Include/cmsis_gcc.h **** #ifndef   __UNALIGNED_UINT16_WRITE
  79:Drivers/CMSIS/Include/cmsis_gcc.h ****   #pragma GCC diagnostic push
  80:Drivers/CMSIS/Include/cmsis_gcc.h ****   #pragma GCC diagnostic ignored "-Wpacked"
  81:Drivers/CMSIS/Include/cmsis_gcc.h ****   #pragma GCC diagnostic ignored "-Wattributes"
  82:Drivers/CMSIS/Include/cmsis_gcc.h ****   __PACKED_STRUCT T_UINT16_WRITE { uint16_t v; };
  83:Drivers/CMSIS/Include/cmsis_gcc.h ****   #pragma GCC diagnostic pop
  84:Drivers/CMSIS/Include/cmsis_gcc.h ****   #define __UNALIGNED_UINT16_WRITE(addr, val)    (void)((((struct T_UINT16_WRITE *)(void *)(addr))-
  85:Drivers/CMSIS/Include/cmsis_gcc.h **** #endif
  86:Drivers/CMSIS/Include/cmsis_gcc.h **** #ifndef   __UNALIGNED_UINT16_READ
  87:Drivers/CMSIS/Include/cmsis_gcc.h ****   #pragma GCC diagnostic push
  88:Drivers/CMSIS/Include/cmsis_gcc.h ****   #pragma GCC diagnostic ignored "-Wpacked"
  89:Drivers/CMSIS/Include/cmsis_gcc.h ****   #pragma GCC diagnostic ignored "-Wattributes"
  90:Drivers/CMSIS/Include/cmsis_gcc.h ****   __PACKED_STRUCT T_UINT16_READ { uint16_t v; };
ARM GAS  /var/folders/kr/g9ry2bg56g773797gdtkvvkw0000gn/T//cc96uClB.s 			page 20


  91:Drivers/CMSIS/Include/cmsis_gcc.h ****   #pragma GCC diagnostic pop
  92:Drivers/CMSIS/Include/cmsis_gcc.h ****   #define __UNALIGNED_UINT16_READ(addr)          (((const struct T_UINT16_READ *)(const void *)(add
  93:Drivers/CMSIS/Include/cmsis_gcc.h **** #endif
  94:Drivers/CMSIS/Include/cmsis_gcc.h **** #ifndef   __UNALIGNED_UINT32_WRITE
  95:Drivers/CMSIS/Include/cmsis_gcc.h ****   #pragma GCC diagnostic push
  96:Drivers/CMSIS/Include/cmsis_gcc.h ****   #pragma GCC diagnostic ignored "-Wpacked"
  97:Drivers/CMSIS/Include/cmsis_gcc.h ****   #pragma GCC diagnostic ignored "-Wattributes"
  98:Drivers/CMSIS/Include/cmsis_gcc.h ****   __PACKED_STRUCT T_UINT32_WRITE { uint32_t v; };
  99:Drivers/CMSIS/Include/cmsis_gcc.h ****   #pragma GCC diagnostic pop
 100:Drivers/CMSIS/Include/cmsis_gcc.h ****   #define __UNALIGNED_UINT32_WRITE(addr, val)    (void)((((struct T_UINT32_WRITE *)(void *)(addr))-
 101:Drivers/CMSIS/Include/cmsis_gcc.h **** #endif
 102:Drivers/CMSIS/Include/cmsis_gcc.h **** #ifndef   __UNALIGNED_UINT32_READ
 103:Drivers/CMSIS/Include/cmsis_gcc.h ****   #pragma GCC diagnostic push
 104:Drivers/CMSIS/Include/cmsis_gcc.h ****   #pragma GCC diagnostic ignored "-Wpacked"
 105:Drivers/CMSIS/Include/cmsis_gcc.h ****   #pragma GCC diagnostic ignored "-Wattributes"
 106:Drivers/CMSIS/Include/cmsis_gcc.h ****   __PACKED_STRUCT T_UINT32_READ { uint32_t v; };
 107:Drivers/CMSIS/Include/cmsis_gcc.h ****   #pragma GCC diagnostic pop
 108:Drivers/CMSIS/Include/cmsis_gcc.h ****   #define __UNALIGNED_UINT32_READ(addr)          (((const struct T_UINT32_READ *)(const void *)(add
 109:Drivers/CMSIS/Include/cmsis_gcc.h **** #endif
 110:Drivers/CMSIS/Include/cmsis_gcc.h **** #ifndef   __ALIGNED
 111:Drivers/CMSIS/Include/cmsis_gcc.h ****   #define __ALIGNED(x)                           __attribute__((aligned(x)))
 112:Drivers/CMSIS/Include/cmsis_gcc.h **** #endif
 113:Drivers/CMSIS/Include/cmsis_gcc.h **** #ifndef   __RESTRICT
 114:Drivers/CMSIS/Include/cmsis_gcc.h ****   #define __RESTRICT                             __restrict
 115:Drivers/CMSIS/Include/cmsis_gcc.h **** #endif
 116:Drivers/CMSIS/Include/cmsis_gcc.h **** 
 117:Drivers/CMSIS/Include/cmsis_gcc.h **** 
 118:Drivers/CMSIS/Include/cmsis_gcc.h **** /* ###########################  Core Function Access  ########################### */
 119:Drivers/CMSIS/Include/cmsis_gcc.h **** /** \ingroup  CMSIS_Core_FunctionInterface
 120:Drivers/CMSIS/Include/cmsis_gcc.h ****     \defgroup CMSIS_Core_RegAccFunctions CMSIS Core Register Access Functions
 121:Drivers/CMSIS/Include/cmsis_gcc.h ****   @{
 122:Drivers/CMSIS/Include/cmsis_gcc.h ****  */
 123:Drivers/CMSIS/Include/cmsis_gcc.h **** 
 124:Drivers/CMSIS/Include/cmsis_gcc.h **** /**
 125:Drivers/CMSIS/Include/cmsis_gcc.h ****   \brief   Enable IRQ Interrupts
 126:Drivers/CMSIS/Include/cmsis_gcc.h ****   \details Enables IRQ interrupts by clearing the I-bit in the CPSR.
 127:Drivers/CMSIS/Include/cmsis_gcc.h ****            Can only be executed in Privileged modes.
 128:Drivers/CMSIS/Include/cmsis_gcc.h ****  */
 129:Drivers/CMSIS/Include/cmsis_gcc.h **** __STATIC_FORCEINLINE void __enable_irq(void)
 130:Drivers/CMSIS/Include/cmsis_gcc.h **** {
 131:Drivers/CMSIS/Include/cmsis_gcc.h ****   __ASM volatile ("cpsie i" : : : "memory");
 132:Drivers/CMSIS/Include/cmsis_gcc.h **** }
 133:Drivers/CMSIS/Include/cmsis_gcc.h **** 
 134:Drivers/CMSIS/Include/cmsis_gcc.h **** 
 135:Drivers/CMSIS/Include/cmsis_gcc.h **** /**
 136:Drivers/CMSIS/Include/cmsis_gcc.h ****   \brief   Disable IRQ Interrupts
 137:Drivers/CMSIS/Include/cmsis_gcc.h ****   \details Disables IRQ interrupts by setting the I-bit in the CPSR.
 138:Drivers/CMSIS/Include/cmsis_gcc.h ****            Can only be executed in Privileged modes.
 139:Drivers/CMSIS/Include/cmsis_gcc.h ****  */
 140:Drivers/CMSIS/Include/cmsis_gcc.h **** __STATIC_FORCEINLINE void __disable_irq(void)
 394              		.loc 2 140 27 view .LVU96
 395              	.LBB8:
 141:Drivers/CMSIS/Include/cmsis_gcc.h **** {
 142:Drivers/CMSIS/Include/cmsis_gcc.h ****   __ASM volatile ("cpsid i" : : : "memory");
 396              		.loc 2 142 3 view .LVU97
 397              		.syntax divided
 398              	@ 142 "Drivers/CMSIS/Include/cmsis_gcc.h" 1
ARM GAS  /var/folders/kr/g9ry2bg56g773797gdtkvvkw0000gn/T//cc96uClB.s 			page 21


 399 0000 72B6     		cpsid i
 400              	@ 0 "" 2
 401              		.thumb
 402              		.syntax unified
 403              	.L23:
 404              	.LBE8:
 405              	.LBE7:
 545:Core/Src/main.c ****   while (1)
 406              		.loc 1 545 3 view .LVU98
 546:Core/Src/main.c ****   {
 547:Core/Src/main.c ****   }
 407              		.loc 1 547 3 view .LVU99
 545:Core/Src/main.c ****   while (1)
 408              		.loc 1 545 9 view .LVU100
 409 0002 FEE7     		b	.L23
 410              		.cfi_endproc
 411              	.LFE53:
 413              		.section	.text.MX_I2C2_Init,"ax",%progbits
 414              		.align	1
 415              		.syntax unified
 416              		.code	16
 417              		.thumb_func
 419              	MX_I2C2_Init:
 420              	.LFB45:
 231:Core/Src/main.c **** 
 421              		.loc 1 231 1 view -0
 422              		.cfi_startproc
 423              		@ args = 0, pretend = 0, frame = 0
 424              		@ frame_needed = 0, uses_anonymous_args = 0
 425 0000 10B5     		push	{r4, lr}
 426              	.LCFI5:
 427              		.cfi_def_cfa_offset 8
 428              		.cfi_offset 4, -8
 429              		.cfi_offset 14, -4
 240:Core/Src/main.c ****   hi2c2.Init.Timing = 0x20303E5D;
 430              		.loc 1 240 3 view .LVU102
 240:Core/Src/main.c ****   hi2c2.Init.Timing = 0x20303E5D;
 431              		.loc 1 240 18 is_stmt 0 view .LVU103
 432 0002 1248     		ldr	r0, .L31
 433 0004 124B     		ldr	r3, .L31+4
 434 0006 0360     		str	r3, [r0]
 241:Core/Src/main.c ****   hi2c2.Init.OwnAddress1 = 0;
 435              		.loc 1 241 3 is_stmt 1 view .LVU104
 241:Core/Src/main.c ****   hi2c2.Init.OwnAddress1 = 0;
 436              		.loc 1 241 21 is_stmt 0 view .LVU105
 437 0008 124B     		ldr	r3, .L31+8
 438 000a 4360     		str	r3, [r0, #4]
 242:Core/Src/main.c ****   hi2c2.Init.AddressingMode = I2C_ADDRESSINGMODE_7BIT;
 439              		.loc 1 242 3 is_stmt 1 view .LVU106
 242:Core/Src/main.c ****   hi2c2.Init.AddressingMode = I2C_ADDRESSINGMODE_7BIT;
 440              		.loc 1 242 26 is_stmt 0 view .LVU107
 441 000c 0023     		movs	r3, #0
 442 000e 8360     		str	r3, [r0, #8]
 243:Core/Src/main.c ****   hi2c2.Init.DualAddressMode = I2C_DUALADDRESS_DISABLE;
 443              		.loc 1 243 3 is_stmt 1 view .LVU108
 243:Core/Src/main.c ****   hi2c2.Init.DualAddressMode = I2C_DUALADDRESS_DISABLE;
 444              		.loc 1 243 29 is_stmt 0 view .LVU109
ARM GAS  /var/folders/kr/g9ry2bg56g773797gdtkvvkw0000gn/T//cc96uClB.s 			page 22


 445 0010 0122     		movs	r2, #1
 446 0012 C260     		str	r2, [r0, #12]
 244:Core/Src/main.c ****   hi2c2.Init.OwnAddress2 = 0;
 447              		.loc 1 244 3 is_stmt 1 view .LVU110
 244:Core/Src/main.c ****   hi2c2.Init.OwnAddress2 = 0;
 448              		.loc 1 244 30 is_stmt 0 view .LVU111
 449 0014 0361     		str	r3, [r0, #16]
 245:Core/Src/main.c ****   hi2c2.Init.OwnAddress2Masks = I2C_OA2_NOMASK;
 450              		.loc 1 245 3 is_stmt 1 view .LVU112
 245:Core/Src/main.c ****   hi2c2.Init.OwnAddress2Masks = I2C_OA2_NOMASK;
 451              		.loc 1 245 26 is_stmt 0 view .LVU113
 452 0016 4361     		str	r3, [r0, #20]
 246:Core/Src/main.c ****   hi2c2.Init.GeneralCallMode = I2C_GENERALCALL_DISABLE;
 453              		.loc 1 246 3 is_stmt 1 view .LVU114
 246:Core/Src/main.c ****   hi2c2.Init.GeneralCallMode = I2C_GENERALCALL_DISABLE;
 454              		.loc 1 246 31 is_stmt 0 view .LVU115
 455 0018 8361     		str	r3, [r0, #24]
 247:Core/Src/main.c ****   hi2c2.Init.NoStretchMode = I2C_NOSTRETCH_DISABLE;
 456              		.loc 1 247 3 is_stmt 1 view .LVU116
 247:Core/Src/main.c ****   hi2c2.Init.NoStretchMode = I2C_NOSTRETCH_DISABLE;
 457              		.loc 1 247 30 is_stmt 0 view .LVU117
 458 001a C361     		str	r3, [r0, #28]
 248:Core/Src/main.c ****   if (HAL_I2C_Init(&hi2c2) != HAL_OK)
 459              		.loc 1 248 3 is_stmt 1 view .LVU118
 248:Core/Src/main.c ****   if (HAL_I2C_Init(&hi2c2) != HAL_OK)
 460              		.loc 1 248 28 is_stmt 0 view .LVU119
 461 001c 0362     		str	r3, [r0, #32]
 249:Core/Src/main.c ****   {
 462              		.loc 1 249 3 is_stmt 1 view .LVU120
 249:Core/Src/main.c ****   {
 463              		.loc 1 249 7 is_stmt 0 view .LVU121
 464 001e FFF7FEFF 		bl	HAL_I2C_Init
 465              	.LVL20:
 249:Core/Src/main.c ****   {
 466              		.loc 1 249 6 discriminator 1 view .LVU122
 467 0022 0028     		cmp	r0, #0
 468 0024 0CD1     		bne	.L28
 256:Core/Src/main.c ****   {
 469              		.loc 1 256 3 is_stmt 1 view .LVU123
 256:Core/Src/main.c ****   {
 470              		.loc 1 256 7 is_stmt 0 view .LVU124
 471 0026 0948     		ldr	r0, .L31
 472 0028 0021     		movs	r1, #0
 473 002a FFF7FEFF 		bl	HAL_I2CEx_ConfigAnalogFilter
 474              	.LVL21:
 256:Core/Src/main.c ****   {
 475              		.loc 1 256 6 discriminator 1 view .LVU125
 476 002e 0028     		cmp	r0, #0
 477 0030 08D1     		bne	.L29
 263:Core/Src/main.c ****   {
 478              		.loc 1 263 3 is_stmt 1 view .LVU126
 263:Core/Src/main.c ****   {
 479              		.loc 1 263 7 is_stmt 0 view .LVU127
 480 0032 0648     		ldr	r0, .L31
 481 0034 0021     		movs	r1, #0
 482 0036 FFF7FEFF 		bl	HAL_I2CEx_ConfigDigitalFilter
 483              	.LVL22:
ARM GAS  /var/folders/kr/g9ry2bg56g773797gdtkvvkw0000gn/T//cc96uClB.s 			page 23


 263:Core/Src/main.c ****   {
 484              		.loc 1 263 6 discriminator 1 view .LVU128
 485 003a 0028     		cmp	r0, #0
 486 003c 04D1     		bne	.L30
 271:Core/Src/main.c **** 
 487              		.loc 1 271 1 view .LVU129
 488              		@ sp needed
 489 003e 10BD     		pop	{r4, pc}
 490              	.L28:
 251:Core/Src/main.c ****   }
 491              		.loc 1 251 5 is_stmt 1 view .LVU130
 492 0040 FFF7FEFF 		bl	Error_Handler
 493              	.LVL23:
 494              	.L29:
 258:Core/Src/main.c ****   }
 495              		.loc 1 258 5 view .LVU131
 496 0044 FFF7FEFF 		bl	Error_Handler
 497              	.LVL24:
 498              	.L30:
 265:Core/Src/main.c ****   }
 499              		.loc 1 265 5 view .LVU132
 500 0048 FFF7FEFF 		bl	Error_Handler
 501              	.LVL25:
 502              	.L32:
 503              		.align	2
 504              	.L31:
 505 004c 00000000 		.word	hi2c2
 506 0050 00580040 		.word	1073764352
 507 0054 5D3E3020 		.word	540032605
 508              		.cfi_endproc
 509              	.LFE45:
 511              		.section	.text.MX_SPI2_Init,"ax",%progbits
 512              		.align	1
 513              		.syntax unified
 514              		.code	16
 515              		.thumb_func
 517              	MX_SPI2_Init:
 518              	.LFB46:
 279:Core/Src/main.c **** 
 519              		.loc 1 279 1 view -0
 520              		.cfi_startproc
 521              		@ args = 0, pretend = 0, frame = 0
 522              		@ frame_needed = 0, uses_anonymous_args = 0
 523 0000 10B5     		push	{r4, lr}
 524              	.LCFI6:
 525              		.cfi_def_cfa_offset 8
 526              		.cfi_offset 4, -8
 527              		.cfi_offset 14, -4
 289:Core/Src/main.c ****   hspi2.Init.Mode = SPI_MODE_MASTER;
 528              		.loc 1 289 3 view .LVU134
 289:Core/Src/main.c ****   hspi2.Init.Mode = SPI_MODE_MASTER;
 529              		.loc 1 289 18 is_stmt 0 view .LVU135
 530 0002 1048     		ldr	r0, .L36
 531 0004 104B     		ldr	r3, .L36+4
 532 0006 0360     		str	r3, [r0]
 290:Core/Src/main.c ****   hspi2.Init.Direction = SPI_DIRECTION_2LINES;
 533              		.loc 1 290 3 is_stmt 1 view .LVU136
ARM GAS  /var/folders/kr/g9ry2bg56g773797gdtkvvkw0000gn/T//cc96uClB.s 			page 24


 290:Core/Src/main.c ****   hspi2.Init.Direction = SPI_DIRECTION_2LINES;
 534              		.loc 1 290 19 is_stmt 0 view .LVU137
 535 0008 8223     		movs	r3, #130
 536 000a 5B00     		lsls	r3, r3, #1
 537 000c 4360     		str	r3, [r0, #4]
 291:Core/Src/main.c ****   hspi2.Init.DataSize = SPI_DATASIZE_4BIT;
 538              		.loc 1 291 3 is_stmt 1 view .LVU138
 291:Core/Src/main.c ****   hspi2.Init.DataSize = SPI_DATASIZE_4BIT;
 539              		.loc 1 291 24 is_stmt 0 view .LVU139
 540 000e 0023     		movs	r3, #0
 541 0010 8360     		str	r3, [r0, #8]
 292:Core/Src/main.c ****   hspi2.Init.CLKPolarity = SPI_POLARITY_LOW;
 542              		.loc 1 292 3 is_stmt 1 view .LVU140
 292:Core/Src/main.c ****   hspi2.Init.CLKPolarity = SPI_POLARITY_LOW;
 543              		.loc 1 292 23 is_stmt 0 view .LVU141
 544 0012 C022     		movs	r2, #192
 545 0014 9200     		lsls	r2, r2, #2
 546 0016 C260     		str	r2, [r0, #12]
 293:Core/Src/main.c ****   hspi2.Init.CLKPhase = SPI_PHASE_1EDGE;
 547              		.loc 1 293 3 is_stmt 1 view .LVU142
 293:Core/Src/main.c ****   hspi2.Init.CLKPhase = SPI_PHASE_1EDGE;
 548              		.loc 1 293 26 is_stmt 0 view .LVU143
 549 0018 0361     		str	r3, [r0, #16]
 294:Core/Src/main.c ****   hspi2.Init.NSS = SPI_NSS_SOFT;
 550              		.loc 1 294 3 is_stmt 1 view .LVU144
 294:Core/Src/main.c ****   hspi2.Init.NSS = SPI_NSS_SOFT;
 551              		.loc 1 294 23 is_stmt 0 view .LVU145
 552 001a 4361     		str	r3, [r0, #20]
 295:Core/Src/main.c ****   hspi2.Init.BaudRatePrescaler = SPI_BAUDRATEPRESCALER_4;
 553              		.loc 1 295 3 is_stmt 1 view .LVU146
 295:Core/Src/main.c ****   hspi2.Init.BaudRatePrescaler = SPI_BAUDRATEPRESCALER_4;
 554              		.loc 1 295 18 is_stmt 0 view .LVU147
 555 001c 013A     		subs	r2, r2, #1
 556 001e FF3A     		subs	r2, r2, #255
 557 0020 8261     		str	r2, [r0, #24]
 296:Core/Src/main.c ****   hspi2.Init.FirstBit = SPI_FIRSTBIT_MSB;
 558              		.loc 1 296 3 is_stmt 1 view .LVU148
 296:Core/Src/main.c ****   hspi2.Init.FirstBit = SPI_FIRSTBIT_MSB;
 559              		.loc 1 296 32 is_stmt 0 view .LVU149
 560 0022 F93A     		subs	r2, r2, #249
 561 0024 FF3A     		subs	r2, r2, #255
 562 0026 C261     		str	r2, [r0, #28]
 297:Core/Src/main.c ****   hspi2.Init.TIMode = SPI_TIMODE_DISABLE;
 563              		.loc 1 297 3 is_stmt 1 view .LVU150
 297:Core/Src/main.c ****   hspi2.Init.TIMode = SPI_TIMODE_DISABLE;
 564              		.loc 1 297 23 is_stmt 0 view .LVU151
 565 0028 0362     		str	r3, [r0, #32]
 298:Core/Src/main.c ****   hspi2.Init.CRCCalculation = SPI_CRCCALCULATION_DISABLE;
 566              		.loc 1 298 3 is_stmt 1 view .LVU152
 298:Core/Src/main.c ****   hspi2.Init.CRCCalculation = SPI_CRCCALCULATION_DISABLE;
 567              		.loc 1 298 21 is_stmt 0 view .LVU153
 568 002a 4362     		str	r3, [r0, #36]
 299:Core/Src/main.c ****   hspi2.Init.CRCPolynomial = 7;
 569              		.loc 1 299 3 is_stmt 1 view .LVU154
 299:Core/Src/main.c ****   hspi2.Init.CRCPolynomial = 7;
 570              		.loc 1 299 29 is_stmt 0 view .LVU155
 571 002c 8362     		str	r3, [r0, #40]
ARM GAS  /var/folders/kr/g9ry2bg56g773797gdtkvvkw0000gn/T//cc96uClB.s 			page 25


 300:Core/Src/main.c ****   hspi2.Init.CRCLength = SPI_CRC_LENGTH_DATASIZE;
 572              		.loc 1 300 3 is_stmt 1 view .LVU156
 300:Core/Src/main.c ****   hspi2.Init.CRCLength = SPI_CRC_LENGTH_DATASIZE;
 573              		.loc 1 300 28 is_stmt 0 view .LVU157
 574 002e 0721     		movs	r1, #7
 575 0030 C162     		str	r1, [r0, #44]
 301:Core/Src/main.c ****   hspi2.Init.NSSPMode = SPI_NSS_PULSE_ENABLE;
 576              		.loc 1 301 3 is_stmt 1 view .LVU158
 301:Core/Src/main.c ****   hspi2.Init.NSSPMode = SPI_NSS_PULSE_ENABLE;
 577              		.loc 1 301 24 is_stmt 0 view .LVU159
 578 0032 0363     		str	r3, [r0, #48]
 302:Core/Src/main.c ****   if (HAL_SPI_Init(&hspi2) != HAL_OK)
 579              		.loc 1 302 3 is_stmt 1 view .LVU160
 302:Core/Src/main.c ****   if (HAL_SPI_Init(&hspi2) != HAL_OK)
 580              		.loc 1 302 23 is_stmt 0 view .LVU161
 581 0034 4263     		str	r2, [r0, #52]
 303:Core/Src/main.c ****   {
 582              		.loc 1 303 3 is_stmt 1 view .LVU162
 303:Core/Src/main.c ****   {
 583              		.loc 1 303 7 is_stmt 0 view .LVU163
 584 0036 FFF7FEFF 		bl	HAL_SPI_Init
 585              	.LVL26:
 303:Core/Src/main.c ****   {
 586              		.loc 1 303 6 discriminator 1 view .LVU164
 587 003a 0028     		cmp	r0, #0
 588 003c 00D1     		bne	.L35
 311:Core/Src/main.c **** 
 589              		.loc 1 311 1 view .LVU165
 590              		@ sp needed
 591 003e 10BD     		pop	{r4, pc}
 592              	.L35:
 305:Core/Src/main.c ****   }
 593              		.loc 1 305 5 is_stmt 1 view .LVU166
 594 0040 FFF7FEFF 		bl	Error_Handler
 595              	.LVL27:
 596              	.L37:
 597              		.align	2
 598              	.L36:
 599 0044 00000000 		.word	hspi2
 600 0048 00380040 		.word	1073756160
 601              		.cfi_endproc
 602              	.LFE46:
 604              		.section	.text.MX_TSC_Init,"ax",%progbits
 605              		.align	1
 606              		.syntax unified
 607              		.code	16
 608              		.thumb_func
 610              	MX_TSC_Init:
 611              	.LFB47:
 319:Core/Src/main.c **** 
 612              		.loc 1 319 1 view -0
 613              		.cfi_startproc
 614              		@ args = 0, pretend = 0, frame = 0
 615              		@ frame_needed = 0, uses_anonymous_args = 0
 616 0000 10B5     		push	{r4, lr}
 617              	.LCFI7:
 618              		.cfi_def_cfa_offset 8
ARM GAS  /var/folders/kr/g9ry2bg56g773797gdtkvvkw0000gn/T//cc96uClB.s 			page 26


 619              		.cfi_offset 4, -8
 620              		.cfi_offset 14, -4
 331:Core/Src/main.c ****   htsc.Init.CTPulseHighLength = TSC_CTPH_2CYCLES;
 621              		.loc 1 331 3 view .LVU168
 331:Core/Src/main.c ****   htsc.Init.CTPulseHighLength = TSC_CTPH_2CYCLES;
 622              		.loc 1 331 17 is_stmt 0 view .LVU169
 623 0002 1348     		ldr	r0, .L41
 624 0004 134B     		ldr	r3, .L41+4
 625 0006 0360     		str	r3, [r0]
 332:Core/Src/main.c ****   htsc.Init.CTPulseLowLength = TSC_CTPL_2CYCLES;
 626              		.loc 1 332 3 is_stmt 1 view .LVU170
 332:Core/Src/main.c ****   htsc.Init.CTPulseLowLength = TSC_CTPL_2CYCLES;
 627              		.loc 1 332 31 is_stmt 0 view .LVU171
 628 0008 8023     		movs	r3, #128
 629 000a 5B05     		lsls	r3, r3, #21
 630 000c 4360     		str	r3, [r0, #4]
 333:Core/Src/main.c ****   htsc.Init.SpreadSpectrum = DISABLE;
 631              		.loc 1 333 3 is_stmt 1 view .LVU172
 333:Core/Src/main.c ****   htsc.Init.SpreadSpectrum = DISABLE;
 632              		.loc 1 333 30 is_stmt 0 view .LVU173
 633 000e 8023     		movs	r3, #128
 634 0010 5B04     		lsls	r3, r3, #17
 635 0012 8360     		str	r3, [r0, #8]
 334:Core/Src/main.c ****   htsc.Init.SpreadSpectrumDeviation = 1;
 636              		.loc 1 334 3 is_stmt 1 view .LVU174
 334:Core/Src/main.c ****   htsc.Init.SpreadSpectrumDeviation = 1;
 637              		.loc 1 334 28 is_stmt 0 view .LVU175
 638 0014 0023     		movs	r3, #0
 639 0016 0373     		strb	r3, [r0, #12]
 335:Core/Src/main.c ****   htsc.Init.SpreadSpectrumPrescaler = TSC_SS_PRESC_DIV1;
 640              		.loc 1 335 3 is_stmt 1 view .LVU176
 335:Core/Src/main.c ****   htsc.Init.SpreadSpectrumPrescaler = TSC_SS_PRESC_DIV1;
 641              		.loc 1 335 37 is_stmt 0 view .LVU177
 642 0018 0122     		movs	r2, #1
 643 001a 0261     		str	r2, [r0, #16]
 336:Core/Src/main.c ****   htsc.Init.PulseGeneratorPrescaler = TSC_PG_PRESC_DIV4;
 644              		.loc 1 336 3 is_stmt 1 view .LVU178
 336:Core/Src/main.c ****   htsc.Init.PulseGeneratorPrescaler = TSC_PG_PRESC_DIV4;
 645              		.loc 1 336 37 is_stmt 0 view .LVU179
 646 001c 4361     		str	r3, [r0, #20]
 337:Core/Src/main.c ****   htsc.Init.MaxCountValue = TSC_MCV_8191;
 647              		.loc 1 337 3 is_stmt 1 view .LVU180
 337:Core/Src/main.c ****   htsc.Init.MaxCountValue = TSC_MCV_8191;
 648              		.loc 1 337 37 is_stmt 0 view .LVU181
 649 001e 8022     		movs	r2, #128
 650 0020 9201     		lsls	r2, r2, #6
 651 0022 8261     		str	r2, [r0, #24]
 338:Core/Src/main.c ****   htsc.Init.IODefaultMode = TSC_IODEF_OUT_PP_LOW;
 652              		.loc 1 338 3 is_stmt 1 view .LVU182
 338:Core/Src/main.c ****   htsc.Init.IODefaultMode = TSC_IODEF_OUT_PP_LOW;
 653              		.loc 1 338 27 is_stmt 0 view .LVU183
 654 0024 A022     		movs	r2, #160
 655 0026 C261     		str	r2, [r0, #28]
 339:Core/Src/main.c ****   htsc.Init.SynchroPinPolarity = TSC_SYNC_POLARITY_FALLING;
 656              		.loc 1 339 3 is_stmt 1 view .LVU184
 339:Core/Src/main.c ****   htsc.Init.SynchroPinPolarity = TSC_SYNC_POLARITY_FALLING;
 657              		.loc 1 339 27 is_stmt 0 view .LVU185
ARM GAS  /var/folders/kr/g9ry2bg56g773797gdtkvvkw0000gn/T//cc96uClB.s 			page 27


 658 0028 0362     		str	r3, [r0, #32]
 340:Core/Src/main.c ****   htsc.Init.AcquisitionMode = TSC_ACQ_MODE_NORMAL;
 659              		.loc 1 340 3 is_stmt 1 view .LVU186
 340:Core/Src/main.c ****   htsc.Init.AcquisitionMode = TSC_ACQ_MODE_NORMAL;
 660              		.loc 1 340 32 is_stmt 0 view .LVU187
 661 002a 4362     		str	r3, [r0, #36]
 341:Core/Src/main.c ****   htsc.Init.MaxCountInterrupt = DISABLE;
 662              		.loc 1 341 3 is_stmt 1 view .LVU188
 341:Core/Src/main.c ****   htsc.Init.MaxCountInterrupt = DISABLE;
 663              		.loc 1 341 29 is_stmt 0 view .LVU189
 664 002c 8362     		str	r3, [r0, #40]
 342:Core/Src/main.c ****   htsc.Init.ChannelIOs = TSC_GROUP1_IO3|TSC_GROUP2_IO3|TSC_GROUP3_IO2;
 665              		.loc 1 342 3 is_stmt 1 view .LVU190
 342:Core/Src/main.c ****   htsc.Init.ChannelIOs = TSC_GROUP1_IO3|TSC_GROUP2_IO3|TSC_GROUP3_IO2;
 666              		.loc 1 342 31 is_stmt 0 view .LVU191
 667 002e 743A     		subs	r2, r2, #116
 668 0030 8354     		strb	r3, [r0, r2]
 343:Core/Src/main.c ****   htsc.Init.ShieldIOs = 0;
 669              		.loc 1 343 3 is_stmt 1 view .LVU192
 343:Core/Src/main.c ****   htsc.Init.ShieldIOs = 0;
 670              		.loc 1 343 24 is_stmt 0 view .LVU193
 671 0032 9122     		movs	r2, #145
 672 0034 9200     		lsls	r2, r2, #2
 673 0036 0263     		str	r2, [r0, #48]
 344:Core/Src/main.c ****   htsc.Init.SamplingIOs = TSC_GROUP1_IO4|TSC_GROUP2_IO4|TSC_GROUP3_IO3;
 674              		.loc 1 344 3 is_stmt 1 view .LVU194
 344:Core/Src/main.c ****   htsc.Init.SamplingIOs = TSC_GROUP1_IO4|TSC_GROUP2_IO4|TSC_GROUP3_IO3;
 675              		.loc 1 344 23 is_stmt 0 view .LVU195
 676 0038 4363     		str	r3, [r0, #52]
 345:Core/Src/main.c ****   if (HAL_TSC_Init(&htsc) != HAL_OK)
 677              		.loc 1 345 3 is_stmt 1 view .LVU196
 345:Core/Src/main.c ****   if (HAL_TSC_Init(&htsc) != HAL_OK)
 678              		.loc 1 345 25 is_stmt 0 view .LVU197
 679 003a 9123     		movs	r3, #145
 680 003c DB00     		lsls	r3, r3, #3
 681 003e 8363     		str	r3, [r0, #56]
 346:Core/Src/main.c ****   {
 682              		.loc 1 346 3 is_stmt 1 view .LVU198
 346:Core/Src/main.c ****   {
 683              		.loc 1 346 7 is_stmt 0 view .LVU199
 684 0040 FFF7FEFF 		bl	HAL_TSC_Init
 685              	.LVL28:
 346:Core/Src/main.c ****   {
 686              		.loc 1 346 6 discriminator 1 view .LVU200
 687 0044 0028     		cmp	r0, #0
 688 0046 00D1     		bne	.L40
 354:Core/Src/main.c **** 
 689              		.loc 1 354 1 view .LVU201
 690              		@ sp needed
 691 0048 10BD     		pop	{r4, pc}
 692              	.L40:
 348:Core/Src/main.c ****   }
 693              		.loc 1 348 5 is_stmt 1 view .LVU202
 694 004a FFF7FEFF 		bl	Error_Handler
 695              	.LVL29:
 696              	.L42:
 697 004e C046     		.align	2
ARM GAS  /var/folders/kr/g9ry2bg56g773797gdtkvvkw0000gn/T//cc96uClB.s 			page 28


 698              	.L41:
 699 0050 00000000 		.word	htsc
 700 0054 00400240 		.word	1073889280
 701              		.cfi_endproc
 702              	.LFE47:
 704              		.section	.text.MX_USB_PCD_Init,"ax",%progbits
 705              		.align	1
 706              		.syntax unified
 707              		.code	16
 708              		.thumb_func
 710              	MX_USB_PCD_Init:
 711              	.LFB48:
 362:Core/Src/main.c **** 
 712              		.loc 1 362 1 view -0
 713              		.cfi_startproc
 714              		@ args = 0, pretend = 0, frame = 0
 715              		@ frame_needed = 0, uses_anonymous_args = 0
 716 0000 10B5     		push	{r4, lr}
 717              	.LCFI8:
 718              		.cfi_def_cfa_offset 8
 719              		.cfi_offset 4, -8
 720              		.cfi_offset 14, -4
 371:Core/Src/main.c ****   hpcd_USB_FS.Init.dev_endpoints = 8;
 721              		.loc 1 371 3 view .LVU204
 371:Core/Src/main.c ****   hpcd_USB_FS.Init.dev_endpoints = 8;
 722              		.loc 1 371 24 is_stmt 0 view .LVU205
 723 0002 0948     		ldr	r0, .L46
 724 0004 094B     		ldr	r3, .L46+4
 725 0006 0360     		str	r3, [r0]
 372:Core/Src/main.c ****   hpcd_USB_FS.Init.speed = PCD_SPEED_FULL;
 726              		.loc 1 372 3 is_stmt 1 view .LVU206
 372:Core/Src/main.c ****   hpcd_USB_FS.Init.speed = PCD_SPEED_FULL;
 727              		.loc 1 372 34 is_stmt 0 view .LVU207
 728 0008 0823     		movs	r3, #8
 729 000a 4360     		str	r3, [r0, #4]
 373:Core/Src/main.c ****   hpcd_USB_FS.Init.phy_itface = PCD_PHY_EMBEDDED;
 730              		.loc 1 373 3 is_stmt 1 view .LVU208
 373:Core/Src/main.c ****   hpcd_USB_FS.Init.phy_itface = PCD_PHY_EMBEDDED;
 731              		.loc 1 373 26 is_stmt 0 view .LVU209
 732 000c 063B     		subs	r3, r3, #6
 733 000e 8360     		str	r3, [r0, #8]
 374:Core/Src/main.c ****   hpcd_USB_FS.Init.low_power_enable = DISABLE;
 734              		.loc 1 374 3 is_stmt 1 view .LVU210
 374:Core/Src/main.c ****   hpcd_USB_FS.Init.low_power_enable = DISABLE;
 735              		.loc 1 374 31 is_stmt 0 view .LVU211
 736 0010 0361     		str	r3, [r0, #16]
 375:Core/Src/main.c ****   hpcd_USB_FS.Init.lpm_enable = DISABLE;
 737              		.loc 1 375 3 is_stmt 1 view .LVU212
 375:Core/Src/main.c ****   hpcd_USB_FS.Init.lpm_enable = DISABLE;
 738              		.loc 1 375 37 is_stmt 0 view .LVU213
 739 0012 0023     		movs	r3, #0
 740 0014 8361     		str	r3, [r0, #24]
 376:Core/Src/main.c ****   hpcd_USB_FS.Init.battery_charging_enable = DISABLE;
 741              		.loc 1 376 3 is_stmt 1 view .LVU214
 376:Core/Src/main.c ****   hpcd_USB_FS.Init.battery_charging_enable = DISABLE;
 742              		.loc 1 376 31 is_stmt 0 view .LVU215
 743 0016 C361     		str	r3, [r0, #28]
ARM GAS  /var/folders/kr/g9ry2bg56g773797gdtkvvkw0000gn/T//cc96uClB.s 			page 29


 377:Core/Src/main.c ****   if (HAL_PCD_Init(&hpcd_USB_FS) != HAL_OK)
 744              		.loc 1 377 3 is_stmt 1 view .LVU216
 377:Core/Src/main.c ****   if (HAL_PCD_Init(&hpcd_USB_FS) != HAL_OK)
 745              		.loc 1 377 44 is_stmt 0 view .LVU217
 746 0018 0362     		str	r3, [r0, #32]
 378:Core/Src/main.c ****   {
 747              		.loc 1 378 3 is_stmt 1 view .LVU218
 378:Core/Src/main.c ****   {
 748              		.loc 1 378 7 is_stmt 0 view .LVU219
 749 001a FFF7FEFF 		bl	HAL_PCD_Init
 750              	.LVL30:
 378:Core/Src/main.c ****   {
 751              		.loc 1 378 6 discriminator 1 view .LVU220
 752 001e 0028     		cmp	r0, #0
 753 0020 00D1     		bne	.L45
 386:Core/Src/main.c **** 
 754              		.loc 1 386 1 view .LVU221
 755              		@ sp needed
 756 0022 10BD     		pop	{r4, pc}
 757              	.L45:
 380:Core/Src/main.c ****   }
 758              		.loc 1 380 5 is_stmt 1 view .LVU222
 759 0024 FFF7FEFF 		bl	Error_Handler
 760              	.LVL31:
 761              	.L47:
 762              		.align	2
 763              	.L46:
 764 0028 00000000 		.word	hpcd_USB_FS
 765 002c 005C0040 		.word	1073765376
 766              		.cfi_endproc
 767              	.LFE48:
 769              		.section	.text.SystemClock_Config,"ax",%progbits
 770              		.align	1
 771              		.global	SystemClock_Config
 772              		.syntax unified
 773              		.code	16
 774              		.thumb_func
 776              	SystemClock_Config:
 777              	.LFB44:
 183:Core/Src/main.c ****   RCC_OscInitTypeDef RCC_OscInitStruct = {0};
 778              		.loc 1 183 1 view -0
 779              		.cfi_startproc
 780              		@ args = 0, pretend = 0, frame = 96
 781              		@ frame_needed = 0, uses_anonymous_args = 0
 782 0000 00B5     		push	{lr}
 783              	.LCFI9:
 784              		.cfi_def_cfa_offset 4
 785              		.cfi_offset 14, -4
 786 0002 99B0     		sub	sp, sp, #100
 787              	.LCFI10:
 788              		.cfi_def_cfa_offset 104
 184:Core/Src/main.c ****   RCC_ClkInitTypeDef RCC_ClkInitStruct = {0};
 789              		.loc 1 184 3 view .LVU224
 184:Core/Src/main.c ****   RCC_ClkInitTypeDef RCC_ClkInitStruct = {0};
 790              		.loc 1 184 22 is_stmt 0 view .LVU225
 791 0004 3422     		movs	r2, #52
 792 0006 0021     		movs	r1, #0
ARM GAS  /var/folders/kr/g9ry2bg56g773797gdtkvvkw0000gn/T//cc96uClB.s 			page 30


 793 0008 0BA8     		add	r0, sp, #44
 794 000a FFF7FEFF 		bl	memset
 795              	.LVL32:
 185:Core/Src/main.c ****   RCC_PeriphCLKInitTypeDef PeriphClkInit = {0};
 796              		.loc 1 185 3 is_stmt 1 view .LVU226
 185:Core/Src/main.c ****   RCC_PeriphCLKInitTypeDef PeriphClkInit = {0};
 797              		.loc 1 185 22 is_stmt 0 view .LVU227
 798 000e 1022     		movs	r2, #16
 799 0010 0021     		movs	r1, #0
 800 0012 07A8     		add	r0, sp, #28
 801 0014 FFF7FEFF 		bl	memset
 802              	.LVL33:
 186:Core/Src/main.c **** 
 803              		.loc 1 186 3 is_stmt 1 view .LVU228
 186:Core/Src/main.c **** 
 804              		.loc 1 186 28 is_stmt 0 view .LVU229
 805 0018 1C22     		movs	r2, #28
 806 001a 0021     		movs	r1, #0
 807 001c 6846     		mov	r0, sp
 808 001e FFF7FEFF 		bl	memset
 809              	.LVL34:
 191:Core/Src/main.c ****   RCC_OscInitStruct.HSIState = RCC_HSI_ON;
 810              		.loc 1 191 3 is_stmt 1 view .LVU230
 191:Core/Src/main.c ****   RCC_OscInitStruct.HSIState = RCC_HSI_ON;
 811              		.loc 1 191 36 is_stmt 0 view .LVU231
 812 0022 2223     		movs	r3, #34
 813 0024 0B93     		str	r3, [sp, #44]
 192:Core/Src/main.c ****   RCC_OscInitStruct.HSI48State = RCC_HSI48_ON;
 814              		.loc 1 192 3 is_stmt 1 view .LVU232
 192:Core/Src/main.c ****   RCC_OscInitStruct.HSI48State = RCC_HSI48_ON;
 815              		.loc 1 192 30 is_stmt 0 view .LVU233
 816 0026 213B     		subs	r3, r3, #33
 817 0028 0E93     		str	r3, [sp, #56]
 193:Core/Src/main.c ****   RCC_OscInitStruct.HSICalibrationValue = RCC_HSICALIBRATION_DEFAULT;
 818              		.loc 1 193 3 is_stmt 1 view .LVU234
 193:Core/Src/main.c ****   RCC_OscInitStruct.HSICalibrationValue = RCC_HSICALIBRATION_DEFAULT;
 819              		.loc 1 193 32 is_stmt 0 view .LVU235
 820 002a 1393     		str	r3, [sp, #76]
 194:Core/Src/main.c ****   RCC_OscInitStruct.PLL.PLLState = RCC_PLL_ON;
 821              		.loc 1 194 3 is_stmt 1 view .LVU236
 194:Core/Src/main.c ****   RCC_OscInitStruct.PLL.PLLState = RCC_PLL_ON;
 822              		.loc 1 194 41 is_stmt 0 view .LVU237
 823 002c 0F33     		adds	r3, r3, #15
 824 002e 0F93     		str	r3, [sp, #60]
 195:Core/Src/main.c ****   RCC_OscInitStruct.PLL.PLLSource = RCC_PLLSOURCE_HSI;
 825              		.loc 1 195 3 is_stmt 1 view .LVU238
 195:Core/Src/main.c ****   RCC_OscInitStruct.PLL.PLLSource = RCC_PLLSOURCE_HSI;
 826              		.loc 1 195 34 is_stmt 0 view .LVU239
 827 0030 0E3B     		subs	r3, r3, #14
 828 0032 1493     		str	r3, [sp, #80]
 196:Core/Src/main.c ****   RCC_OscInitStruct.PLL.PLLMUL = RCC_PLL_MUL6;
 829              		.loc 1 196 3 is_stmt 1 view .LVU240
 196:Core/Src/main.c ****   RCC_OscInitStruct.PLL.PLLMUL = RCC_PLL_MUL6;
 830              		.loc 1 196 35 is_stmt 0 view .LVU241
 831 0034 8023     		movs	r3, #128
 832 0036 1B02     		lsls	r3, r3, #8
 833 0038 1593     		str	r3, [sp, #84]
ARM GAS  /var/folders/kr/g9ry2bg56g773797gdtkvvkw0000gn/T//cc96uClB.s 			page 31


 197:Core/Src/main.c ****   RCC_OscInitStruct.PLL.PREDIV = RCC_PREDIV_DIV1;
 834              		.loc 1 197 3 is_stmt 1 view .LVU242
 197:Core/Src/main.c ****   RCC_OscInitStruct.PLL.PREDIV = RCC_PREDIV_DIV1;
 835              		.loc 1 197 32 is_stmt 0 view .LVU243
 836 003a 8023     		movs	r3, #128
 837 003c 5B03     		lsls	r3, r3, #13
 838 003e 1693     		str	r3, [sp, #88]
 198:Core/Src/main.c ****   if (HAL_RCC_OscConfig(&RCC_OscInitStruct) != HAL_OK)
 839              		.loc 1 198 3 is_stmt 1 view .LVU244
 199:Core/Src/main.c ****   {
 840              		.loc 1 199 3 view .LVU245
 199:Core/Src/main.c ****   {
 841              		.loc 1 199 7 is_stmt 0 view .LVU246
 842 0040 0BA8     		add	r0, sp, #44
 843 0042 FFF7FEFF 		bl	HAL_RCC_OscConfig
 844              	.LVL35:
 199:Core/Src/main.c ****   {
 845              		.loc 1 199 6 discriminator 1 view .LVU247
 846 0046 0028     		cmp	r0, #0
 847 0048 18D1     		bne	.L52
 206:Core/Src/main.c ****                               |RCC_CLOCKTYPE_PCLK1;
 848              		.loc 1 206 3 is_stmt 1 view .LVU248
 206:Core/Src/main.c ****                               |RCC_CLOCKTYPE_PCLK1;
 849              		.loc 1 206 31 is_stmt 0 view .LVU249
 850 004a 0723     		movs	r3, #7
 851 004c 0793     		str	r3, [sp, #28]
 208:Core/Src/main.c ****   RCC_ClkInitStruct.AHBCLKDivider = RCC_SYSCLK_DIV1;
 852              		.loc 1 208 3 is_stmt 1 view .LVU250
 208:Core/Src/main.c ****   RCC_ClkInitStruct.AHBCLKDivider = RCC_SYSCLK_DIV1;
 853              		.loc 1 208 34 is_stmt 0 view .LVU251
 854 004e 053B     		subs	r3, r3, #5
 855 0050 0893     		str	r3, [sp, #32]
 209:Core/Src/main.c ****   RCC_ClkInitStruct.APB1CLKDivider = RCC_HCLK_DIV1;
 856              		.loc 1 209 3 is_stmt 1 view .LVU252
 209:Core/Src/main.c ****   RCC_ClkInitStruct.APB1CLKDivider = RCC_HCLK_DIV1;
 857              		.loc 1 209 35 is_stmt 0 view .LVU253
 858 0052 0023     		movs	r3, #0
 859 0054 0993     		str	r3, [sp, #36]
 210:Core/Src/main.c **** 
 860              		.loc 1 210 3 is_stmt 1 view .LVU254
 210:Core/Src/main.c **** 
 861              		.loc 1 210 36 is_stmt 0 view .LVU255
 862 0056 0A93     		str	r3, [sp, #40]
 212:Core/Src/main.c ****   {
 863              		.loc 1 212 3 is_stmt 1 view .LVU256
 212:Core/Src/main.c ****   {
 864              		.loc 1 212 7 is_stmt 0 view .LVU257
 865 0058 0121     		movs	r1, #1
 866 005a 07A8     		add	r0, sp, #28
 867 005c FFF7FEFF 		bl	HAL_RCC_ClockConfig
 868              	.LVL36:
 212:Core/Src/main.c ****   {
 869              		.loc 1 212 6 discriminator 1 view .LVU258
 870 0060 0028     		cmp	r0, #0
 871 0062 0DD1     		bne	.L53
 216:Core/Src/main.c ****   PeriphClkInit.UsbClockSelection = RCC_USBCLKSOURCE_HSI48;
 872              		.loc 1 216 3 is_stmt 1 view .LVU259
ARM GAS  /var/folders/kr/g9ry2bg56g773797gdtkvvkw0000gn/T//cc96uClB.s 			page 32


 216:Core/Src/main.c ****   PeriphClkInit.UsbClockSelection = RCC_USBCLKSOURCE_HSI48;
 873              		.loc 1 216 38 is_stmt 0 view .LVU260
 874 0064 8023     		movs	r3, #128
 875 0066 9B02     		lsls	r3, r3, #10
 876 0068 0093     		str	r3, [sp]
 217:Core/Src/main.c **** 
 877              		.loc 1 217 3 is_stmt 1 view .LVU261
 217:Core/Src/main.c **** 
 878              		.loc 1 217 35 is_stmt 0 view .LVU262
 879 006a 0023     		movs	r3, #0
 880 006c 0693     		str	r3, [sp, #24]
 219:Core/Src/main.c ****   {
 881              		.loc 1 219 3 is_stmt 1 view .LVU263
 219:Core/Src/main.c ****   {
 882              		.loc 1 219 7 is_stmt 0 view .LVU264
 883 006e 6846     		mov	r0, sp
 884 0070 FFF7FEFF 		bl	HAL_RCCEx_PeriphCLKConfig
 885              	.LVL37:
 219:Core/Src/main.c ****   {
 886              		.loc 1 219 6 discriminator 1 view .LVU265
 887 0074 0028     		cmp	r0, #0
 888 0076 05D1     		bne	.L54
 223:Core/Src/main.c **** 
 889              		.loc 1 223 1 view .LVU266
 890 0078 19B0     		add	sp, sp, #100
 891              		@ sp needed
 892 007a 00BD     		pop	{pc}
 893              	.L52:
 201:Core/Src/main.c ****   }
 894              		.loc 1 201 5 is_stmt 1 view .LVU267
 895 007c FFF7FEFF 		bl	Error_Handler
 896              	.LVL38:
 897              	.L53:
 214:Core/Src/main.c ****   }
 898              		.loc 1 214 5 view .LVU268
 899 0080 FFF7FEFF 		bl	Error_Handler
 900              	.LVL39:
 901              	.L54:
 221:Core/Src/main.c ****   }
 902              		.loc 1 221 5 view .LVU269
 903 0084 FFF7FEFF 		bl	Error_Handler
 904              	.LVL40:
 905              		.cfi_endproc
 906              	.LFE44:
 908              		.section	.text.main,"ax",%progbits
 909              		.align	1
 910              		.global	main
 911              		.syntax unified
 912              		.code	16
 913              		.thumb_func
 915              	main:
 916              	.LFB43:
  95:Core/Src/main.c **** 
 917              		.loc 1 95 1 view -0
 918              		.cfi_startproc
 919              		@ Volatile: function does not return.
 920              		@ args = 0, pretend = 0, frame = 0
ARM GAS  /var/folders/kr/g9ry2bg56g773797gdtkvvkw0000gn/T//cc96uClB.s 			page 33


 921              		@ frame_needed = 0, uses_anonymous_args = 0
 922 0000 10B5     		push	{r4, lr}
 923              	.LCFI11:
 924              		.cfi_def_cfa_offset 8
 925              		.cfi_offset 4, -8
 926              		.cfi_offset 14, -4
 104:Core/Src/main.c **** 
 927              		.loc 1 104 3 view .LVU271
 928 0002 FFF7FEFF 		bl	HAL_Init
 929              	.LVL41:
 111:Core/Src/main.c **** 
 930              		.loc 1 111 3 view .LVU272
 931 0006 FFF7FEFF 		bl	SystemClock_Config
 932              	.LVL42:
 118:Core/Src/main.c ****   MX_I2C2_Init();
 933              		.loc 1 118 3 view .LVU273
 934 000a FFF7FEFF 		bl	MX_GPIO_Init
 935              	.LVL43:
 119:Core/Src/main.c ****   MX_SPI2_Init();
 936              		.loc 1 119 3 view .LVU274
 937 000e FFF7FEFF 		bl	MX_I2C2_Init
 938              	.LVL44:
 120:Core/Src/main.c ****   MX_TSC_Init();
 939              		.loc 1 120 3 view .LVU275
 940 0012 FFF7FEFF 		bl	MX_SPI2_Init
 941              	.LVL45:
 121:Core/Src/main.c ****   MX_USB_PCD_Init();
 942              		.loc 1 121 3 view .LVU276
 943 0016 FFF7FEFF 		bl	MX_TSC_Init
 944              	.LVL46:
 122:Core/Src/main.c **** 
 945              		.loc 1 122 3 view .LVU277
 946 001a FFF7FEFF 		bl	MX_USB_PCD_Init
 947              	.LVL47:
 124:Core/Src/main.c ****   /* USER CODE BEGIN 2 */
 948              		.loc 1 124 3 view .LVU278
 949 001e FFF7FEFF 		bl	initUsart3
 950              	.LVL48:
 130:Core/Src/main.c **** 
 951              		.loc 1 130 3 view .LVU279
 952 0022 FFF7FEFF 		bl	osKernelInitialize
 953              	.LVL49:
 150:Core/Src/main.c ****   /* creation of LEDTask */
 954              		.loc 1 150 3 view .LVU280
 150:Core/Src/main.c ****   /* creation of LEDTask */
 955              		.loc 1 150 22 is_stmt 0 view .LVU281
 956 0026 084A     		ldr	r2, .L57
 957 0028 0848     		ldr	r0, .L57+4
 958 002a 0021     		movs	r1, #0
 959 002c FFF7FEFF 		bl	osThreadNew
 960              	.LVL50:
 150:Core/Src/main.c ****   /* creation of LEDTask */
 961              		.loc 1 150 20 discriminator 1 view .LVU282
 962 0030 074B     		ldr	r3, .L57+8
 963 0032 1860     		str	r0, [r3]
 152:Core/Src/main.c **** 
 964              		.loc 1 152 3 is_stmt 1 view .LVU283
ARM GAS  /var/folders/kr/g9ry2bg56g773797gdtkvvkw0000gn/T//cc96uClB.s 			page 34


 152:Core/Src/main.c **** 
 965              		.loc 1 152 19 is_stmt 0 view .LVU284
 966 0034 074A     		ldr	r2, .L57+12
 967 0036 0848     		ldr	r0, .L57+16
 968 0038 0021     		movs	r1, #0
 969 003a FFF7FEFF 		bl	osThreadNew
 970              	.LVL51:
 152:Core/Src/main.c **** 
 971              		.loc 1 152 17 discriminator 1 view .LVU285
 972 003e 074B     		ldr	r3, .L57+20
 973 0040 1860     		str	r0, [r3]
 163:Core/Src/main.c **** 
 974              		.loc 1 163 3 is_stmt 1 view .LVU286
 975 0042 FFF7FEFF 		bl	osKernelStart
 976              	.LVL52:
 977              	.L56:
 169:Core/Src/main.c ****   {
 978              		.loc 1 169 3 view .LVU287
 174:Core/Src/main.c ****   /* USER CODE END 3 */
 979              		.loc 1 174 3 view .LVU288
 169:Core/Src/main.c ****   {
 980              		.loc 1 169 9 view .LVU289
 981 0046 FEE7     		b	.L56
 982              	.L58:
 983              		.align	2
 984              	.L57:
 985 0048 00000000 		.word	routerTask_attributes
 986 004c 00000000 		.word	StartRouterTask
 987 0050 00000000 		.word	routerTaskHandle
 988 0054 00000000 		.word	LEDTask_attributes
 989 0058 00000000 		.word	StartLEDTask
 990 005c 00000000 		.word	LEDTaskHandle
 991              		.cfi_endproc
 992              	.LFE43:
 994              		.global	LEDTask_attributes
 995              		.section	.rodata.str1.4,"aMS",%progbits,1
 996              		.align	2
 997              	.LC11:
 998 0000 4C454454 		.ascii	"LEDTask\000"
 998      61736B00 
 999              		.section	.rodata.LEDTask_attributes,"a"
 1000              		.align	2
 1003              	LEDTask_attributes:
 1004 0000 00000000 		.word	.LC11
 1005 0004 00000000 		.space	16
 1005      00000000 
 1005      00000000 
 1005      00000000 
 1006 0014 00020000 		.word	512
 1007 0018 18000000 		.word	24
 1008 001c 00000000 		.space	8
 1008      00000000 
 1009              		.global	LEDTaskHandle
 1010              		.section	.bss.LEDTaskHandle,"aw",%nobits
 1011              		.align	2
 1014              	LEDTaskHandle:
 1015 0000 00000000 		.space	4
ARM GAS  /var/folders/kr/g9ry2bg56g773797gdtkvvkw0000gn/T//cc96uClB.s 			page 35


 1016              		.global	routerTask_attributes
 1017              		.section	.rodata.str1.4
 1018              		.align	2
 1019              	.LC12:
 1020 0008 726F7574 		.ascii	"routerTask\000"
 1020      65725461 
 1020      736B00
 1021              		.section	.rodata.routerTask_attributes,"a"
 1022              		.align	2
 1025              	routerTask_attributes:
 1026 0000 08000000 		.word	.LC12
 1027 0004 00000000 		.space	16
 1027      00000000 
 1027      00000000 
 1027      00000000 
 1028 0014 00020000 		.word	512
 1029 0018 18000000 		.word	24
 1030 001c 00000000 		.space	8
 1030      00000000 
 1031              		.global	routerTaskHandle
 1032              		.section	.bss.routerTaskHandle,"aw",%nobits
 1033              		.align	2
 1036              	routerTaskHandle:
 1037 0000 00000000 		.space	4
 1038              		.global	hpcd_USB_FS
 1039              		.section	.bss.hpcd_USB_FS,"aw",%nobits
 1040              		.align	2
 1043              	hpcd_USB_FS:
 1044 0000 00000000 		.space	756
 1044      00000000 
 1044      00000000 
 1044      00000000 
 1044      00000000 
 1045              		.global	htsc
 1046              		.section	.bss.htsc,"aw",%nobits
 1047              		.align	2
 1050              	htsc:
 1051 0000 00000000 		.space	68
 1051      00000000 
 1051      00000000 
 1051      00000000 
 1051      00000000 
 1052              		.global	hspi2
 1053              		.section	.bss.hspi2,"aw",%nobits
 1054              		.align	2
 1057              	hspi2:
 1058 0000 00000000 		.space	100
 1058      00000000 
 1058      00000000 
 1058      00000000 
 1058      00000000 
 1059              		.global	hi2c2
 1060              		.section	.bss.hi2c2,"aw",%nobits
 1061              		.align	2
 1064              	hi2c2:
 1065 0000 00000000 		.space	84
 1065      00000000 
ARM GAS  /var/folders/kr/g9ry2bg56g773797gdtkvvkw0000gn/T//cc96uClB.s 			page 36


 1065      00000000 
 1065      00000000 
 1065      00000000 
 1066              		.text
 1067              	.Letext0:
 1068              		.file 3 "/Applications/ArmGNUToolchain/13.2.Rel1/arm-none-eabi/arm-none-eabi/include/machine/_defa
 1069              		.file 4 "/Applications/ArmGNUToolchain/13.2.Rel1/arm-none-eabi/arm-none-eabi/include/sys/_stdint.h
 1070              		.file 5 "Drivers/CMSIS/Device/ST/STM32F0xx/Include/stm32f072xb.h"
 1071              		.file 6 "Drivers/CMSIS/Device/ST/STM32F0xx/Include/stm32f0xx.h"
 1072              		.file 7 "Drivers/STM32F0xx_HAL_Driver/Inc/stm32f0xx_hal_def.h"
 1073              		.file 8 "Drivers/STM32F0xx_HAL_Driver/Inc/stm32f0xx_hal_rcc.h"
 1074              		.file 9 "Drivers/STM32F0xx_HAL_Driver/Inc/stm32f0xx_hal_rcc_ex.h"
 1075              		.file 10 "Drivers/STM32F0xx_HAL_Driver/Inc/stm32f0xx_hal_gpio.h"
 1076              		.file 11 "Drivers/STM32F0xx_HAL_Driver/Inc/stm32f0xx_hal_dma.h"
 1077              		.file 12 "Drivers/STM32F0xx_HAL_Driver/Inc/stm32f0xx_hal_i2c.h"
 1078              		.file 13 "Drivers/STM32F0xx_HAL_Driver/Inc/stm32f0xx_ll_usb.h"
 1079              		.file 14 "Drivers/STM32F0xx_HAL_Driver/Inc/stm32f0xx_hal_pcd.h"
 1080              		.file 15 "Drivers/STM32F0xx_HAL_Driver/Inc/stm32f0xx_hal_spi.h"
 1081              		.file 16 "Drivers/STM32F0xx_HAL_Driver/Inc/stm32f0xx_hal_tim.h"
 1082              		.file 17 "Drivers/STM32F0xx_HAL_Driver/Inc/stm32f0xx_hal_tsc.h"
 1083              		.file 18 "Middlewares/Third_Party/FreeRTOS/Source/CMSIS_RTOS_V2/cmsis_os2.h"
 1084              		.file 19 "Drivers/STM32F0xx_HAL_Driver/Inc/stm32f0xx_hal_i2c_ex.h"
 1085              		.file 20 "Drivers/STM32F0xx_HAL_Driver/Inc/stm32f0xx_hal.h"
 1086              		.file 21 "Core/Inc/uartParser.h"
 1087              		.file 22 "<built-in>"
ARM GAS  /var/folders/kr/g9ry2bg56g773797gdtkvvkw0000gn/T//cc96uClB.s 			page 37

