ARM GAS  /var/folders/kr/g9ry2bg56g773797gdtkvvkw0000gn/T//ccYFTcCO.s 			page 1


   1              		.cpu cortex-m0
   2              		.arch armv6s-m
   3              		.fpu softvfp
   4              		.eabi_attribute 20, 1
   5              		.eabi_attribute 21, 1
   6              		.eabi_attribute 23, 3
   7              		.eabi_attribute 24, 1
   8              		.eabi_attribute 25, 1
   9              		.eabi_attribute 26, 1
  10              		.eabi_attribute 30, 1
  11              		.eabi_attribute 34, 0
  12              		.eabi_attribute 18, 4
  13              		.file	"main.c"
  14              		.text
  15              	.Ltext0:
  16              		.cfi_sections	.debug_frame
  17              		.file 1 "Core/Src/main.c"
  18              		.section	.text.MX_GPIO_Init,"ax",%progbits
  19              		.align	1
  20              		.syntax unified
  21              		.code	16
  22              		.thumb_func
  24              	MX_GPIO_Init:
  25              	.LFB49:
   1:Core/Src/main.c **** /* USER CODE BEGIN Header */
   2:Core/Src/main.c **** /**
   3:Core/Src/main.c ****   ******************************************************************************
   4:Core/Src/main.c ****   * @file           : main.c
   5:Core/Src/main.c ****   * @brief          : Main program body
   6:Core/Src/main.c ****   ******************************************************************************
   7:Core/Src/main.c ****   * @attention
   8:Core/Src/main.c ****   *
   9:Core/Src/main.c ****   * Copyright (c) 2024 STMicroelectronics.
  10:Core/Src/main.c ****   * All rights reserved.
  11:Core/Src/main.c ****   *
  12:Core/Src/main.c ****   * This software is licensed under terms that can be found in the LICENSE file
  13:Core/Src/main.c ****   * in the root directory of this software component.
  14:Core/Src/main.c ****   * If no LICENSE file comes with this software, it is provided AS-IS.
  15:Core/Src/main.c ****   *
  16:Core/Src/main.c ****   ******************************************************************************
  17:Core/Src/main.c ****   */
  18:Core/Src/main.c **** /* USER CODE END Header */
  19:Core/Src/main.c **** /* Includes ------------------------------------------------------------------*/
  20:Core/Src/main.c **** #include "main.h"
  21:Core/Src/main.c **** #include "cmsis_os.h"
  22:Core/Src/main.c **** #include "stm32f072xb.h"
  23:Core/Src/main.c **** 
  24:Core/Src/main.c **** //Global variables
  25:Core/Src/main.c **** volatile uint16_t commandLED = 0;
  26:Core/Src/main.c **** volatile uint16_t commandMotor = 0;
  27:Core/Src/main.c **** 
  28:Core/Src/main.c **** //Semaphores
  29:Core/Src/main.c **** osSemaphoreId_t binarySem03LEDWorkerHandle;
  30:Core/Src/main.c **** osSemaphoreId_t binarySem04MotorWorkerHandle;
  31:Core/Src/main.c **** 
  32:Core/Src/main.c **** /* Private includes ----------------------------------------------------------*/
  33:Core/Src/main.c **** /* USER CODE BEGIN Includes */
ARM GAS  /var/folders/kr/g9ry2bg56g773797gdtkvvkw0000gn/T//ccYFTcCO.s 			page 2


  34:Core/Src/main.c **** 
  35:Core/Src/main.c **** /* USER CODE END Includes */
  36:Core/Src/main.c **** 
  37:Core/Src/main.c **** /* Private typedef -----------------------------------------------------------*/
  38:Core/Src/main.c **** /* USER CODE BEGIN PTD */
  39:Core/Src/main.c **** 
  40:Core/Src/main.c **** /* USER CODE END PTD */
  41:Core/Src/main.c **** 
  42:Core/Src/main.c **** /* Private define ------------------------------------------------------------*/
  43:Core/Src/main.c **** /* USER CODE BEGIN PD */
  44:Core/Src/main.c **** 
  45:Core/Src/main.c **** /* USER CODE END PD */
  46:Core/Src/main.c **** 
  47:Core/Src/main.c **** /* Private macro -------------------------------------------------------------*/
  48:Core/Src/main.c **** /* USER CODE BEGIN PM */
  49:Core/Src/main.c **** 
  50:Core/Src/main.c **** /* USER CODE END PM */
  51:Core/Src/main.c **** 
  52:Core/Src/main.c **** /* Private variables ---------------------------------------------------------*/
  53:Core/Src/main.c **** I2C_HandleTypeDef hi2c2;
  54:Core/Src/main.c **** 
  55:Core/Src/main.c **** SPI_HandleTypeDef hspi2;
  56:Core/Src/main.c **** 
  57:Core/Src/main.c **** TSC_HandleTypeDef htsc;
  58:Core/Src/main.c **** 
  59:Core/Src/main.c **** PCD_HandleTypeDef hpcd_USB_FS;
  60:Core/Src/main.c **** /* Definitions for task router */
  61:Core/Src/main.c **** osThreadId_t routerTaskHandle;
  62:Core/Src/main.c **** const osThreadAttr_t routerTask_attributes = {
  63:Core/Src/main.c ****   .name = "routerTask",
  64:Core/Src/main.c ****   .stack_size = 128 * 4,
  65:Core/Src/main.c ****   .priority = (osPriority_t) osPriorityNormal,
  66:Core/Src/main.c **** };
  67:Core/Src/main.c **** 
  68:Core/Src/main.c **** /* Definitions for LED worker task */
  69:Core/Src/main.c **** osThreadId_t LEDTaskHandle;
  70:Core/Src/main.c **** const osThreadAttr_t LEDTask_attributes = {
  71:Core/Src/main.c ****   .name = "LEDTask",
  72:Core/Src/main.c ****   .stack_size = 128 * 4,
  73:Core/Src/main.c ****   .priority = (osPriority_t) osPriorityNormal,
  74:Core/Src/main.c **** };
  75:Core/Src/main.c **** 
  76:Core/Src/main.c **** 
  77:Core/Src/main.c **** /* USER CODE BEGIN PV */
  78:Core/Src/main.c **** 
  79:Core/Src/main.c **** /* USER CODE END PV */
  80:Core/Src/main.c **** 
  81:Core/Src/main.c **** /* Private function prototypes -----------------------------------------------*/
  82:Core/Src/main.c **** void SystemClock_Config(void);
  83:Core/Src/main.c **** static void MX_GPIO_Init(void);
  84:Core/Src/main.c **** static void MX_I2C2_Init(void);
  85:Core/Src/main.c **** static void MX_SPI2_Init(void);
  86:Core/Src/main.c **** static void MX_TSC_Init(void);
  87:Core/Src/main.c **** static void MX_USB_PCD_Init(void);
  88:Core/Src/main.c **** void StartRouterTask(void *argument);
  89:Core/Src/main.c **** void StartLEDTask(void *argument);
  90:Core/Src/main.c **** void initLEDs(void);
ARM GAS  /var/folders/kr/g9ry2bg56g773797gdtkvvkw0000gn/T//ccYFTcCO.s 			page 3


  91:Core/Src/main.c **** /* USER CODE BEGIN PFP */
  92:Core/Src/main.c **** 
  93:Core/Src/main.c **** /* USER CODE END PFP */
  94:Core/Src/main.c **** 
  95:Core/Src/main.c **** /* Private user code ---------------------------------------------------------*/
  96:Core/Src/main.c **** /* USER CODE BEGIN 0 */
  97:Core/Src/main.c **** 
  98:Core/Src/main.c **** /* USER CODE END 0 */
  99:Core/Src/main.c **** 
 100:Core/Src/main.c **** /**
 101:Core/Src/main.c ****   * @brief  The application entry point.
 102:Core/Src/main.c ****   * @retval int
 103:Core/Src/main.c ****   */
 104:Core/Src/main.c **** int main(void)
 105:Core/Src/main.c **** {
 106:Core/Src/main.c **** 
 107:Core/Src/main.c ****   /* USER CODE BEGIN 1 */
 108:Core/Src/main.c **** 
 109:Core/Src/main.c ****   /* USER CODE END 1 */
 110:Core/Src/main.c **** 
 111:Core/Src/main.c ****   /* MCU Configuration--------------------------------------------------------*/
 112:Core/Src/main.c **** 
 113:Core/Src/main.c ****   /* Reset of all peripherals, Initializes the Flash interface and the Systick. */
 114:Core/Src/main.c ****   HAL_Init();
 115:Core/Src/main.c **** 
 116:Core/Src/main.c ****   /* USER CODE BEGIN Init */
 117:Core/Src/main.c **** 
 118:Core/Src/main.c ****   /* USER CODE END Init */
 119:Core/Src/main.c **** 
 120:Core/Src/main.c ****   /* Configure the system clock */
 121:Core/Src/main.c ****   SystemClock_Config();
 122:Core/Src/main.c **** 
 123:Core/Src/main.c ****   /* USER CODE BEGIN SysInit */
 124:Core/Src/main.c **** 
 125:Core/Src/main.c ****   /* USER CODE END SysInit */
 126:Core/Src/main.c **** 
 127:Core/Src/main.c ****   /* Initialize all configured peripherals */
 128:Core/Src/main.c ****   MX_GPIO_Init();
 129:Core/Src/main.c ****   MX_I2C2_Init();
 130:Core/Src/main.c ****   MX_SPI2_Init();
 131:Core/Src/main.c ****   MX_TSC_Init();
 132:Core/Src/main.c ****   MX_USB_PCD_Init();
 133:Core/Src/main.c **** 
 134:Core/Src/main.c ****   initUsart3();
 135:Core/Src/main.c ****   initLEDs();
 136:Core/Src/main.c ****   /* USER CODE BEGIN 2 */
 137:Core/Src/main.c **** 
 138:Core/Src/main.c ****   /* USER CODE END 2 */
 139:Core/Src/main.c **** 
 140:Core/Src/main.c ****   /* Init scheduler */
 141:Core/Src/main.c ****   osKernelInitialize();
 142:Core/Src/main.c **** 
 143:Core/Src/main.c ****   /* USER CODE BEGIN RTOS_MUTEX */
 144:Core/Src/main.c ****   /* add mutexes, ... */
 145:Core/Src/main.c ****   /* USER CODE END RTOS_MUTEX */
 146:Core/Src/main.c **** 
 147:Core/Src/main.c ****   /* USER CODE BEGIN RTOS_SEMAPHORES */
ARM GAS  /var/folders/kr/g9ry2bg56g773797gdtkvvkw0000gn/T//ccYFTcCO.s 			page 4


 148:Core/Src/main.c ****   /* add semaphores, ... */
 149:Core/Src/main.c ****   /* USER CODE END RTOS_SEMAPHORES */
 150:Core/Src/main.c **** 
 151:Core/Src/main.c ****   /* USER CODE BEGIN RTOS_TIMERS */
 152:Core/Src/main.c ****   /* start timers, add new ones, ... */
 153:Core/Src/main.c ****   /* USER CODE END RTOS_TIMERS */
 154:Core/Src/main.c **** 
 155:Core/Src/main.c ****   /* USER CODE BEGIN RTOS_QUEUES */
 156:Core/Src/main.c ****   /* add queues, ... */
 157:Core/Src/main.c ****   /* USER CODE END RTOS_QUEUES */
 158:Core/Src/main.c **** 
 159:Core/Src/main.c ****   /* Create the thread(s) */
 160:Core/Src/main.c ****   // comment thread temprariely.
 161:Core/Src/main.c ****   /* creation of routerTask */
 162:Core/Src/main.c ****   routerTaskHandle = osThreadNew(StartRouterTask, NULL, &routerTask_attributes);
 163:Core/Src/main.c ****   /* creation of LEDTask */
 164:Core/Src/main.c ****   LEDTaskHandle = osThreadNew(StartLEDTask, NULL, &LEDTask_attributes);
 165:Core/Src/main.c ****   /* creation of UART Task */
 166:Core/Src/main.c ****   UARTTaskHandle = osThreadNew(StartParseUartTask, NULL, &UARTTask_attributes);
 167:Core/Src/main.c **** 
 168:Core/Src/main.c ****   /* USER CODE BEGIN RTOS_THREADS */
 169:Core/Src/main.c ****   /* add threads, ... */
 170:Core/Src/main.c ****   /* USER CODE END RTOS_THREADS */
 171:Core/Src/main.c **** 
 172:Core/Src/main.c ****   /* USER CODE BEGIN RTOS_EVENTS */
 173:Core/Src/main.c ****   /* add events, ... */
 174:Core/Src/main.c ****   /* USER CODE END RTOS_EVENTS */
 175:Core/Src/main.c **** 
 176:Core/Src/main.c ****   /* Start scheduler */
 177:Core/Src/main.c ****   osKernelStart();
 178:Core/Src/main.c **** 
 179:Core/Src/main.c ****   /* We should never get here as control is now taken by the scheduler */
 180:Core/Src/main.c **** 
 181:Core/Src/main.c ****   /* Infinite loop */
 182:Core/Src/main.c ****   /* USER CODE BEGIN WHILE */
 183:Core/Src/main.c ****   while (1)
 184:Core/Src/main.c ****   {
 185:Core/Src/main.c ****     /* USER CODE END WHILE */
 186:Core/Src/main.c **** 
 187:Core/Src/main.c ****     /* USER CODE BEGIN 3 */
 188:Core/Src/main.c ****   }
 189:Core/Src/main.c ****   /* USER CODE END 3 */
 190:Core/Src/main.c **** }
 191:Core/Src/main.c **** 
 192:Core/Src/main.c **** /**
 193:Core/Src/main.c ****   * @brief System Clock Configuration
 194:Core/Src/main.c ****   * @retval None
 195:Core/Src/main.c ****   */
 196:Core/Src/main.c **** void SystemClock_Config(void)
 197:Core/Src/main.c **** {
 198:Core/Src/main.c ****   RCC_OscInitTypeDef RCC_OscInitStruct = {0};
 199:Core/Src/main.c ****   RCC_ClkInitTypeDef RCC_ClkInitStruct = {0};
 200:Core/Src/main.c ****   RCC_PeriphCLKInitTypeDef PeriphClkInit = {0};
 201:Core/Src/main.c **** 
 202:Core/Src/main.c ****   /** Initializes the RCC Oscillators according to the specified parameters
 203:Core/Src/main.c ****   * in the RCC_OscInitTypeDef structure.
 204:Core/Src/main.c ****   */
ARM GAS  /var/folders/kr/g9ry2bg56g773797gdtkvvkw0000gn/T//ccYFTcCO.s 			page 5


 205:Core/Src/main.c ****   RCC_OscInitStruct.OscillatorType = RCC_OSCILLATORTYPE_HSI|RCC_OSCILLATORTYPE_HSI48;
 206:Core/Src/main.c ****   RCC_OscInitStruct.HSIState = RCC_HSI_ON;
 207:Core/Src/main.c ****   RCC_OscInitStruct.HSI48State = RCC_HSI48_ON;
 208:Core/Src/main.c ****   RCC_OscInitStruct.HSICalibrationValue = RCC_HSICALIBRATION_DEFAULT;
 209:Core/Src/main.c ****   RCC_OscInitStruct.PLL.PLLState = RCC_PLL_ON;
 210:Core/Src/main.c ****   RCC_OscInitStruct.PLL.PLLSource = RCC_PLLSOURCE_HSI;
 211:Core/Src/main.c ****   RCC_OscInitStruct.PLL.PLLMUL = RCC_PLL_MUL6;
 212:Core/Src/main.c ****   RCC_OscInitStruct.PLL.PREDIV = RCC_PREDIV_DIV1;
 213:Core/Src/main.c ****   if (HAL_RCC_OscConfig(&RCC_OscInitStruct) != HAL_OK)
 214:Core/Src/main.c ****   {
 215:Core/Src/main.c ****     Error_Handler();
 216:Core/Src/main.c ****   }
 217:Core/Src/main.c **** 
 218:Core/Src/main.c ****   /** Initializes the CPU, AHB and APB buses clocks
 219:Core/Src/main.c ****   */
 220:Core/Src/main.c ****   RCC_ClkInitStruct.ClockType = RCC_CLOCKTYPE_HCLK|RCC_CLOCKTYPE_SYSCLK
 221:Core/Src/main.c ****                               |RCC_CLOCKTYPE_PCLK1;
 222:Core/Src/main.c ****   RCC_ClkInitStruct.SYSCLKSource = RCC_SYSCLKSOURCE_PLLCLK;
 223:Core/Src/main.c ****   RCC_ClkInitStruct.AHBCLKDivider = RCC_SYSCLK_DIV1;
 224:Core/Src/main.c ****   RCC_ClkInitStruct.APB1CLKDivider = RCC_HCLK_DIV1;
 225:Core/Src/main.c **** 
 226:Core/Src/main.c ****   if (HAL_RCC_ClockConfig(&RCC_ClkInitStruct, FLASH_LATENCY_1) != HAL_OK)
 227:Core/Src/main.c ****   {
 228:Core/Src/main.c ****     Error_Handler();
 229:Core/Src/main.c ****   }
 230:Core/Src/main.c ****   PeriphClkInit.PeriphClockSelection = RCC_PERIPHCLK_USB;
 231:Core/Src/main.c ****   PeriphClkInit.UsbClockSelection = RCC_USBCLKSOURCE_HSI48;
 232:Core/Src/main.c **** 
 233:Core/Src/main.c ****   if (HAL_RCCEx_PeriphCLKConfig(&PeriphClkInit) != HAL_OK)
 234:Core/Src/main.c ****   {
 235:Core/Src/main.c ****     Error_Handler();
 236:Core/Src/main.c ****   }
 237:Core/Src/main.c **** }
 238:Core/Src/main.c **** 
 239:Core/Src/main.c **** /**
 240:Core/Src/main.c ****   * @brief I2C2 Initialization Function
 241:Core/Src/main.c ****   * @param None
 242:Core/Src/main.c ****   * @retval None
 243:Core/Src/main.c ****   */
 244:Core/Src/main.c **** static void MX_I2C2_Init(void)
 245:Core/Src/main.c **** {
 246:Core/Src/main.c **** 
 247:Core/Src/main.c ****   /* USER CODE BEGIN I2C2_Init 0 */
 248:Core/Src/main.c **** 
 249:Core/Src/main.c ****   /* USER CODE END I2C2_Init 0 */
 250:Core/Src/main.c **** 
 251:Core/Src/main.c ****   /* USER CODE BEGIN I2C2_Init 1 */
 252:Core/Src/main.c **** 
 253:Core/Src/main.c ****   /* USER CODE END I2C2_Init 1 */
 254:Core/Src/main.c ****   hi2c2.Instance = I2C2;
 255:Core/Src/main.c ****   hi2c2.Init.Timing = 0x20303E5D;
 256:Core/Src/main.c ****   hi2c2.Init.OwnAddress1 = 0;
 257:Core/Src/main.c ****   hi2c2.Init.AddressingMode = I2C_ADDRESSINGMODE_7BIT;
 258:Core/Src/main.c ****   hi2c2.Init.DualAddressMode = I2C_DUALADDRESS_DISABLE;
 259:Core/Src/main.c ****   hi2c2.Init.OwnAddress2 = 0;
 260:Core/Src/main.c ****   hi2c2.Init.OwnAddress2Masks = I2C_OA2_NOMASK;
 261:Core/Src/main.c ****   hi2c2.Init.GeneralCallMode = I2C_GENERALCALL_DISABLE;
ARM GAS  /var/folders/kr/g9ry2bg56g773797gdtkvvkw0000gn/T//ccYFTcCO.s 			page 6


 262:Core/Src/main.c ****   hi2c2.Init.NoStretchMode = I2C_NOSTRETCH_DISABLE;
 263:Core/Src/main.c ****   if (HAL_I2C_Init(&hi2c2) != HAL_OK)
 264:Core/Src/main.c ****   {
 265:Core/Src/main.c ****     Error_Handler();
 266:Core/Src/main.c ****   }
 267:Core/Src/main.c **** 
 268:Core/Src/main.c ****   /** Configure Analogue filter
 269:Core/Src/main.c ****   */
 270:Core/Src/main.c ****   if (HAL_I2CEx_ConfigAnalogFilter(&hi2c2, I2C_ANALOGFILTER_ENABLE) != HAL_OK)
 271:Core/Src/main.c ****   {
 272:Core/Src/main.c ****     Error_Handler();
 273:Core/Src/main.c ****   }
 274:Core/Src/main.c **** 
 275:Core/Src/main.c ****   /** Configure Digital filter
 276:Core/Src/main.c ****   */
 277:Core/Src/main.c ****   if (HAL_I2CEx_ConfigDigitalFilter(&hi2c2, 0) != HAL_OK)
 278:Core/Src/main.c ****   {
 279:Core/Src/main.c ****     Error_Handler();
 280:Core/Src/main.c ****   }
 281:Core/Src/main.c ****   /* USER CODE BEGIN I2C2_Init 2 */
 282:Core/Src/main.c **** 
 283:Core/Src/main.c ****   /* USER CODE END I2C2_Init 2 */
 284:Core/Src/main.c **** 
 285:Core/Src/main.c **** }
 286:Core/Src/main.c **** 
 287:Core/Src/main.c **** /**
 288:Core/Src/main.c ****   * @brief SPI2 Initialization Function
 289:Core/Src/main.c ****   * @param None
 290:Core/Src/main.c ****   * @retval None
 291:Core/Src/main.c ****   */
 292:Core/Src/main.c **** static void MX_SPI2_Init(void)
 293:Core/Src/main.c **** {
 294:Core/Src/main.c **** 
 295:Core/Src/main.c ****   /* USER CODE BEGIN SPI2_Init 0 */
 296:Core/Src/main.c **** 
 297:Core/Src/main.c ****   /* USER CODE END SPI2_Init 0 */
 298:Core/Src/main.c **** 
 299:Core/Src/main.c ****   /* USER CODE BEGIN SPI2_Init 1 */
 300:Core/Src/main.c **** 
 301:Core/Src/main.c ****   /* USER CODE END SPI2_Init 1 */
 302:Core/Src/main.c ****   /* SPI2 parameter configuration*/
 303:Core/Src/main.c ****   hspi2.Instance = SPI2;
 304:Core/Src/main.c ****   hspi2.Init.Mode = SPI_MODE_MASTER;
 305:Core/Src/main.c ****   hspi2.Init.Direction = SPI_DIRECTION_2LINES;
 306:Core/Src/main.c ****   hspi2.Init.DataSize = SPI_DATASIZE_4BIT;
 307:Core/Src/main.c ****   hspi2.Init.CLKPolarity = SPI_POLARITY_LOW;
 308:Core/Src/main.c ****   hspi2.Init.CLKPhase = SPI_PHASE_1EDGE;
 309:Core/Src/main.c ****   hspi2.Init.NSS = SPI_NSS_SOFT;
 310:Core/Src/main.c ****   hspi2.Init.BaudRatePrescaler = SPI_BAUDRATEPRESCALER_4;
 311:Core/Src/main.c ****   hspi2.Init.FirstBit = SPI_FIRSTBIT_MSB;
 312:Core/Src/main.c ****   hspi2.Init.TIMode = SPI_TIMODE_DISABLE;
 313:Core/Src/main.c ****   hspi2.Init.CRCCalculation = SPI_CRCCALCULATION_DISABLE;
 314:Core/Src/main.c ****   hspi2.Init.CRCPolynomial = 7;
 315:Core/Src/main.c ****   hspi2.Init.CRCLength = SPI_CRC_LENGTH_DATASIZE;
 316:Core/Src/main.c ****   hspi2.Init.NSSPMode = SPI_NSS_PULSE_ENABLE;
 317:Core/Src/main.c ****   if (HAL_SPI_Init(&hspi2) != HAL_OK)
 318:Core/Src/main.c ****   {
ARM GAS  /var/folders/kr/g9ry2bg56g773797gdtkvvkw0000gn/T//ccYFTcCO.s 			page 7


 319:Core/Src/main.c ****     Error_Handler();
 320:Core/Src/main.c ****   }
 321:Core/Src/main.c ****   /* USER CODE BEGIN SPI2_Init 2 */
 322:Core/Src/main.c **** 
 323:Core/Src/main.c ****   /* USER CODE END SPI2_Init 2 */
 324:Core/Src/main.c **** 
 325:Core/Src/main.c **** }
 326:Core/Src/main.c **** 
 327:Core/Src/main.c **** /**
 328:Core/Src/main.c ****   * @brief TSC Initialization Function
 329:Core/Src/main.c ****   * @param None
 330:Core/Src/main.c ****   * @retval None
 331:Core/Src/main.c ****   */
 332:Core/Src/main.c **** static void MX_TSC_Init(void)
 333:Core/Src/main.c **** {
 334:Core/Src/main.c **** 
 335:Core/Src/main.c ****   /* USER CODE BEGIN TSC_Init 0 */
 336:Core/Src/main.c **** 
 337:Core/Src/main.c ****   /* USER CODE END TSC_Init 0 */
 338:Core/Src/main.c **** 
 339:Core/Src/main.c ****   /* USER CODE BEGIN TSC_Init 1 */
 340:Core/Src/main.c **** 
 341:Core/Src/main.c ****   /* USER CODE END TSC_Init 1 */
 342:Core/Src/main.c **** 
 343:Core/Src/main.c ****   /** Configure the TSC peripheral
 344:Core/Src/main.c ****   */
 345:Core/Src/main.c ****   htsc.Instance = TSC;
 346:Core/Src/main.c ****   htsc.Init.CTPulseHighLength = TSC_CTPH_2CYCLES;
 347:Core/Src/main.c ****   htsc.Init.CTPulseLowLength = TSC_CTPL_2CYCLES;
 348:Core/Src/main.c ****   htsc.Init.SpreadSpectrum = DISABLE;
 349:Core/Src/main.c ****   htsc.Init.SpreadSpectrumDeviation = 1;
 350:Core/Src/main.c ****   htsc.Init.SpreadSpectrumPrescaler = TSC_SS_PRESC_DIV1;
 351:Core/Src/main.c ****   htsc.Init.PulseGeneratorPrescaler = TSC_PG_PRESC_DIV4;
 352:Core/Src/main.c ****   htsc.Init.MaxCountValue = TSC_MCV_8191;
 353:Core/Src/main.c ****   htsc.Init.IODefaultMode = TSC_IODEF_OUT_PP_LOW;
 354:Core/Src/main.c ****   htsc.Init.SynchroPinPolarity = TSC_SYNC_POLARITY_FALLING;
 355:Core/Src/main.c ****   htsc.Init.AcquisitionMode = TSC_ACQ_MODE_NORMAL;
 356:Core/Src/main.c ****   htsc.Init.MaxCountInterrupt = DISABLE;
 357:Core/Src/main.c ****   htsc.Init.ChannelIOs = TSC_GROUP1_IO3|TSC_GROUP2_IO3|TSC_GROUP3_IO2;
 358:Core/Src/main.c ****   htsc.Init.ShieldIOs = 0;
 359:Core/Src/main.c ****   htsc.Init.SamplingIOs = TSC_GROUP1_IO4|TSC_GROUP2_IO4|TSC_GROUP3_IO3;
 360:Core/Src/main.c ****   if (HAL_TSC_Init(&htsc) != HAL_OK)
 361:Core/Src/main.c ****   {
 362:Core/Src/main.c ****     Error_Handler();
 363:Core/Src/main.c ****   }
 364:Core/Src/main.c ****   /* USER CODE BEGIN TSC_Init 2 */
 365:Core/Src/main.c **** 
 366:Core/Src/main.c ****   /* USER CODE END TSC_Init 2 */
 367:Core/Src/main.c **** 
 368:Core/Src/main.c **** }
 369:Core/Src/main.c **** 
 370:Core/Src/main.c **** /**
 371:Core/Src/main.c ****   * @brief USB Initialization Function
 372:Core/Src/main.c ****   * @param None
 373:Core/Src/main.c ****   * @retval None
 374:Core/Src/main.c ****   */
 375:Core/Src/main.c **** static void MX_USB_PCD_Init(void)
ARM GAS  /var/folders/kr/g9ry2bg56g773797gdtkvvkw0000gn/T//ccYFTcCO.s 			page 8


 376:Core/Src/main.c **** {
 377:Core/Src/main.c **** 
 378:Core/Src/main.c ****   /* USER CODE BEGIN USB_Init 0 */
 379:Core/Src/main.c **** 
 380:Core/Src/main.c ****   /* USER CODE END USB_Init 0 */
 381:Core/Src/main.c **** 
 382:Core/Src/main.c ****   /* USER CODE BEGIN USB_Init 1 */
 383:Core/Src/main.c **** 
 384:Core/Src/main.c ****   /* USER CODE END USB_Init 1 */
 385:Core/Src/main.c ****   hpcd_USB_FS.Instance = USB;
 386:Core/Src/main.c ****   hpcd_USB_FS.Init.dev_endpoints = 8;
 387:Core/Src/main.c ****   hpcd_USB_FS.Init.speed = PCD_SPEED_FULL;
 388:Core/Src/main.c ****   hpcd_USB_FS.Init.phy_itface = PCD_PHY_EMBEDDED;
 389:Core/Src/main.c ****   hpcd_USB_FS.Init.low_power_enable = DISABLE;
 390:Core/Src/main.c ****   hpcd_USB_FS.Init.lpm_enable = DISABLE;
 391:Core/Src/main.c ****   hpcd_USB_FS.Init.battery_charging_enable = DISABLE;
 392:Core/Src/main.c ****   if (HAL_PCD_Init(&hpcd_USB_FS) != HAL_OK)
 393:Core/Src/main.c ****   {
 394:Core/Src/main.c ****     Error_Handler();
 395:Core/Src/main.c ****   }
 396:Core/Src/main.c ****   /* USER CODE BEGIN USB_Init 2 */
 397:Core/Src/main.c **** 
 398:Core/Src/main.c ****   /* USER CODE END USB_Init 2 */
 399:Core/Src/main.c **** 
 400:Core/Src/main.c **** }
 401:Core/Src/main.c **** 
 402:Core/Src/main.c **** /**
 403:Core/Src/main.c ****   * @brief GPIO Initialization Function
 404:Core/Src/main.c ****   * @param None
 405:Core/Src/main.c ****   * @retval None
 406:Core/Src/main.c ****   */
 407:Core/Src/main.c **** static void MX_GPIO_Init(void)
 408:Core/Src/main.c **** {
  26              		.loc 1 408 1 view -0
  27              		.cfi_startproc
  28              		@ args = 0, pretend = 0, frame = 32
  29              		@ frame_needed = 0, uses_anonymous_args = 0
  30 0000 F0B5     		push	{r4, r5, r6, r7, lr}
  31              	.LCFI0:
  32              		.cfi_def_cfa_offset 20
  33              		.cfi_offset 4, -20
  34              		.cfi_offset 5, -16
  35              		.cfi_offset 6, -12
  36              		.cfi_offset 7, -8
  37              		.cfi_offset 14, -4
  38 0002 89B0     		sub	sp, sp, #36
  39              	.LCFI1:
  40              		.cfi_def_cfa_offset 56
 409:Core/Src/main.c ****   GPIO_InitTypeDef GPIO_InitStruct = {0};
  41              		.loc 1 409 3 view .LVU1
  42              		.loc 1 409 20 is_stmt 0 view .LVU2
  43 0004 1422     		movs	r2, #20
  44 0006 0021     		movs	r1, #0
  45 0008 03A8     		add	r0, sp, #12
  46 000a FFF7FEFF 		bl	memset
  47              	.LVL0:
 410:Core/Src/main.c **** /* USER CODE BEGIN MX_GPIO_Init_1 */
ARM GAS  /var/folders/kr/g9ry2bg56g773797gdtkvvkw0000gn/T//ccYFTcCO.s 			page 9


 411:Core/Src/main.c **** /* USER CODE END MX_GPIO_Init_1 */
 412:Core/Src/main.c **** 
 413:Core/Src/main.c ****   /* GPIO Ports Clock Enable */
 414:Core/Src/main.c ****   __HAL_RCC_GPIOC_CLK_ENABLE();
  48              		.loc 1 414 3 is_stmt 1 view .LVU3
  49              	.LBB4:
  50              		.loc 1 414 3 view .LVU4
  51              		.loc 1 414 3 view .LVU5
  52 000e 204B     		ldr	r3, .L2
  53 0010 5A69     		ldr	r2, [r3, #20]
  54 0012 8021     		movs	r1, #128
  55 0014 0903     		lsls	r1, r1, #12
  56 0016 0A43     		orrs	r2, r1
  57 0018 5A61     		str	r2, [r3, #20]
  58              		.loc 1 414 3 view .LVU6
  59 001a 5A69     		ldr	r2, [r3, #20]
  60 001c 0A40     		ands	r2, r1
  61 001e 0092     		str	r2, [sp]
  62              		.loc 1 414 3 view .LVU7
  63 0020 009A     		ldr	r2, [sp]
  64              	.LBE4:
  65              		.loc 1 414 3 view .LVU8
 415:Core/Src/main.c ****   __HAL_RCC_GPIOA_CLK_ENABLE();
  66              		.loc 1 415 3 view .LVU9
  67              	.LBB5:
  68              		.loc 1 415 3 view .LVU10
  69              		.loc 1 415 3 view .LVU11
  70 0022 5A69     		ldr	r2, [r3, #20]
  71 0024 8021     		movs	r1, #128
  72 0026 8902     		lsls	r1, r1, #10
  73 0028 0A43     		orrs	r2, r1
  74 002a 5A61     		str	r2, [r3, #20]
  75              		.loc 1 415 3 view .LVU12
  76 002c 5A69     		ldr	r2, [r3, #20]
  77 002e 0A40     		ands	r2, r1
  78 0030 0192     		str	r2, [sp, #4]
  79              		.loc 1 415 3 view .LVU13
  80 0032 019A     		ldr	r2, [sp, #4]
  81              	.LBE5:
  82              		.loc 1 415 3 view .LVU14
 416:Core/Src/main.c ****   __HAL_RCC_GPIOB_CLK_ENABLE();
  83              		.loc 1 416 3 view .LVU15
  84              	.LBB6:
  85              		.loc 1 416 3 view .LVU16
  86              		.loc 1 416 3 view .LVU17
  87 0034 5A69     		ldr	r2, [r3, #20]
  88 0036 8021     		movs	r1, #128
  89 0038 C902     		lsls	r1, r1, #11
  90 003a 0A43     		orrs	r2, r1
  91 003c 5A61     		str	r2, [r3, #20]
  92              		.loc 1 416 3 view .LVU18
  93 003e 5B69     		ldr	r3, [r3, #20]
  94 0040 0B40     		ands	r3, r1
  95 0042 0293     		str	r3, [sp, #8]
  96              		.loc 1 416 3 view .LVU19
  97 0044 029B     		ldr	r3, [sp, #8]
  98              	.LBE6:
ARM GAS  /var/folders/kr/g9ry2bg56g773797gdtkvvkw0000gn/T//ccYFTcCO.s 			page 10


  99              		.loc 1 416 3 view .LVU20
 417:Core/Src/main.c **** 
 418:Core/Src/main.c ****   /*Configure GPIO pin Output Level */
 419:Core/Src/main.c ****   HAL_GPIO_WritePin(GPIOC, NCS_MEMS_SPI_Pin|EXT_RESET_Pin|LD3_Pin|LD6_Pin
 100              		.loc 1 419 3 view .LVU21
 101 0046 134C     		ldr	r4, .L2+4
 102 0048 134D     		ldr	r5, .L2+8
 103 004a 0022     		movs	r2, #0
 104 004c 2100     		movs	r1, r4
 105 004e 2800     		movs	r0, r5
 106 0050 FFF7FEFF 		bl	HAL_GPIO_WritePin
 107              	.LVL1:
 420:Core/Src/main.c ****                           |LD4_Pin|LD5_Pin, GPIO_PIN_RESET);
 421:Core/Src/main.c **** 
 422:Core/Src/main.c ****   /*Configure GPIO pins : NCS_MEMS_SPI_Pin EXT_RESET_Pin LD3_Pin LD6_Pin
 423:Core/Src/main.c ****                            LD4_Pin LD5_Pin */
 424:Core/Src/main.c ****   GPIO_InitStruct.Pin = NCS_MEMS_SPI_Pin|EXT_RESET_Pin|LD3_Pin|LD6_Pin
 108              		.loc 1 424 3 view .LVU22
 109              		.loc 1 424 23 is_stmt 0 view .LVU23
 110 0054 0394     		str	r4, [sp, #12]
 425:Core/Src/main.c ****                           |LD4_Pin|LD5_Pin;
 426:Core/Src/main.c ****   GPIO_InitStruct.Mode = GPIO_MODE_OUTPUT_PP;
 111              		.loc 1 426 3 is_stmt 1 view .LVU24
 112              		.loc 1 426 24 is_stmt 0 view .LVU25
 113 0056 0127     		movs	r7, #1
 114 0058 0497     		str	r7, [sp, #16]
 427:Core/Src/main.c ****   GPIO_InitStruct.Pull = GPIO_NOPULL;
 115              		.loc 1 427 3 is_stmt 1 view .LVU26
 116              		.loc 1 427 24 is_stmt 0 view .LVU27
 117 005a 0024     		movs	r4, #0
 118 005c 0594     		str	r4, [sp, #20]
 428:Core/Src/main.c ****   GPIO_InitStruct.Speed = GPIO_SPEED_FREQ_LOW;
 119              		.loc 1 428 3 is_stmt 1 view .LVU28
 120              		.loc 1 428 25 is_stmt 0 view .LVU29
 121 005e 0694     		str	r4, [sp, #24]
 429:Core/Src/main.c ****   HAL_GPIO_Init(GPIOC, &GPIO_InitStruct);
 122              		.loc 1 429 3 is_stmt 1 view .LVU30
 123 0060 03A9     		add	r1, sp, #12
 124 0062 2800     		movs	r0, r5
 125 0064 FFF7FEFF 		bl	HAL_GPIO_Init
 126              	.LVL2:
 430:Core/Src/main.c **** 
 431:Core/Src/main.c ****   /*Configure GPIO pins : MEMS_INT1_Pin MEMS_INT2_Pin */
 432:Core/Src/main.c ****   GPIO_InitStruct.Pin = MEMS_INT1_Pin|MEMS_INT2_Pin;
 127              		.loc 1 432 3 view .LVU31
 128              		.loc 1 432 23 is_stmt 0 view .LVU32
 129 0068 0623     		movs	r3, #6
 130 006a 0393     		str	r3, [sp, #12]
 433:Core/Src/main.c ****   GPIO_InitStruct.Mode = GPIO_MODE_EVT_RISING;
 131              		.loc 1 433 3 is_stmt 1 view .LVU33
 132              		.loc 1 433 24 is_stmt 0 view .LVU34
 133 006c 9026     		movs	r6, #144
 134 006e 7603     		lsls	r6, r6, #13
 135 0070 0496     		str	r6, [sp, #16]
 434:Core/Src/main.c ****   GPIO_InitStruct.Pull = GPIO_NOPULL;
 136              		.loc 1 434 3 is_stmt 1 view .LVU35
 137              		.loc 1 434 24 is_stmt 0 view .LVU36
ARM GAS  /var/folders/kr/g9ry2bg56g773797gdtkvvkw0000gn/T//ccYFTcCO.s 			page 11


 138 0072 0594     		str	r4, [sp, #20]
 435:Core/Src/main.c ****   HAL_GPIO_Init(GPIOC, &GPIO_InitStruct);
 139              		.loc 1 435 3 is_stmt 1 view .LVU37
 140 0074 03A9     		add	r1, sp, #12
 141 0076 2800     		movs	r0, r5
 142 0078 FFF7FEFF 		bl	HAL_GPIO_Init
 143              	.LVL3:
 436:Core/Src/main.c **** 
 437:Core/Src/main.c ****   /*Configure GPIO pin : B1_Pin */
 438:Core/Src/main.c ****   GPIO_InitStruct.Pin = B1_Pin;
 144              		.loc 1 438 3 view .LVU38
 145              		.loc 1 438 23 is_stmt 0 view .LVU39
 146 007c 0397     		str	r7, [sp, #12]
 439:Core/Src/main.c ****   GPIO_InitStruct.Mode = GPIO_MODE_EVT_RISING;
 147              		.loc 1 439 3 is_stmt 1 view .LVU40
 148              		.loc 1 439 24 is_stmt 0 view .LVU41
 149 007e 0496     		str	r6, [sp, #16]
 440:Core/Src/main.c ****   GPIO_InitStruct.Pull = GPIO_NOPULL;
 150              		.loc 1 440 3 is_stmt 1 view .LVU42
 151              		.loc 1 440 24 is_stmt 0 view .LVU43
 152 0080 0594     		str	r4, [sp, #20]
 441:Core/Src/main.c ****   HAL_GPIO_Init(B1_GPIO_Port, &GPIO_InitStruct);
 153              		.loc 1 441 3 is_stmt 1 view .LVU44
 154 0082 9020     		movs	r0, #144
 155 0084 03A9     		add	r1, sp, #12
 156 0086 C005     		lsls	r0, r0, #23
 157 0088 FFF7FEFF 		bl	HAL_GPIO_Init
 158              	.LVL4:
 442:Core/Src/main.c **** 
 443:Core/Src/main.c **** /* USER CODE BEGIN MX_GPIO_Init_2 */
 444:Core/Src/main.c **** /* USER CODE END MX_GPIO_Init_2 */
 445:Core/Src/main.c **** }
 159              		.loc 1 445 1 is_stmt 0 view .LVU45
 160 008c 09B0     		add	sp, sp, #36
 161              		@ sp needed
 162 008e F0BD     		pop	{r4, r5, r6, r7, pc}
 163              	.L3:
 164              		.align	2
 165              	.L2:
 166 0090 00100240 		.word	1073876992
 167 0094 E1030000 		.word	993
 168 0098 00080048 		.word	1207961600
 169              		.cfi_endproc
 170              	.LFE49:
 172              		.section	.text.StartRouterTask,"ax",%progbits
 173              		.align	1
 174              		.global	StartRouterTask
 175              		.syntax unified
 176              		.code	16
 177              		.thumb_func
 179              	StartRouterTask:
 180              	.LFB50:
 446:Core/Src/main.c **** 
 447:Core/Src/main.c **** /* USER CODE BEGIN 4 */
 448:Core/Src/main.c **** 
 449:Core/Src/main.c **** /* USER CODE END 4 */
 450:Core/Src/main.c **** 
ARM GAS  /var/folders/kr/g9ry2bg56g773797gdtkvvkw0000gn/T//ccYFTcCO.s 			page 12


 451:Core/Src/main.c **** //New branch
 452:Core/Src/main.c **** 
 453:Core/Src/main.c **** /* USER CODE BEGIN Header_StartRouterTask */
 454:Core/Src/main.c **** /**
 455:Core/Src/main.c ****   * @brief  Function implementing the routerTask thread.
 456:Core/Src/main.c ****   * @param  argument: Not used
 457:Core/Src/main.c ****   * @retval None
 458:Core/Src/main.c ****   */
 459:Core/Src/main.c **** /* USER CODE END Header_StartRouterTask */
 460:Core/Src/main.c **** void StartRouterTask(void *argument)
 461:Core/Src/main.c **** { 
 181              		.loc 1 461 1 is_stmt 1 view -0
 182              		.cfi_startproc
 183              		@ args = 0, pretend = 0, frame = 0
 184              		@ frame_needed = 0, uses_anonymous_args = 0
 185              	.LVL5:
 186              		.loc 1 461 1 is_stmt 0 view .LVU47
 187 0000 10B5     		push	{r4, lr}
 188              	.LCFI2:
 189              		.cfi_def_cfa_offset 8
 190              		.cfi_offset 4, -8
 191              		.cfi_offset 14, -4
 192 0002 01E0     		b	.L6
 193              	.LVL6:
 194              	.L7:
 462:Core/Src/main.c ****   //Global command queue
 463:Core/Src/main.c ****   extern Cmd_Queue * cmdQueue;
 464:Core/Src/main.c ****   //Global variables to pass command to worker threads
 465:Core/Src/main.c ****   extern volatile uint16_t commandLED;
 466:Core/Src/main.c ****   extern volatile uint16_t commandMotor;
 467:Core/Src/main.c ****   //Command popped from queue
 468:Core/Src/main.c ****   uint16_t commandIn = 0;
 469:Core/Src/main.c ****   /* Infinite loop */
 470:Core/Src/main.c ****   //uint16_t item = queuePop(cmdQueue);
 471:Core/Src/main.c ****   
 472:Core/Src/main.c ****   for(;;)
 473:Core/Src/main.c ****   {
 474:Core/Src/main.c ****     //If queue is not empty
 475:Core/Src/main.c ****     if (!isQueueEmpty(cmdQueue)) {
 476:Core/Src/main.c ****       //Placeholder for task priorities
 477:Core/Src/main.c ****       osDelay(1);
 478:Core/Src/main.c ****       //Retrieve command from queue
 479:Core/Src/main.c ****       commandIn = queuePop(cmdQueue);
 480:Core/Src/main.c ****       //Determine which worker task corresponds to command
 481:Core/Src/main.c ****         switch (commandIn & 0xF000) {
 482:Core/Src/main.c ****         //LED command
 483:Core/Src/main.c ****         case 0xA000:
 484:Core/Src/main.c ****           commandLED = commandIn;
 195              		.loc 1 484 11 is_stmt 1 view .LVU48
 196              		.loc 1 484 22 is_stmt 0 view .LVU49
 197 0004 0E4B     		ldr	r3, .L11
 198 0006 1880     		strh	r0, [r3]
 485:Core/Src/main.c ****           break;
 199              		.loc 1 485 11 is_stmt 1 view .LVU50
 200              	.LVL7:
 201              	.L6:
 472:Core/Src/main.c ****   {
ARM GAS  /var/folders/kr/g9ry2bg56g773797gdtkvvkw0000gn/T//ccYFTcCO.s 			page 13


 202              		.loc 1 472 3 view .LVU51
 475:Core/Src/main.c ****       //Placeholder for task priorities
 203              		.loc 1 475 5 view .LVU52
 475:Core/Src/main.c ****       //Placeholder for task priorities
 204              		.loc 1 475 10 is_stmt 0 view .LVU53
 205 0008 0E4B     		ldr	r3, .L11+4
 206 000a 1868     		ldr	r0, [r3]
 207 000c FFF7FEFF 		bl	isQueueEmpty
 208              	.LVL8:
 475:Core/Src/main.c ****       //Placeholder for task priorities
 209              		.loc 1 475 8 discriminator 1 view .LVU54
 210 0010 0028     		cmp	r0, #0
 211 0012 F9D1     		bne	.L6
 477:Core/Src/main.c ****       //Retrieve command from queue
 212              		.loc 1 477 7 is_stmt 1 view .LVU55
 213 0014 0130     		adds	r0, r0, #1
 214 0016 FFF7FEFF 		bl	osDelay
 215              	.LVL9:
 479:Core/Src/main.c ****       //Determine which worker task corresponds to command
 216              		.loc 1 479 7 view .LVU56
 479:Core/Src/main.c ****       //Determine which worker task corresponds to command
 217              		.loc 1 479 19 is_stmt 0 view .LVU57
 218 001a 0A4B     		ldr	r3, .L11+4
 219 001c 1868     		ldr	r0, [r3]
 220 001e FFF7FEFF 		bl	queuePop
 221              	.LVL10:
 481:Core/Src/main.c ****         //LED command
 222              		.loc 1 481 9 is_stmt 1 view .LVU58
 223 0022 030B     		lsrs	r3, r0, #12
 224 0024 1B03     		lsls	r3, r3, #12
 225 0026 9BB2     		uxth	r3, r3
 226 0028 A022     		movs	r2, #160
 227 002a 1202     		lsls	r2, r2, #8
 228 002c 9342     		cmp	r3, r2
 229 002e E9D0     		beq	.L7
 230 0030 B022     		movs	r2, #176
 231 0032 1202     		lsls	r2, r2, #8
 232 0034 9342     		cmp	r3, r2
 233 0036 E7D1     		bne	.L6
 486:Core/Src/main.c ****         //Motor command
 487:Core/Src/main.c ****         case 0xB000:
 488:Core/Src/main.c ****           commandMotor = commandIn;
 234              		.loc 1 488 11 view .LVU59
 235              		.loc 1 488 24 is_stmt 0 view .LVU60
 236 0038 034B     		ldr	r3, .L11+8
 237 003a 1880     		strh	r0, [r3]
 489:Core/Src/main.c ****           break;
 238              		.loc 1 489 11 is_stmt 1 view .LVU61
 239 003c E4E7     		b	.L6
 240              	.L12:
 241 003e C046     		.align	2
 242              	.L11:
 243 0040 00000000 		.word	commandLED
 244 0044 00000000 		.word	cmdQueue
 245 0048 00000000 		.word	commandMotor
 246              		.cfi_endproc
 247              	.LFE50:
ARM GAS  /var/folders/kr/g9ry2bg56g773797gdtkvvkw0000gn/T//ccYFTcCO.s 			page 14


 249              		.section	.text.StartLEDTask,"ax",%progbits
 250              		.align	1
 251              		.global	StartLEDTask
 252              		.syntax unified
 253              		.code	16
 254              		.thumb_func
 256              	StartLEDTask:
 257              	.LVL11:
 258              	.LFB52:
 490:Core/Src/main.c ****         default:
 491:Core/Src/main.c ****         break;
 492:Core/Src/main.c ****       }
 493:Core/Src/main.c ****     }
 494:Core/Src/main.c ****   }
 495:Core/Src/main.c **** }
 496:Core/Src/main.c ****   /* USER CODE END 5 */
 497:Core/Src/main.c **** 
 498:Core/Src/main.c **** void initLEDs(void) {
 499:Core/Src/main.c **** 	// red LED PC6, blue LED (PC7), green LED PC9, orange LED PC8
 500:Core/Src/main.c ****   RCC->AHBENR |= RCC_AHBENR_GPIOCEN; // Enable peripheral clock to PC
 501:Core/Src/main.c ****   // set the MODER, 01: General purpose output mode
 502:Core/Src/main.c **** 	// init PC6 MODER
 503:Core/Src/main.c **** 	GPIOC->MODER |= (1 << 12);
 504:Core/Src/main.c **** 	GPIOC->MODER &= ~(1 << 13);
 505:Core/Src/main.c ****     // init PC7 MODER
 506:Core/Src/main.c **** 	GPIOC->MODER |= (1 << 14);
 507:Core/Src/main.c **** 	GPIOC->MODER &= ~(1 << 15);
 508:Core/Src/main.c **** 	// init PC8 MODER
 509:Core/Src/main.c **** 	GPIOC->MODER |= (1 << 16);
 510:Core/Src/main.c **** 	GPIOC->MODER &= ~(1 << 17);
 511:Core/Src/main.c **** 	// init PC9 MODER
 512:Core/Src/main.c **** 	GPIOC->MODER |= (1 << 18);
 513:Core/Src/main.c **** 	GPIOC->MODER &= ~(1 << 19);
 514:Core/Src/main.c ****   // Set the pins to low speed in the OSPEEDR register
 515:Core/Src/main.c **** 	GPIOC->OSPEEDR &= ~((1 << 12) | (1 << 13));
 516:Core/Src/main.c **** 	GPIOC->OSPEEDR &= ~((1 << 14) | (1 << 15));
 517:Core/Src/main.c **** 	GPIOC->OSPEEDR &= ~((1 << 16) | (1 << 17));
 518:Core/Src/main.c **** 	GPIOC->OSPEEDR &= ~((1 << 18) | (1 << 19));
 519:Core/Src/main.c **** 
 520:Core/Src/main.c **** 	// Set LED to no pull-up/down resistors in the PUPDR register
 521:Core/Src/main.c **** 	// 00: No pull-up, pull-down
 522:Core/Src/main.c **** 	GPIOC->PUPDR &= ~((1 << 16) | (1 << 17) | (1 << 18) | (1 << 19));
 523:Core/Src/main.c **** 	GPIOC->PUPDR &= ~((1 << 12) | (1 << 13) | (1 << 14) | (1 << 15));
 524:Core/Src/main.c **** 	// set PC6-9 to 0
 525:Core/Src/main.c **** 	GPIOC->ODR &= ~(1 << 6);
 526:Core/Src/main.c **** 	GPIOC->ODR &= ~(1 << 7);
 527:Core/Src/main.c **** 	GPIOC->ODR &= ~(1 << 8);
 528:Core/Src/main.c **** 	GPIOC->ODR &= ~(1 << 9);
 529:Core/Src/main.c **** }
 530:Core/Src/main.c **** 
 531:Core/Src/main.c **** /* USER CODE BEGIN Header_StartLEDTask */
 532:Core/Src/main.c **** /**
 533:Core/Src/main.c ****   * @brief  Function implementing the LEDTask thread.
 534:Core/Src/main.c ****   * @param  argument: Not used
 535:Core/Src/main.c ****   * @retval None
 536:Core/Src/main.c ****   */
 537:Core/Src/main.c **** /* USER CODE END Header_StartLEDTask */
ARM GAS  /var/folders/kr/g9ry2bg56g773797gdtkvvkw0000gn/T//ccYFTcCO.s 			page 15


 538:Core/Src/main.c **** void StartLEDTask(void *argument)
 539:Core/Src/main.c **** {
 259              		.loc 1 539 1 view -0
 260              		.cfi_startproc
 261              		@ Volatile: function does not return.
 262              		@ args = 0, pretend = 0, frame = 16
 263              		@ frame_needed = 0, uses_anonymous_args = 0
 264              		.loc 1 539 1 is_stmt 0 view .LVU63
 265 0000 00B5     		push	{lr}
 266              	.LCFI3:
 267              		.cfi_def_cfa_offset 4
 268              		.cfi_offset 14, -4
 269 0002 85B0     		sub	sp, sp, #20
 270              	.LCFI4:
 271              		.cfi_def_cfa_offset 24
 540:Core/Src/main.c ****   binarySem03LEDWorkerHandle = osSemaphoreNew(1, 1, NULL);
 272              		.loc 1 540 3 is_stmt 1 view .LVU64
 273              		.loc 1 540 32 is_stmt 0 view .LVU65
 274 0004 0022     		movs	r2, #0
 275 0006 0121     		movs	r1, #1
 276 0008 0120     		movs	r0, #1
 277              	.LVL12:
 278              		.loc 1 540 32 view .LVU66
 279 000a FFF7FEFF 		bl	osSemaphoreNew
 280              	.LVL13:
 281              		.loc 1 540 30 discriminator 1 view .LVU67
 282 000e 3A4B     		ldr	r3, .L27
 283 0010 1860     		str	r0, [r3]
 541:Core/Src/main.c **** 
 542:Core/Src/main.c ****   extern volatile uint16_t commandLED;
 284              		.loc 1 542 3 is_stmt 1 view .LVU68
 543:Core/Src/main.c ****   //command 0xA-color-action-unused
 544:Core/Src/main.c ****   volatile uint32_t color;
 285              		.loc 1 544 3 view .LVU69
 545:Core/Src/main.c ****   volatile uint8_t blink[4] = {0,0,0,0};
 286              		.loc 1 545 3 view .LVU70
 287              		.loc 1 545 20 is_stmt 0 view .LVU71
 288 0012 0023     		movs	r3, #0
 289 0014 0293     		str	r3, [sp, #8]
 546:Core/Src/main.c ****   uint16_t blinkTicks[4] = {0,0,0,0};
 290              		.loc 1 546 3 is_stmt 1 view .LVU72
 291              		.loc 1 546 12 is_stmt 0 view .LVU73
 292 0016 0822     		movs	r2, #8
 293 0018 0021     		movs	r1, #0
 294 001a 6846     		mov	r0, sp
 295 001c FFF7FEFF 		bl	memset
 296              	.LVL14:
 297 0020 47E0     		b	.L26
 298              	.L15:
 547:Core/Src/main.c **** 
 548:Core/Src/main.c ****   /* Infinite loop */
 549:Core/Src/main.c ****   for(;;)
 550:Core/Src/main.c ****   {
 551:Core/Src/main.c ****     osSemaphoreAcquire(binarySem03LEDWorkerHandle, osWaitForever);
 552:Core/Src/main.c ****     switch (commandLED & 0x0F00) {    
 299              		.loc 1 552 5 view .LVU74
 300 0022 8022     		movs	r2, #128
ARM GAS  /var/folders/kr/g9ry2bg56g773797gdtkvvkw0000gn/T//ccYFTcCO.s 			page 16


 301 0024 D200     		lsls	r2, r2, #3
 302 0026 9342     		cmp	r3, r2
 303 0028 05D1     		bne	.L18
 553:Core/Src/main.c ****       //Red LED - PC6
 554:Core/Src/main.c ****       case 0x0100:  
 555:Core/Src/main.c ****         color = GPIO_ODR_6;
 556:Core/Src/main.c ****         break;
 557:Core/Src/main.c ****       //Green LED - PC9
 558:Core/Src/main.c ****       case 0x0200:
 559:Core/Src/main.c ****         color = GPIO_ODR_9;
 560:Core/Src/main.c ****         break;
 561:Core/Src/main.c ****       //Blue LED - PC7  
 562:Core/Src/main.c ****       case 0x0300:
 563:Core/Src/main.c ****         color = GPIO_ODR_7;
 564:Core/Src/main.c ****         break;
 565:Core/Src/main.c ****       //Orange LED - PC8
 566:Core/Src/main.c ****       case 0x0400:
 567:Core/Src/main.c ****         color = GPIO_ODR_8;
 304              		.loc 1 567 9 is_stmt 1 view .LVU75
 305              		.loc 1 567 15 is_stmt 0 view .LVU76
 306 002a 8023     		movs	r3, #128
 307 002c 5B00     		lsls	r3, r3, #1
 308 002e 0393     		str	r3, [sp, #12]
 568:Core/Src/main.c ****         break;
 309              		.loc 1 568 9 is_stmt 1 view .LVU77
 310 0030 01E0     		b	.L18
 311              	.L16:
 555:Core/Src/main.c ****         break;
 312              		.loc 1 555 9 view .LVU78
 555:Core/Src/main.c ****         break;
 313              		.loc 1 555 15 is_stmt 0 view .LVU79
 314 0032 4023     		movs	r3, #64
 315 0034 0393     		str	r3, [sp, #12]
 556:Core/Src/main.c ****       //Green LED - PC9
 316              		.loc 1 556 9 is_stmt 1 view .LVU80
 317              	.L18:
 569:Core/Src/main.c ****       default:
 570:Core/Src/main.c ****     }
 571:Core/Src/main.c **** 
 572:Core/Src/main.c ****     switch (commandLED & 0x00F0) {
 318              		.loc 1 572 5 view .LVU81
 319              		.loc 1 572 24 is_stmt 0 view .LVU82
 320 0036 314B     		ldr	r3, .L27+4
 321 0038 1B88     		ldrh	r3, [r3]
 322 003a F022     		movs	r2, #240
 323 003c 1340     		ands	r3, r2
 324              		.loc 1 572 5 view .LVU83
 325 003e 302B     		cmp	r3, #48
 326 0040 53D0     		beq	.L20
 327 0042 15D8     		bhi	.L21
 328 0044 102B     		cmp	r3, #16
 329 0046 1FD0     		beq	.L22
 330 0048 202B     		cmp	r3, #32
 331 004a 2BD1     		bne	.L24
 573:Core/Src/main.c ****       case 0x0010:
 574:Core/Src/main.c ****         GPIOC->ODR |= color;
 575:Core/Src/main.c ****         blink[(((commandLED & 0x0F00) >> 8)-1)] = 0;
ARM GAS  /var/folders/kr/g9ry2bg56g773797gdtkvvkw0000gn/T//ccYFTcCO.s 			page 17


 576:Core/Src/main.c ****         break;
 577:Core/Src/main.c ****       case 0x0020:
 578:Core/Src/main.c ****         GPIOC->ODR &= ~color;
 332              		.loc 1 578 9 is_stmt 1 view .LVU84
 333              		.loc 1 578 23 is_stmt 0 view .LVU85
 334 004c 0399     		ldr	r1, [sp, #12]
 335              		.loc 1 578 14 view .LVU86
 336 004e 2C4A     		ldr	r2, .L27+8
 337 0050 5369     		ldr	r3, [r2, #20]
 338              		.loc 1 578 20 view .LVU87
 339 0052 8B43     		bics	r3, r1
 340 0054 5361     		str	r3, [r2, #20]
 579:Core/Src/main.c ****         blink[(((commandLED & 0x0F00) >> 8)-1)] = 0;
 341              		.loc 1 579 9 is_stmt 1 view .LVU88
 342              		.loc 1 579 39 is_stmt 0 view .LVU89
 343 0056 294B     		ldr	r3, .L27+4
 344 0058 1A88     		ldrh	r2, [r3]
 345 005a 120A     		lsrs	r2, r2, #8
 346 005c 0F23     		movs	r3, #15
 347 005e 1340     		ands	r3, r2
 348              		.loc 1 579 44 view .LVU90
 349 0060 013B     		subs	r3, r3, #1
 350              		.loc 1 579 49 view .LVU91
 351 0062 02AA     		add	r2, sp, #8
 352 0064 0021     		movs	r1, #0
 353 0066 D154     		strb	r1, [r2, r3]
 580:Core/Src/main.c ****         break;
 354              		.loc 1 580 9 is_stmt 1 view .LVU92
 355 0068 1CE0     		b	.L24
 356              	.L14:
 563:Core/Src/main.c ****         break;
 357              		.loc 1 563 9 view .LVU93
 563:Core/Src/main.c ****         break;
 358              		.loc 1 563 15 is_stmt 0 view .LVU94
 359 006a 8023     		movs	r3, #128
 360 006c 0393     		str	r3, [sp, #12]
 564:Core/Src/main.c ****       //Orange LED - PC8
 361              		.loc 1 564 9 is_stmt 1 view .LVU95
 362 006e E2E7     		b	.L18
 363              	.L21:
 572:Core/Src/main.c ****       case 0x0010:
 364              		.loc 1 572 5 is_stmt 0 view .LVU96
 365 0070 402B     		cmp	r3, #64
 366 0072 17D1     		bne	.L24
 581:Core/Src/main.c ****       case 0x0030:
 582:Core/Src/main.c ****         GPIOC->ODR ^= color;
 583:Core/Src/main.c ****         break;
 584:Core/Src/main.c ****       case 0x0040:
 585:Core/Src/main.c ****         blink[(((commandLED & 0x0F00) >> 8)-1)] = 1;
 367              		.loc 1 585 9 is_stmt 1 view .LVU97
 368              		.loc 1 585 39 is_stmt 0 view .LVU98
 369 0074 214B     		ldr	r3, .L27+4
 370 0076 1A88     		ldrh	r2, [r3]
 371 0078 120A     		lsrs	r2, r2, #8
 372 007a 0F23     		movs	r3, #15
 373 007c 1340     		ands	r3, r2
 374              		.loc 1 585 44 view .LVU99
ARM GAS  /var/folders/kr/g9ry2bg56g773797gdtkvvkw0000gn/T//ccYFTcCO.s 			page 18


 375 007e 013B     		subs	r3, r3, #1
 376              		.loc 1 585 49 view .LVU100
 377 0080 02AA     		add	r2, sp, #8
 378 0082 0121     		movs	r1, #1
 379 0084 D154     		strb	r1, [r2, r3]
 586:Core/Src/main.c ****         break;
 380              		.loc 1 586 9 is_stmt 1 view .LVU101
 381 0086 0DE0     		b	.L24
 382              	.L22:
 574:Core/Src/main.c ****         blink[(((commandLED & 0x0F00) >> 8)-1)] = 0;
 383              		.loc 1 574 9 view .LVU102
 384 0088 0399     		ldr	r1, [sp, #12]
 574:Core/Src/main.c ****         blink[(((commandLED & 0x0F00) >> 8)-1)] = 0;
 385              		.loc 1 574 14 is_stmt 0 view .LVU103
 386 008a 1D4A     		ldr	r2, .L27+8
 387 008c 5369     		ldr	r3, [r2, #20]
 574:Core/Src/main.c ****         blink[(((commandLED & 0x0F00) >> 8)-1)] = 0;
 388              		.loc 1 574 20 view .LVU104
 389 008e 0B43     		orrs	r3, r1
 390 0090 5361     		str	r3, [r2, #20]
 575:Core/Src/main.c ****         break;
 391              		.loc 1 575 9 is_stmt 1 view .LVU105
 575:Core/Src/main.c ****         break;
 392              		.loc 1 575 39 is_stmt 0 view .LVU106
 393 0092 1A4B     		ldr	r3, .L27+4
 394 0094 1A88     		ldrh	r2, [r3]
 395 0096 120A     		lsrs	r2, r2, #8
 396 0098 0F23     		movs	r3, #15
 397 009a 1340     		ands	r3, r2
 575:Core/Src/main.c ****         break;
 398              		.loc 1 575 44 view .LVU107
 399 009c 013B     		subs	r3, r3, #1
 575:Core/Src/main.c ****         break;
 400              		.loc 1 575 49 view .LVU108
 401 009e 02AA     		add	r2, sp, #8
 402 00a0 0021     		movs	r1, #0
 403 00a2 D154     		strb	r1, [r2, r3]
 576:Core/Src/main.c ****       case 0x0020:
 404              		.loc 1 576 9 is_stmt 1 view .LVU109
 405              	.L24:
 587:Core/Src/main.c ****       default:
 588:Core/Src/main.c ****     }
 589:Core/Src/main.c ****     commandLED = 0;
 406              		.loc 1 589 5 view .LVU110
 407              		.loc 1 589 16 is_stmt 0 view .LVU111
 408 00a4 154B     		ldr	r3, .L27+4
 409 00a6 0022     		movs	r2, #0
 410 00a8 1A80     		strh	r2, [r3]
 590:Core/Src/main.c ****     osSemaphoreRelease(binarySem03LEDWorkerHandle);
 411              		.loc 1 590 5 is_stmt 1 view .LVU112
 412 00aa 134B     		ldr	r3, .L27
 413 00ac 1868     		ldr	r0, [r3]
 414 00ae FFF7FEFF 		bl	osSemaphoreRelease
 415              	.LVL15:
 549:Core/Src/main.c ****   {
 416              		.loc 1 549 3 view .LVU113
 417              	.L26:
ARM GAS  /var/folders/kr/g9ry2bg56g773797gdtkvvkw0000gn/T//ccYFTcCO.s 			page 19


 549:Core/Src/main.c ****   {
 418              		.loc 1 549 3 view .LVU114
 551:Core/Src/main.c ****     switch (commandLED & 0x0F00) {    
 419              		.loc 1 551 5 view .LVU115
 420 00b2 0121     		movs	r1, #1
 421 00b4 104B     		ldr	r3, .L27
 422 00b6 1868     		ldr	r0, [r3]
 423 00b8 4942     		rsbs	r1, r1, #0
 424 00ba FFF7FEFF 		bl	osSemaphoreAcquire
 425              	.LVL16:
 552:Core/Src/main.c ****       //Red LED - PC6
 426              		.loc 1 552 5 view .LVU116
 552:Core/Src/main.c ****       //Red LED - PC6
 427              		.loc 1 552 24 is_stmt 0 view .LVU117
 428 00be 0F4B     		ldr	r3, .L27+4
 429 00c0 1B88     		ldrh	r3, [r3]
 430 00c2 F022     		movs	r2, #240
 431 00c4 1201     		lsls	r2, r2, #4
 432 00c6 1340     		ands	r3, r2
 552:Core/Src/main.c ****       //Red LED - PC6
 433              		.loc 1 552 5 view .LVU118
 434 00c8 C022     		movs	r2, #192
 435 00ca 9200     		lsls	r2, r2, #2
 436 00cc 9342     		cmp	r3, r2
 437 00ce CCD0     		beq	.L14
 438 00d0 A7D8     		bhi	.L15
 439 00d2 8022     		movs	r2, #128
 440 00d4 5200     		lsls	r2, r2, #1
 441 00d6 9342     		cmp	r3, r2
 442 00d8 ABD0     		beq	.L16
 443 00da 0132     		adds	r2, r2, #1
 444 00dc FF32     		adds	r2, r2, #255
 445 00de 9342     		cmp	r3, r2
 446 00e0 A9D1     		bne	.L18
 559:Core/Src/main.c ****         break;
 447              		.loc 1 559 9 is_stmt 1 view .LVU119
 559:Core/Src/main.c ****         break;
 448              		.loc 1 559 15 is_stmt 0 view .LVU120
 449 00e2 8023     		movs	r3, #128
 450 00e4 9B00     		lsls	r3, r3, #2
 451 00e6 0393     		str	r3, [sp, #12]
 560:Core/Src/main.c ****       //Blue LED - PC7  
 452              		.loc 1 560 9 is_stmt 1 view .LVU121
 453 00e8 A5E7     		b	.L18
 454              	.L20:
 582:Core/Src/main.c ****         break;
 455              		.loc 1 582 9 view .LVU122
 456 00ea 0399     		ldr	r1, [sp, #12]
 582:Core/Src/main.c ****         break;
 457              		.loc 1 582 14 is_stmt 0 view .LVU123
 458 00ec 044A     		ldr	r2, .L27+8
 459 00ee 5369     		ldr	r3, [r2, #20]
 582:Core/Src/main.c ****         break;
 460              		.loc 1 582 20 view .LVU124
 461 00f0 4B40     		eors	r3, r1
 462 00f2 5361     		str	r3, [r2, #20]
 583:Core/Src/main.c ****       case 0x0040:
ARM GAS  /var/folders/kr/g9ry2bg56g773797gdtkvvkw0000gn/T//ccYFTcCO.s 			page 20


 463              		.loc 1 583 9 is_stmt 1 view .LVU125
 464 00f4 D6E7     		b	.L24
 465              	.L28:
 466 00f6 C046     		.align	2
 467              	.L27:
 468 00f8 00000000 		.word	binarySem03LEDWorkerHandle
 469 00fc 00000000 		.word	commandLED
 470 0100 00080048 		.word	1207961600
 471              		.cfi_endproc
 472              	.LFE52:
 474              		.section	.text.initLEDs,"ax",%progbits
 475              		.align	1
 476              		.global	initLEDs
 477              		.syntax unified
 478              		.code	16
 479              		.thumb_func
 481              	initLEDs:
 482              	.LFB51:
 498:Core/Src/main.c **** 	// red LED PC6, blue LED (PC7), green LED PC9, orange LED PC8
 483              		.loc 1 498 21 view -0
 484              		.cfi_startproc
 485              		@ args = 0, pretend = 0, frame = 0
 486              		@ frame_needed = 0, uses_anonymous_args = 0
 487              		@ link register save eliminated.
 500:Core/Src/main.c ****   // set the MODER, 01: General purpose output mode
 488              		.loc 1 500 3 view .LVU127
 500:Core/Src/main.c ****   // set the MODER, 01: General purpose output mode
 489              		.loc 1 500 6 is_stmt 0 view .LVU128
 490 0000 294A     		ldr	r2, .L30
 491 0002 5169     		ldr	r1, [r2, #20]
 500:Core/Src/main.c ****   // set the MODER, 01: General purpose output mode
 492              		.loc 1 500 15 view .LVU129
 493 0004 8023     		movs	r3, #128
 494 0006 1B03     		lsls	r3, r3, #12
 495 0008 0B43     		orrs	r3, r1
 496 000a 5361     		str	r3, [r2, #20]
 503:Core/Src/main.c **** 	GPIOC->MODER &= ~(1 << 13);
 497              		.loc 1 503 2 is_stmt 1 view .LVU130
 503:Core/Src/main.c **** 	GPIOC->MODER &= ~(1 << 13);
 498              		.loc 1 503 7 is_stmt 0 view .LVU131
 499 000c 274B     		ldr	r3, .L30+4
 500 000e 1968     		ldr	r1, [r3]
 503:Core/Src/main.c **** 	GPIOC->MODER &= ~(1 << 13);
 501              		.loc 1 503 15 view .LVU132
 502 0010 8022     		movs	r2, #128
 503 0012 5201     		lsls	r2, r2, #5
 504 0014 0A43     		orrs	r2, r1
 505 0016 1A60     		str	r2, [r3]
 504:Core/Src/main.c ****     // init PC7 MODER
 506              		.loc 1 504 2 is_stmt 1 view .LVU133
 504:Core/Src/main.c ****     // init PC7 MODER
 507              		.loc 1 504 7 is_stmt 0 view .LVU134
 508 0018 1A68     		ldr	r2, [r3]
 504:Core/Src/main.c ****     // init PC7 MODER
 509              		.loc 1 504 15 view .LVU135
 510 001a 2549     		ldr	r1, .L30+8
 511 001c 0A40     		ands	r2, r1
ARM GAS  /var/folders/kr/g9ry2bg56g773797gdtkvvkw0000gn/T//ccYFTcCO.s 			page 21


 512 001e 1A60     		str	r2, [r3]
 506:Core/Src/main.c **** 	GPIOC->MODER &= ~(1 << 15);
 513              		.loc 1 506 2 is_stmt 1 view .LVU136
 506:Core/Src/main.c **** 	GPIOC->MODER &= ~(1 << 15);
 514              		.loc 1 506 7 is_stmt 0 view .LVU137
 515 0020 1968     		ldr	r1, [r3]
 506:Core/Src/main.c **** 	GPIOC->MODER &= ~(1 << 15);
 516              		.loc 1 506 15 view .LVU138
 517 0022 8022     		movs	r2, #128
 518 0024 D201     		lsls	r2, r2, #7
 519 0026 0A43     		orrs	r2, r1
 520 0028 1A60     		str	r2, [r3]
 507:Core/Src/main.c **** 	// init PC8 MODER
 521              		.loc 1 507 2 is_stmt 1 view .LVU139
 507:Core/Src/main.c **** 	// init PC8 MODER
 522              		.loc 1 507 7 is_stmt 0 view .LVU140
 523 002a 1A68     		ldr	r2, [r3]
 507:Core/Src/main.c **** 	// init PC8 MODER
 524              		.loc 1 507 15 view .LVU141
 525 002c 2149     		ldr	r1, .L30+12
 526 002e 0A40     		ands	r2, r1
 527 0030 1A60     		str	r2, [r3]
 509:Core/Src/main.c **** 	GPIOC->MODER &= ~(1 << 17);
 528              		.loc 1 509 2 is_stmt 1 view .LVU142
 509:Core/Src/main.c **** 	GPIOC->MODER &= ~(1 << 17);
 529              		.loc 1 509 7 is_stmt 0 view .LVU143
 530 0032 1968     		ldr	r1, [r3]
 509:Core/Src/main.c **** 	GPIOC->MODER &= ~(1 << 17);
 531              		.loc 1 509 15 view .LVU144
 532 0034 8022     		movs	r2, #128
 533 0036 5202     		lsls	r2, r2, #9
 534 0038 0A43     		orrs	r2, r1
 535 003a 1A60     		str	r2, [r3]
 510:Core/Src/main.c **** 	// init PC9 MODER
 536              		.loc 1 510 2 is_stmt 1 view .LVU145
 510:Core/Src/main.c **** 	// init PC9 MODER
 537              		.loc 1 510 7 is_stmt 0 view .LVU146
 538 003c 1A68     		ldr	r2, [r3]
 510:Core/Src/main.c **** 	// init PC9 MODER
 539              		.loc 1 510 15 view .LVU147
 540 003e 1E49     		ldr	r1, .L30+16
 541 0040 0A40     		ands	r2, r1
 542 0042 1A60     		str	r2, [r3]
 512:Core/Src/main.c **** 	GPIOC->MODER &= ~(1 << 19);
 543              		.loc 1 512 2 is_stmt 1 view .LVU148
 512:Core/Src/main.c **** 	GPIOC->MODER &= ~(1 << 19);
 544              		.loc 1 512 7 is_stmt 0 view .LVU149
 545 0044 1968     		ldr	r1, [r3]
 512:Core/Src/main.c **** 	GPIOC->MODER &= ~(1 << 19);
 546              		.loc 1 512 15 view .LVU150
 547 0046 8022     		movs	r2, #128
 548 0048 D202     		lsls	r2, r2, #11
 549 004a 0A43     		orrs	r2, r1
 550 004c 1A60     		str	r2, [r3]
 513:Core/Src/main.c ****   // Set the pins to low speed in the OSPEEDR register
 551              		.loc 1 513 2 is_stmt 1 view .LVU151
 513:Core/Src/main.c ****   // Set the pins to low speed in the OSPEEDR register
ARM GAS  /var/folders/kr/g9ry2bg56g773797gdtkvvkw0000gn/T//ccYFTcCO.s 			page 22


 552              		.loc 1 513 7 is_stmt 0 view .LVU152
 553 004e 1A68     		ldr	r2, [r3]
 513:Core/Src/main.c ****   // Set the pins to low speed in the OSPEEDR register
 554              		.loc 1 513 15 view .LVU153
 555 0050 1A49     		ldr	r1, .L30+20
 556 0052 0A40     		ands	r2, r1
 557 0054 1A60     		str	r2, [r3]
 515:Core/Src/main.c **** 	GPIOC->OSPEEDR &= ~((1 << 14) | (1 << 15));
 558              		.loc 1 515 2 is_stmt 1 view .LVU154
 515:Core/Src/main.c **** 	GPIOC->OSPEEDR &= ~((1 << 14) | (1 << 15));
 559              		.loc 1 515 7 is_stmt 0 view .LVU155
 560 0056 9A68     		ldr	r2, [r3, #8]
 515:Core/Src/main.c **** 	GPIOC->OSPEEDR &= ~((1 << 14) | (1 << 15));
 561              		.loc 1 515 17 view .LVU156
 562 0058 1949     		ldr	r1, .L30+24
 563 005a 0A40     		ands	r2, r1
 564 005c 9A60     		str	r2, [r3, #8]
 516:Core/Src/main.c **** 	GPIOC->OSPEEDR &= ~((1 << 16) | (1 << 17));
 565              		.loc 1 516 2 is_stmt 1 view .LVU157
 516:Core/Src/main.c **** 	GPIOC->OSPEEDR &= ~((1 << 16) | (1 << 17));
 566              		.loc 1 516 7 is_stmt 0 view .LVU158
 567 005e 9A68     		ldr	r2, [r3, #8]
 516:Core/Src/main.c **** 	GPIOC->OSPEEDR &= ~((1 << 16) | (1 << 17));
 568              		.loc 1 516 17 view .LVU159
 569 0060 1849     		ldr	r1, .L30+28
 570 0062 0A40     		ands	r2, r1
 571 0064 9A60     		str	r2, [r3, #8]
 517:Core/Src/main.c **** 	GPIOC->OSPEEDR &= ~((1 << 18) | (1 << 19));
 572              		.loc 1 517 2 is_stmt 1 view .LVU160
 517:Core/Src/main.c **** 	GPIOC->OSPEEDR &= ~((1 << 18) | (1 << 19));
 573              		.loc 1 517 7 is_stmt 0 view .LVU161
 574 0066 9A68     		ldr	r2, [r3, #8]
 517:Core/Src/main.c **** 	GPIOC->OSPEEDR &= ~((1 << 18) | (1 << 19));
 575              		.loc 1 517 17 view .LVU162
 576 0068 1749     		ldr	r1, .L30+32
 577 006a 0A40     		ands	r2, r1
 578 006c 9A60     		str	r2, [r3, #8]
 518:Core/Src/main.c **** 
 579              		.loc 1 518 2 is_stmt 1 view .LVU163
 518:Core/Src/main.c **** 
 580              		.loc 1 518 7 is_stmt 0 view .LVU164
 581 006e 9A68     		ldr	r2, [r3, #8]
 518:Core/Src/main.c **** 
 582              		.loc 1 518 17 view .LVU165
 583 0070 1649     		ldr	r1, .L30+36
 584 0072 0A40     		ands	r2, r1
 585 0074 9A60     		str	r2, [r3, #8]
 522:Core/Src/main.c **** 	GPIOC->PUPDR &= ~((1 << 12) | (1 << 13) | (1 << 14) | (1 << 15));
 586              		.loc 1 522 2 is_stmt 1 view .LVU166
 522:Core/Src/main.c **** 	GPIOC->PUPDR &= ~((1 << 12) | (1 << 13) | (1 << 14) | (1 << 15));
 587              		.loc 1 522 7 is_stmt 0 view .LVU167
 588 0076 DA68     		ldr	r2, [r3, #12]
 522:Core/Src/main.c **** 	GPIOC->PUPDR &= ~((1 << 12) | (1 << 13) | (1 << 14) | (1 << 15));
 589              		.loc 1 522 15 view .LVU168
 590 0078 1549     		ldr	r1, .L30+40
 591 007a 0A40     		ands	r2, r1
 592 007c DA60     		str	r2, [r3, #12]
ARM GAS  /var/folders/kr/g9ry2bg56g773797gdtkvvkw0000gn/T//ccYFTcCO.s 			page 23


 523:Core/Src/main.c **** 	// set PC6-9 to 0
 593              		.loc 1 523 2 is_stmt 1 view .LVU169
 523:Core/Src/main.c **** 	// set PC6-9 to 0
 594              		.loc 1 523 7 is_stmt 0 view .LVU170
 595 007e DA68     		ldr	r2, [r3, #12]
 523:Core/Src/main.c **** 	// set PC6-9 to 0
 596              		.loc 1 523 15 view .LVU171
 597 0080 1449     		ldr	r1, .L30+44
 598 0082 0A40     		ands	r2, r1
 599 0084 DA60     		str	r2, [r3, #12]
 525:Core/Src/main.c **** 	GPIOC->ODR &= ~(1 << 7);
 600              		.loc 1 525 2 is_stmt 1 view .LVU172
 525:Core/Src/main.c **** 	GPIOC->ODR &= ~(1 << 7);
 601              		.loc 1 525 7 is_stmt 0 view .LVU173
 602 0086 5A69     		ldr	r2, [r3, #20]
 525:Core/Src/main.c **** 	GPIOC->ODR &= ~(1 << 7);
 603              		.loc 1 525 13 view .LVU174
 604 0088 4021     		movs	r1, #64
 605 008a 8A43     		bics	r2, r1
 606 008c 5A61     		str	r2, [r3, #20]
 526:Core/Src/main.c **** 	GPIOC->ODR &= ~(1 << 8);
 607              		.loc 1 526 2 is_stmt 1 view .LVU175
 526:Core/Src/main.c **** 	GPIOC->ODR &= ~(1 << 8);
 608              		.loc 1 526 7 is_stmt 0 view .LVU176
 609 008e 5A69     		ldr	r2, [r3, #20]
 526:Core/Src/main.c **** 	GPIOC->ODR &= ~(1 << 8);
 610              		.loc 1 526 13 view .LVU177
 611 0090 4031     		adds	r1, r1, #64
 612 0092 8A43     		bics	r2, r1
 613 0094 5A61     		str	r2, [r3, #20]
 527:Core/Src/main.c **** 	GPIOC->ODR &= ~(1 << 9);
 614              		.loc 1 527 2 is_stmt 1 view .LVU178
 527:Core/Src/main.c **** 	GPIOC->ODR &= ~(1 << 9);
 615              		.loc 1 527 7 is_stmt 0 view .LVU179
 616 0096 5A69     		ldr	r2, [r3, #20]
 527:Core/Src/main.c **** 	GPIOC->ODR &= ~(1 << 9);
 617              		.loc 1 527 13 view .LVU180
 618 0098 0F49     		ldr	r1, .L30+48
 619 009a 0A40     		ands	r2, r1
 620 009c 5A61     		str	r2, [r3, #20]
 528:Core/Src/main.c **** }
 621              		.loc 1 528 2 is_stmt 1 view .LVU181
 528:Core/Src/main.c **** }
 622              		.loc 1 528 7 is_stmt 0 view .LVU182
 623 009e 5A69     		ldr	r2, [r3, #20]
 528:Core/Src/main.c **** }
 624              		.loc 1 528 13 view .LVU183
 625 00a0 0E49     		ldr	r1, .L30+52
 626 00a2 0A40     		ands	r2, r1
 627 00a4 5A61     		str	r2, [r3, #20]
 529:Core/Src/main.c **** 
 628              		.loc 1 529 1 view .LVU184
 629              		@ sp needed
 630 00a6 7047     		bx	lr
 631              	.L31:
 632              		.align	2
 633              	.L30:
ARM GAS  /var/folders/kr/g9ry2bg56g773797gdtkvvkw0000gn/T//ccYFTcCO.s 			page 24


 634 00a8 00100240 		.word	1073876992
 635 00ac 00080048 		.word	1207961600
 636 00b0 FFDFFFFF 		.word	-8193
 637 00b4 FF7FFFFF 		.word	-32769
 638 00b8 FFFFFDFF 		.word	-131073
 639 00bc FFFFF7FF 		.word	-524289
 640 00c0 FFCFFFFF 		.word	-12289
 641 00c4 FF3FFFFF 		.word	-49153
 642 00c8 FFFFFCFF 		.word	-196609
 643 00cc FFFFF3FF 		.word	-786433
 644 00d0 FFFFF0FF 		.word	-983041
 645 00d4 FF0FFFFF 		.word	-61441
 646 00d8 FFFEFFFF 		.word	-257
 647 00dc FFFDFFFF 		.word	-513
 648              		.cfi_endproc
 649              	.LFE51:
 651              		.section	.text.HAL_TIM_PeriodElapsedCallback,"ax",%progbits
 652              		.align	1
 653              		.global	HAL_TIM_PeriodElapsedCallback
 654              		.syntax unified
 655              		.code	16
 656              		.thumb_func
 658              	HAL_TIM_PeriodElapsedCallback:
 659              	.LVL17:
 660              	.LFB53:
 591:Core/Src/main.c ****   }
 592:Core/Src/main.c **** }
 593:Core/Src/main.c **** 
 594:Core/Src/main.c **** /**
 595:Core/Src/main.c ****   * @brief  Period elapsed callback in non blocking mode
 596:Core/Src/main.c ****   * @note   This function is called  when TIM6 interrupt took place, inside
 597:Core/Src/main.c ****   * HAL_TIM_IRQHandler(). It makes a direct call to HAL_IncTick() to increment
 598:Core/Src/main.c ****   * a global variable "uwTick" used as application time base.
 599:Core/Src/main.c ****   * @param  htim : TIM handle
 600:Core/Src/main.c ****   * @retval None
 601:Core/Src/main.c ****   */
 602:Core/Src/main.c **** void HAL_TIM_PeriodElapsedCallback(TIM_HandleTypeDef *htim)
 603:Core/Src/main.c **** {
 661              		.loc 1 603 1 is_stmt 1 view -0
 662              		.cfi_startproc
 663              		@ args = 0, pretend = 0, frame = 0
 664              		@ frame_needed = 0, uses_anonymous_args = 0
 665              		.loc 1 603 1 is_stmt 0 view .LVU186
 666 0000 10B5     		push	{r4, lr}
 667              	.LCFI5:
 668              		.cfi_def_cfa_offset 8
 669              		.cfi_offset 4, -8
 670              		.cfi_offset 14, -4
 604:Core/Src/main.c ****   /* USER CODE BEGIN Callback 0 */
 605:Core/Src/main.c **** 
 606:Core/Src/main.c ****   /* USER CODE END Callback 0 */
 607:Core/Src/main.c ****   if (htim->Instance == TIM6) {
 671              		.loc 1 607 3 is_stmt 1 view .LVU187
 672              		.loc 1 607 11 is_stmt 0 view .LVU188
 673 0002 0268     		ldr	r2, [r0]
 674              		.loc 1 607 6 view .LVU189
 675 0004 034B     		ldr	r3, .L35
ARM GAS  /var/folders/kr/g9ry2bg56g773797gdtkvvkw0000gn/T//ccYFTcCO.s 			page 25


 676 0006 9A42     		cmp	r2, r3
 677 0008 00D0     		beq	.L34
 678              	.LVL18:
 679              	.L32:
 608:Core/Src/main.c ****     HAL_IncTick();
 609:Core/Src/main.c ****   }
 610:Core/Src/main.c ****   /* USER CODE BEGIN Callback 1 */
 611:Core/Src/main.c **** 
 612:Core/Src/main.c ****   /* USER CODE END Callback 1 */
 613:Core/Src/main.c **** }
 680              		.loc 1 613 1 view .LVU190
 681              		@ sp needed
 682 000a 10BD     		pop	{r4, pc}
 683              	.LVL19:
 684              	.L34:
 608:Core/Src/main.c ****     HAL_IncTick();
 685              		.loc 1 608 5 is_stmt 1 view .LVU191
 686 000c FFF7FEFF 		bl	HAL_IncTick
 687              	.LVL20:
 688              		.loc 1 613 1 is_stmt 0 view .LVU192
 689 0010 FBE7     		b	.L32
 690              	.L36:
 691 0012 C046     		.align	2
 692              	.L35:
 693 0014 00100040 		.word	1073745920
 694              		.cfi_endproc
 695              	.LFE53:
 697              		.section	.text.Error_Handler,"ax",%progbits
 698              		.align	1
 699              		.global	Error_Handler
 700              		.syntax unified
 701              		.code	16
 702              		.thumb_func
 704              	Error_Handler:
 705              	.LFB54:
 614:Core/Src/main.c **** 
 615:Core/Src/main.c **** /**
 616:Core/Src/main.c ****   * @brief  This function is executed in case of error occurrence.
 617:Core/Src/main.c ****   * @retval None
 618:Core/Src/main.c ****   */
 619:Core/Src/main.c **** void Error_Handler(void)
 620:Core/Src/main.c **** {
 706              		.loc 1 620 1 is_stmt 1 view -0
 707              		.cfi_startproc
 708              		@ Volatile: function does not return.
 709              		@ args = 0, pretend = 0, frame = 0
 710              		@ frame_needed = 0, uses_anonymous_args = 0
 711              		@ link register save eliminated.
 621:Core/Src/main.c ****   /* USER CODE BEGIN Error_Handler_Debug */
 622:Core/Src/main.c ****   /* User can add his own implementation to report the HAL error return state */
 623:Core/Src/main.c ****   __disable_irq();
 712              		.loc 1 623 3 view .LVU194
 713              	.LBB7:
 714              	.LBI7:
 715              		.file 2 "Drivers/CMSIS/Include/cmsis_gcc.h"
   1:Drivers/CMSIS/Include/cmsis_gcc.h **** /**************************************************************************//**
   2:Drivers/CMSIS/Include/cmsis_gcc.h ****  * @file     cmsis_gcc.h
ARM GAS  /var/folders/kr/g9ry2bg56g773797gdtkvvkw0000gn/T//ccYFTcCO.s 			page 26


   3:Drivers/CMSIS/Include/cmsis_gcc.h ****  * @brief    CMSIS compiler GCC header file
   4:Drivers/CMSIS/Include/cmsis_gcc.h ****  * @version  V5.0.4
   5:Drivers/CMSIS/Include/cmsis_gcc.h ****  * @date     09. April 2018
   6:Drivers/CMSIS/Include/cmsis_gcc.h ****  ******************************************************************************/
   7:Drivers/CMSIS/Include/cmsis_gcc.h **** /*
   8:Drivers/CMSIS/Include/cmsis_gcc.h ****  * Copyright (c) 2009-2018 Arm Limited. All rights reserved.
   9:Drivers/CMSIS/Include/cmsis_gcc.h ****  *
  10:Drivers/CMSIS/Include/cmsis_gcc.h ****  * SPDX-License-Identifier: Apache-2.0
  11:Drivers/CMSIS/Include/cmsis_gcc.h ****  *
  12:Drivers/CMSIS/Include/cmsis_gcc.h ****  * Licensed under the Apache License, Version 2.0 (the License); you may
  13:Drivers/CMSIS/Include/cmsis_gcc.h ****  * not use this file except in compliance with the License.
  14:Drivers/CMSIS/Include/cmsis_gcc.h ****  * You may obtain a copy of the License at
  15:Drivers/CMSIS/Include/cmsis_gcc.h ****  *
  16:Drivers/CMSIS/Include/cmsis_gcc.h ****  * www.apache.org/licenses/LICENSE-2.0
  17:Drivers/CMSIS/Include/cmsis_gcc.h ****  *
  18:Drivers/CMSIS/Include/cmsis_gcc.h ****  * Unless required by applicable law or agreed to in writing, software
  19:Drivers/CMSIS/Include/cmsis_gcc.h ****  * distributed under the License is distributed on an AS IS BASIS, WITHOUT
  20:Drivers/CMSIS/Include/cmsis_gcc.h ****  * WARRANTIES OR CONDITIONS OF ANY KIND, either express or implied.
  21:Drivers/CMSIS/Include/cmsis_gcc.h ****  * See the License for the specific language governing permissions and
  22:Drivers/CMSIS/Include/cmsis_gcc.h ****  * limitations under the License.
  23:Drivers/CMSIS/Include/cmsis_gcc.h ****  */
  24:Drivers/CMSIS/Include/cmsis_gcc.h **** 
  25:Drivers/CMSIS/Include/cmsis_gcc.h **** #ifndef __CMSIS_GCC_H
  26:Drivers/CMSIS/Include/cmsis_gcc.h **** #define __CMSIS_GCC_H
  27:Drivers/CMSIS/Include/cmsis_gcc.h **** 
  28:Drivers/CMSIS/Include/cmsis_gcc.h **** /* ignore some GCC warnings */
  29:Drivers/CMSIS/Include/cmsis_gcc.h **** #pragma GCC diagnostic push
  30:Drivers/CMSIS/Include/cmsis_gcc.h **** #pragma GCC diagnostic ignored "-Wsign-conversion"
  31:Drivers/CMSIS/Include/cmsis_gcc.h **** #pragma GCC diagnostic ignored "-Wconversion"
  32:Drivers/CMSIS/Include/cmsis_gcc.h **** #pragma GCC diagnostic ignored "-Wunused-parameter"
  33:Drivers/CMSIS/Include/cmsis_gcc.h **** 
  34:Drivers/CMSIS/Include/cmsis_gcc.h **** /* Fallback for __has_builtin */
  35:Drivers/CMSIS/Include/cmsis_gcc.h **** #ifndef __has_builtin
  36:Drivers/CMSIS/Include/cmsis_gcc.h ****   #define __has_builtin(x) (0)
  37:Drivers/CMSIS/Include/cmsis_gcc.h **** #endif
  38:Drivers/CMSIS/Include/cmsis_gcc.h **** 
  39:Drivers/CMSIS/Include/cmsis_gcc.h **** /* CMSIS compiler specific defines */
  40:Drivers/CMSIS/Include/cmsis_gcc.h **** #ifndef   __ASM
  41:Drivers/CMSIS/Include/cmsis_gcc.h ****   #define __ASM                                  __asm
  42:Drivers/CMSIS/Include/cmsis_gcc.h **** #endif
  43:Drivers/CMSIS/Include/cmsis_gcc.h **** #ifndef   __INLINE
  44:Drivers/CMSIS/Include/cmsis_gcc.h ****   #define __INLINE                               inline
  45:Drivers/CMSIS/Include/cmsis_gcc.h **** #endif
  46:Drivers/CMSIS/Include/cmsis_gcc.h **** #ifndef   __STATIC_INLINE
  47:Drivers/CMSIS/Include/cmsis_gcc.h ****   #define __STATIC_INLINE                        static inline
  48:Drivers/CMSIS/Include/cmsis_gcc.h **** #endif
  49:Drivers/CMSIS/Include/cmsis_gcc.h **** #ifndef   __STATIC_FORCEINLINE                 
  50:Drivers/CMSIS/Include/cmsis_gcc.h ****   #define __STATIC_FORCEINLINE                   __attribute__((always_inline)) static inline
  51:Drivers/CMSIS/Include/cmsis_gcc.h **** #endif                                           
  52:Drivers/CMSIS/Include/cmsis_gcc.h **** #ifndef   __NO_RETURN
  53:Drivers/CMSIS/Include/cmsis_gcc.h ****   #define __NO_RETURN                            __attribute__((__noreturn__))
  54:Drivers/CMSIS/Include/cmsis_gcc.h **** #endif
  55:Drivers/CMSIS/Include/cmsis_gcc.h **** #ifndef   __USED
  56:Drivers/CMSIS/Include/cmsis_gcc.h ****   #define __USED                                 __attribute__((used))
  57:Drivers/CMSIS/Include/cmsis_gcc.h **** #endif
  58:Drivers/CMSIS/Include/cmsis_gcc.h **** #ifndef   __WEAK
  59:Drivers/CMSIS/Include/cmsis_gcc.h ****   #define __WEAK                                 __attribute__((weak))
ARM GAS  /var/folders/kr/g9ry2bg56g773797gdtkvvkw0000gn/T//ccYFTcCO.s 			page 27


  60:Drivers/CMSIS/Include/cmsis_gcc.h **** #endif
  61:Drivers/CMSIS/Include/cmsis_gcc.h **** #ifndef   __PACKED
  62:Drivers/CMSIS/Include/cmsis_gcc.h ****   #define __PACKED                               __attribute__((packed, aligned(1)))
  63:Drivers/CMSIS/Include/cmsis_gcc.h **** #endif
  64:Drivers/CMSIS/Include/cmsis_gcc.h **** #ifndef   __PACKED_STRUCT
  65:Drivers/CMSIS/Include/cmsis_gcc.h ****   #define __PACKED_STRUCT                        struct __attribute__((packed, aligned(1)))
  66:Drivers/CMSIS/Include/cmsis_gcc.h **** #endif
  67:Drivers/CMSIS/Include/cmsis_gcc.h **** #ifndef   __PACKED_UNION
  68:Drivers/CMSIS/Include/cmsis_gcc.h ****   #define __PACKED_UNION                         union __attribute__((packed, aligned(1)))
  69:Drivers/CMSIS/Include/cmsis_gcc.h **** #endif
  70:Drivers/CMSIS/Include/cmsis_gcc.h **** #ifndef   __UNALIGNED_UINT32        /* deprecated */
  71:Drivers/CMSIS/Include/cmsis_gcc.h ****   #pragma GCC diagnostic push
  72:Drivers/CMSIS/Include/cmsis_gcc.h ****   #pragma GCC diagnostic ignored "-Wpacked"
  73:Drivers/CMSIS/Include/cmsis_gcc.h ****   #pragma GCC diagnostic ignored "-Wattributes"
  74:Drivers/CMSIS/Include/cmsis_gcc.h ****   struct __attribute__((packed)) T_UINT32 { uint32_t v; };
  75:Drivers/CMSIS/Include/cmsis_gcc.h ****   #pragma GCC diagnostic pop
  76:Drivers/CMSIS/Include/cmsis_gcc.h ****   #define __UNALIGNED_UINT32(x)                  (((struct T_UINT32 *)(x))->v)
  77:Drivers/CMSIS/Include/cmsis_gcc.h **** #endif
  78:Drivers/CMSIS/Include/cmsis_gcc.h **** #ifndef   __UNALIGNED_UINT16_WRITE
  79:Drivers/CMSIS/Include/cmsis_gcc.h ****   #pragma GCC diagnostic push
  80:Drivers/CMSIS/Include/cmsis_gcc.h ****   #pragma GCC diagnostic ignored "-Wpacked"
  81:Drivers/CMSIS/Include/cmsis_gcc.h ****   #pragma GCC diagnostic ignored "-Wattributes"
  82:Drivers/CMSIS/Include/cmsis_gcc.h ****   __PACKED_STRUCT T_UINT16_WRITE { uint16_t v; };
  83:Drivers/CMSIS/Include/cmsis_gcc.h ****   #pragma GCC diagnostic pop
  84:Drivers/CMSIS/Include/cmsis_gcc.h ****   #define __UNALIGNED_UINT16_WRITE(addr, val)    (void)((((struct T_UINT16_WRITE *)(void *)(addr))-
  85:Drivers/CMSIS/Include/cmsis_gcc.h **** #endif
  86:Drivers/CMSIS/Include/cmsis_gcc.h **** #ifndef   __UNALIGNED_UINT16_READ
  87:Drivers/CMSIS/Include/cmsis_gcc.h ****   #pragma GCC diagnostic push
  88:Drivers/CMSIS/Include/cmsis_gcc.h ****   #pragma GCC diagnostic ignored "-Wpacked"
  89:Drivers/CMSIS/Include/cmsis_gcc.h ****   #pragma GCC diagnostic ignored "-Wattributes"
  90:Drivers/CMSIS/Include/cmsis_gcc.h ****   __PACKED_STRUCT T_UINT16_READ { uint16_t v; };
  91:Drivers/CMSIS/Include/cmsis_gcc.h ****   #pragma GCC diagnostic pop
  92:Drivers/CMSIS/Include/cmsis_gcc.h ****   #define __UNALIGNED_UINT16_READ(addr)          (((const struct T_UINT16_READ *)(const void *)(add
  93:Drivers/CMSIS/Include/cmsis_gcc.h **** #endif
  94:Drivers/CMSIS/Include/cmsis_gcc.h **** #ifndef   __UNALIGNED_UINT32_WRITE
  95:Drivers/CMSIS/Include/cmsis_gcc.h ****   #pragma GCC diagnostic push
  96:Drivers/CMSIS/Include/cmsis_gcc.h ****   #pragma GCC diagnostic ignored "-Wpacked"
  97:Drivers/CMSIS/Include/cmsis_gcc.h ****   #pragma GCC diagnostic ignored "-Wattributes"
  98:Drivers/CMSIS/Include/cmsis_gcc.h ****   __PACKED_STRUCT T_UINT32_WRITE { uint32_t v; };
  99:Drivers/CMSIS/Include/cmsis_gcc.h ****   #pragma GCC diagnostic pop
 100:Drivers/CMSIS/Include/cmsis_gcc.h ****   #define __UNALIGNED_UINT32_WRITE(addr, val)    (void)((((struct T_UINT32_WRITE *)(void *)(addr))-
 101:Drivers/CMSIS/Include/cmsis_gcc.h **** #endif
 102:Drivers/CMSIS/Include/cmsis_gcc.h **** #ifndef   __UNALIGNED_UINT32_READ
 103:Drivers/CMSIS/Include/cmsis_gcc.h ****   #pragma GCC diagnostic push
 104:Drivers/CMSIS/Include/cmsis_gcc.h ****   #pragma GCC diagnostic ignored "-Wpacked"
 105:Drivers/CMSIS/Include/cmsis_gcc.h ****   #pragma GCC diagnostic ignored "-Wattributes"
 106:Drivers/CMSIS/Include/cmsis_gcc.h ****   __PACKED_STRUCT T_UINT32_READ { uint32_t v; };
 107:Drivers/CMSIS/Include/cmsis_gcc.h ****   #pragma GCC diagnostic pop
 108:Drivers/CMSIS/Include/cmsis_gcc.h ****   #define __UNALIGNED_UINT32_READ(addr)          (((const struct T_UINT32_READ *)(const void *)(add
 109:Drivers/CMSIS/Include/cmsis_gcc.h **** #endif
 110:Drivers/CMSIS/Include/cmsis_gcc.h **** #ifndef   __ALIGNED
 111:Drivers/CMSIS/Include/cmsis_gcc.h ****   #define __ALIGNED(x)                           __attribute__((aligned(x)))
 112:Drivers/CMSIS/Include/cmsis_gcc.h **** #endif
 113:Drivers/CMSIS/Include/cmsis_gcc.h **** #ifndef   __RESTRICT
 114:Drivers/CMSIS/Include/cmsis_gcc.h ****   #define __RESTRICT                             __restrict
 115:Drivers/CMSIS/Include/cmsis_gcc.h **** #endif
 116:Drivers/CMSIS/Include/cmsis_gcc.h **** 
ARM GAS  /var/folders/kr/g9ry2bg56g773797gdtkvvkw0000gn/T//ccYFTcCO.s 			page 28


 117:Drivers/CMSIS/Include/cmsis_gcc.h **** 
 118:Drivers/CMSIS/Include/cmsis_gcc.h **** /* ###########################  Core Function Access  ########################### */
 119:Drivers/CMSIS/Include/cmsis_gcc.h **** /** \ingroup  CMSIS_Core_FunctionInterface
 120:Drivers/CMSIS/Include/cmsis_gcc.h ****     \defgroup CMSIS_Core_RegAccFunctions CMSIS Core Register Access Functions
 121:Drivers/CMSIS/Include/cmsis_gcc.h ****   @{
 122:Drivers/CMSIS/Include/cmsis_gcc.h ****  */
 123:Drivers/CMSIS/Include/cmsis_gcc.h **** 
 124:Drivers/CMSIS/Include/cmsis_gcc.h **** /**
 125:Drivers/CMSIS/Include/cmsis_gcc.h ****   \brief   Enable IRQ Interrupts
 126:Drivers/CMSIS/Include/cmsis_gcc.h ****   \details Enables IRQ interrupts by clearing the I-bit in the CPSR.
 127:Drivers/CMSIS/Include/cmsis_gcc.h ****            Can only be executed in Privileged modes.
 128:Drivers/CMSIS/Include/cmsis_gcc.h ****  */
 129:Drivers/CMSIS/Include/cmsis_gcc.h **** __STATIC_FORCEINLINE void __enable_irq(void)
 130:Drivers/CMSIS/Include/cmsis_gcc.h **** {
 131:Drivers/CMSIS/Include/cmsis_gcc.h ****   __ASM volatile ("cpsie i" : : : "memory");
 132:Drivers/CMSIS/Include/cmsis_gcc.h **** }
 133:Drivers/CMSIS/Include/cmsis_gcc.h **** 
 134:Drivers/CMSIS/Include/cmsis_gcc.h **** 
 135:Drivers/CMSIS/Include/cmsis_gcc.h **** /**
 136:Drivers/CMSIS/Include/cmsis_gcc.h ****   \brief   Disable IRQ Interrupts
 137:Drivers/CMSIS/Include/cmsis_gcc.h ****   \details Disables IRQ interrupts by setting the I-bit in the CPSR.
 138:Drivers/CMSIS/Include/cmsis_gcc.h ****            Can only be executed in Privileged modes.
 139:Drivers/CMSIS/Include/cmsis_gcc.h ****  */
 140:Drivers/CMSIS/Include/cmsis_gcc.h **** __STATIC_FORCEINLINE void __disable_irq(void)
 716              		.loc 2 140 27 view .LVU195
 717              	.LBB8:
 141:Drivers/CMSIS/Include/cmsis_gcc.h **** {
 142:Drivers/CMSIS/Include/cmsis_gcc.h ****   __ASM volatile ("cpsid i" : : : "memory");
 718              		.loc 2 142 3 view .LVU196
 719              		.syntax divided
 720              	@ 142 "Drivers/CMSIS/Include/cmsis_gcc.h" 1
 721 0000 72B6     		cpsid i
 722              	@ 0 "" 2
 723              		.thumb
 724              		.syntax unified
 725              	.L38:
 726              	.LBE8:
 727              	.LBE7:
 624:Core/Src/main.c ****   while (1)
 728              		.loc 1 624 3 view .LVU197
 625:Core/Src/main.c ****   {
 626:Core/Src/main.c ****   }
 729              		.loc 1 626 3 view .LVU198
 624:Core/Src/main.c ****   while (1)
 730              		.loc 1 624 9 view .LVU199
 731 0002 FEE7     		b	.L38
 732              		.cfi_endproc
 733              	.LFE54:
 735              		.section	.text.MX_I2C2_Init,"ax",%progbits
 736              		.align	1
 737              		.syntax unified
 738              		.code	16
 739              		.thumb_func
 741              	MX_I2C2_Init:
 742              	.LFB45:
 245:Core/Src/main.c **** 
 743              		.loc 1 245 1 view -0
ARM GAS  /var/folders/kr/g9ry2bg56g773797gdtkvvkw0000gn/T//ccYFTcCO.s 			page 29


 744              		.cfi_startproc
 745              		@ args = 0, pretend = 0, frame = 0
 746              		@ frame_needed = 0, uses_anonymous_args = 0
 747 0000 10B5     		push	{r4, lr}
 748              	.LCFI6:
 749              		.cfi_def_cfa_offset 8
 750              		.cfi_offset 4, -8
 751              		.cfi_offset 14, -4
 254:Core/Src/main.c ****   hi2c2.Init.Timing = 0x20303E5D;
 752              		.loc 1 254 3 view .LVU201
 254:Core/Src/main.c ****   hi2c2.Init.Timing = 0x20303E5D;
 753              		.loc 1 254 18 is_stmt 0 view .LVU202
 754 0002 1248     		ldr	r0, .L46
 755 0004 124B     		ldr	r3, .L46+4
 756 0006 0360     		str	r3, [r0]
 255:Core/Src/main.c ****   hi2c2.Init.OwnAddress1 = 0;
 757              		.loc 1 255 3 is_stmt 1 view .LVU203
 255:Core/Src/main.c ****   hi2c2.Init.OwnAddress1 = 0;
 758              		.loc 1 255 21 is_stmt 0 view .LVU204
 759 0008 124B     		ldr	r3, .L46+8
 760 000a 4360     		str	r3, [r0, #4]
 256:Core/Src/main.c ****   hi2c2.Init.AddressingMode = I2C_ADDRESSINGMODE_7BIT;
 761              		.loc 1 256 3 is_stmt 1 view .LVU205
 256:Core/Src/main.c ****   hi2c2.Init.AddressingMode = I2C_ADDRESSINGMODE_7BIT;
 762              		.loc 1 256 26 is_stmt 0 view .LVU206
 763 000c 0023     		movs	r3, #0
 764 000e 8360     		str	r3, [r0, #8]
 257:Core/Src/main.c ****   hi2c2.Init.DualAddressMode = I2C_DUALADDRESS_DISABLE;
 765              		.loc 1 257 3 is_stmt 1 view .LVU207
 257:Core/Src/main.c ****   hi2c2.Init.DualAddressMode = I2C_DUALADDRESS_DISABLE;
 766              		.loc 1 257 29 is_stmt 0 view .LVU208
 767 0010 0122     		movs	r2, #1
 768 0012 C260     		str	r2, [r0, #12]
 258:Core/Src/main.c ****   hi2c2.Init.OwnAddress2 = 0;
 769              		.loc 1 258 3 is_stmt 1 view .LVU209
 258:Core/Src/main.c ****   hi2c2.Init.OwnAddress2 = 0;
 770              		.loc 1 258 30 is_stmt 0 view .LVU210
 771 0014 0361     		str	r3, [r0, #16]
 259:Core/Src/main.c ****   hi2c2.Init.OwnAddress2Masks = I2C_OA2_NOMASK;
 772              		.loc 1 259 3 is_stmt 1 view .LVU211
 259:Core/Src/main.c ****   hi2c2.Init.OwnAddress2Masks = I2C_OA2_NOMASK;
 773              		.loc 1 259 26 is_stmt 0 view .LVU212
 774 0016 4361     		str	r3, [r0, #20]
 260:Core/Src/main.c ****   hi2c2.Init.GeneralCallMode = I2C_GENERALCALL_DISABLE;
 775              		.loc 1 260 3 is_stmt 1 view .LVU213
 260:Core/Src/main.c ****   hi2c2.Init.GeneralCallMode = I2C_GENERALCALL_DISABLE;
 776              		.loc 1 260 31 is_stmt 0 view .LVU214
 777 0018 8361     		str	r3, [r0, #24]
 261:Core/Src/main.c ****   hi2c2.Init.NoStretchMode = I2C_NOSTRETCH_DISABLE;
 778              		.loc 1 261 3 is_stmt 1 view .LVU215
 261:Core/Src/main.c ****   hi2c2.Init.NoStretchMode = I2C_NOSTRETCH_DISABLE;
 779              		.loc 1 261 30 is_stmt 0 view .LVU216
 780 001a C361     		str	r3, [r0, #28]
 262:Core/Src/main.c ****   if (HAL_I2C_Init(&hi2c2) != HAL_OK)
 781              		.loc 1 262 3 is_stmt 1 view .LVU217
 262:Core/Src/main.c ****   if (HAL_I2C_Init(&hi2c2) != HAL_OK)
 782              		.loc 1 262 28 is_stmt 0 view .LVU218
ARM GAS  /var/folders/kr/g9ry2bg56g773797gdtkvvkw0000gn/T//ccYFTcCO.s 			page 30


 783 001c 0362     		str	r3, [r0, #32]
 263:Core/Src/main.c ****   {
 784              		.loc 1 263 3 is_stmt 1 view .LVU219
 263:Core/Src/main.c ****   {
 785              		.loc 1 263 7 is_stmt 0 view .LVU220
 786 001e FFF7FEFF 		bl	HAL_I2C_Init
 787              	.LVL21:
 263:Core/Src/main.c ****   {
 788              		.loc 1 263 6 discriminator 1 view .LVU221
 789 0022 0028     		cmp	r0, #0
 790 0024 0CD1     		bne	.L43
 270:Core/Src/main.c ****   {
 791              		.loc 1 270 3 is_stmt 1 view .LVU222
 270:Core/Src/main.c ****   {
 792              		.loc 1 270 7 is_stmt 0 view .LVU223
 793 0026 0948     		ldr	r0, .L46
 794 0028 0021     		movs	r1, #0
 795 002a FFF7FEFF 		bl	HAL_I2CEx_ConfigAnalogFilter
 796              	.LVL22:
 270:Core/Src/main.c ****   {
 797              		.loc 1 270 6 discriminator 1 view .LVU224
 798 002e 0028     		cmp	r0, #0
 799 0030 08D1     		bne	.L44
 277:Core/Src/main.c ****   {
 800              		.loc 1 277 3 is_stmt 1 view .LVU225
 277:Core/Src/main.c ****   {
 801              		.loc 1 277 7 is_stmt 0 view .LVU226
 802 0032 0648     		ldr	r0, .L46
 803 0034 0021     		movs	r1, #0
 804 0036 FFF7FEFF 		bl	HAL_I2CEx_ConfigDigitalFilter
 805              	.LVL23:
 277:Core/Src/main.c ****   {
 806              		.loc 1 277 6 discriminator 1 view .LVU227
 807 003a 0028     		cmp	r0, #0
 808 003c 04D1     		bne	.L45
 285:Core/Src/main.c **** 
 809              		.loc 1 285 1 view .LVU228
 810              		@ sp needed
 811 003e 10BD     		pop	{r4, pc}
 812              	.L43:
 265:Core/Src/main.c ****   }
 813              		.loc 1 265 5 is_stmt 1 view .LVU229
 814 0040 FFF7FEFF 		bl	Error_Handler
 815              	.LVL24:
 816              	.L44:
 272:Core/Src/main.c ****   }
 817              		.loc 1 272 5 view .LVU230
 818 0044 FFF7FEFF 		bl	Error_Handler
 819              	.LVL25:
 820              	.L45:
 279:Core/Src/main.c ****   }
 821              		.loc 1 279 5 view .LVU231
 822 0048 FFF7FEFF 		bl	Error_Handler
 823              	.LVL26:
 824              	.L47:
 825              		.align	2
 826              	.L46:
ARM GAS  /var/folders/kr/g9ry2bg56g773797gdtkvvkw0000gn/T//ccYFTcCO.s 			page 31


 827 004c 00000000 		.word	hi2c2
 828 0050 00580040 		.word	1073764352
 829 0054 5D3E3020 		.word	540032605
 830              		.cfi_endproc
 831              	.LFE45:
 833              		.section	.text.MX_SPI2_Init,"ax",%progbits
 834              		.align	1
 835              		.syntax unified
 836              		.code	16
 837              		.thumb_func
 839              	MX_SPI2_Init:
 840              	.LFB46:
 293:Core/Src/main.c **** 
 841              		.loc 1 293 1 view -0
 842              		.cfi_startproc
 843              		@ args = 0, pretend = 0, frame = 0
 844              		@ frame_needed = 0, uses_anonymous_args = 0
 845 0000 10B5     		push	{r4, lr}
 846              	.LCFI7:
 847              		.cfi_def_cfa_offset 8
 848              		.cfi_offset 4, -8
 849              		.cfi_offset 14, -4
 303:Core/Src/main.c ****   hspi2.Init.Mode = SPI_MODE_MASTER;
 850              		.loc 1 303 3 view .LVU233
 303:Core/Src/main.c ****   hspi2.Init.Mode = SPI_MODE_MASTER;
 851              		.loc 1 303 18 is_stmt 0 view .LVU234
 852 0002 1048     		ldr	r0, .L51
 853 0004 104B     		ldr	r3, .L51+4
 854 0006 0360     		str	r3, [r0]
 304:Core/Src/main.c ****   hspi2.Init.Direction = SPI_DIRECTION_2LINES;
 855              		.loc 1 304 3 is_stmt 1 view .LVU235
 304:Core/Src/main.c ****   hspi2.Init.Direction = SPI_DIRECTION_2LINES;
 856              		.loc 1 304 19 is_stmt 0 view .LVU236
 857 0008 8223     		movs	r3, #130
 858 000a 5B00     		lsls	r3, r3, #1
 859 000c 4360     		str	r3, [r0, #4]
 305:Core/Src/main.c ****   hspi2.Init.DataSize = SPI_DATASIZE_4BIT;
 860              		.loc 1 305 3 is_stmt 1 view .LVU237
 305:Core/Src/main.c ****   hspi2.Init.DataSize = SPI_DATASIZE_4BIT;
 861              		.loc 1 305 24 is_stmt 0 view .LVU238
 862 000e 0023     		movs	r3, #0
 863 0010 8360     		str	r3, [r0, #8]
 306:Core/Src/main.c ****   hspi2.Init.CLKPolarity = SPI_POLARITY_LOW;
 864              		.loc 1 306 3 is_stmt 1 view .LVU239
 306:Core/Src/main.c ****   hspi2.Init.CLKPolarity = SPI_POLARITY_LOW;
 865              		.loc 1 306 23 is_stmt 0 view .LVU240
 866 0012 C022     		movs	r2, #192
 867 0014 9200     		lsls	r2, r2, #2
 868 0016 C260     		str	r2, [r0, #12]
 307:Core/Src/main.c ****   hspi2.Init.CLKPhase = SPI_PHASE_1EDGE;
 869              		.loc 1 307 3 is_stmt 1 view .LVU241
 307:Core/Src/main.c ****   hspi2.Init.CLKPhase = SPI_PHASE_1EDGE;
 870              		.loc 1 307 26 is_stmt 0 view .LVU242
 871 0018 0361     		str	r3, [r0, #16]
 308:Core/Src/main.c ****   hspi2.Init.NSS = SPI_NSS_SOFT;
 872              		.loc 1 308 3 is_stmt 1 view .LVU243
 308:Core/Src/main.c ****   hspi2.Init.NSS = SPI_NSS_SOFT;
ARM GAS  /var/folders/kr/g9ry2bg56g773797gdtkvvkw0000gn/T//ccYFTcCO.s 			page 32


 873              		.loc 1 308 23 is_stmt 0 view .LVU244
 874 001a 4361     		str	r3, [r0, #20]
 309:Core/Src/main.c ****   hspi2.Init.BaudRatePrescaler = SPI_BAUDRATEPRESCALER_4;
 875              		.loc 1 309 3 is_stmt 1 view .LVU245
 309:Core/Src/main.c ****   hspi2.Init.BaudRatePrescaler = SPI_BAUDRATEPRESCALER_4;
 876              		.loc 1 309 18 is_stmt 0 view .LVU246
 877 001c 013A     		subs	r2, r2, #1
 878 001e FF3A     		subs	r2, r2, #255
 879 0020 8261     		str	r2, [r0, #24]
 310:Core/Src/main.c ****   hspi2.Init.FirstBit = SPI_FIRSTBIT_MSB;
 880              		.loc 1 310 3 is_stmt 1 view .LVU247
 310:Core/Src/main.c ****   hspi2.Init.FirstBit = SPI_FIRSTBIT_MSB;
 881              		.loc 1 310 32 is_stmt 0 view .LVU248
 882 0022 F93A     		subs	r2, r2, #249
 883 0024 FF3A     		subs	r2, r2, #255
 884 0026 C261     		str	r2, [r0, #28]
 311:Core/Src/main.c ****   hspi2.Init.TIMode = SPI_TIMODE_DISABLE;
 885              		.loc 1 311 3 is_stmt 1 view .LVU249
 311:Core/Src/main.c ****   hspi2.Init.TIMode = SPI_TIMODE_DISABLE;
 886              		.loc 1 311 23 is_stmt 0 view .LVU250
 887 0028 0362     		str	r3, [r0, #32]
 312:Core/Src/main.c ****   hspi2.Init.CRCCalculation = SPI_CRCCALCULATION_DISABLE;
 888              		.loc 1 312 3 is_stmt 1 view .LVU251
 312:Core/Src/main.c ****   hspi2.Init.CRCCalculation = SPI_CRCCALCULATION_DISABLE;
 889              		.loc 1 312 21 is_stmt 0 view .LVU252
 890 002a 4362     		str	r3, [r0, #36]
 313:Core/Src/main.c ****   hspi2.Init.CRCPolynomial = 7;
 891              		.loc 1 313 3 is_stmt 1 view .LVU253
 313:Core/Src/main.c ****   hspi2.Init.CRCPolynomial = 7;
 892              		.loc 1 313 29 is_stmt 0 view .LVU254
 893 002c 8362     		str	r3, [r0, #40]
 314:Core/Src/main.c ****   hspi2.Init.CRCLength = SPI_CRC_LENGTH_DATASIZE;
 894              		.loc 1 314 3 is_stmt 1 view .LVU255
 314:Core/Src/main.c ****   hspi2.Init.CRCLength = SPI_CRC_LENGTH_DATASIZE;
 895              		.loc 1 314 28 is_stmt 0 view .LVU256
 896 002e 0721     		movs	r1, #7
 897 0030 C162     		str	r1, [r0, #44]
 315:Core/Src/main.c ****   hspi2.Init.NSSPMode = SPI_NSS_PULSE_ENABLE;
 898              		.loc 1 315 3 is_stmt 1 view .LVU257
 315:Core/Src/main.c ****   hspi2.Init.NSSPMode = SPI_NSS_PULSE_ENABLE;
 899              		.loc 1 315 24 is_stmt 0 view .LVU258
 900 0032 0363     		str	r3, [r0, #48]
 316:Core/Src/main.c ****   if (HAL_SPI_Init(&hspi2) != HAL_OK)
 901              		.loc 1 316 3 is_stmt 1 view .LVU259
 316:Core/Src/main.c ****   if (HAL_SPI_Init(&hspi2) != HAL_OK)
 902              		.loc 1 316 23 is_stmt 0 view .LVU260
 903 0034 4263     		str	r2, [r0, #52]
 317:Core/Src/main.c ****   {
 904              		.loc 1 317 3 is_stmt 1 view .LVU261
 317:Core/Src/main.c ****   {
 905              		.loc 1 317 7 is_stmt 0 view .LVU262
 906 0036 FFF7FEFF 		bl	HAL_SPI_Init
 907              	.LVL27:
 317:Core/Src/main.c ****   {
 908              		.loc 1 317 6 discriminator 1 view .LVU263
 909 003a 0028     		cmp	r0, #0
 910 003c 00D1     		bne	.L50
ARM GAS  /var/folders/kr/g9ry2bg56g773797gdtkvvkw0000gn/T//ccYFTcCO.s 			page 33


 325:Core/Src/main.c **** 
 911              		.loc 1 325 1 view .LVU264
 912              		@ sp needed
 913 003e 10BD     		pop	{r4, pc}
 914              	.L50:
 319:Core/Src/main.c ****   }
 915              		.loc 1 319 5 is_stmt 1 view .LVU265
 916 0040 FFF7FEFF 		bl	Error_Handler
 917              	.LVL28:
 918              	.L52:
 919              		.align	2
 920              	.L51:
 921 0044 00000000 		.word	hspi2
 922 0048 00380040 		.word	1073756160
 923              		.cfi_endproc
 924              	.LFE46:
 926              		.section	.text.MX_TSC_Init,"ax",%progbits
 927              		.align	1
 928              		.syntax unified
 929              		.code	16
 930              		.thumb_func
 932              	MX_TSC_Init:
 933              	.LFB47:
 333:Core/Src/main.c **** 
 934              		.loc 1 333 1 view -0
 935              		.cfi_startproc
 936              		@ args = 0, pretend = 0, frame = 0
 937              		@ frame_needed = 0, uses_anonymous_args = 0
 938 0000 10B5     		push	{r4, lr}
 939              	.LCFI8:
 940              		.cfi_def_cfa_offset 8
 941              		.cfi_offset 4, -8
 942              		.cfi_offset 14, -4
 345:Core/Src/main.c ****   htsc.Init.CTPulseHighLength = TSC_CTPH_2CYCLES;
 943              		.loc 1 345 3 view .LVU267
 345:Core/Src/main.c ****   htsc.Init.CTPulseHighLength = TSC_CTPH_2CYCLES;
 944              		.loc 1 345 17 is_stmt 0 view .LVU268
 945 0002 1348     		ldr	r0, .L56
 946 0004 134B     		ldr	r3, .L56+4
 947 0006 0360     		str	r3, [r0]
 346:Core/Src/main.c ****   htsc.Init.CTPulseLowLength = TSC_CTPL_2CYCLES;
 948              		.loc 1 346 3 is_stmt 1 view .LVU269
 346:Core/Src/main.c ****   htsc.Init.CTPulseLowLength = TSC_CTPL_2CYCLES;
 949              		.loc 1 346 31 is_stmt 0 view .LVU270
 950 0008 8023     		movs	r3, #128
 951 000a 5B05     		lsls	r3, r3, #21
 952 000c 4360     		str	r3, [r0, #4]
 347:Core/Src/main.c ****   htsc.Init.SpreadSpectrum = DISABLE;
 953              		.loc 1 347 3 is_stmt 1 view .LVU271
 347:Core/Src/main.c ****   htsc.Init.SpreadSpectrum = DISABLE;
 954              		.loc 1 347 30 is_stmt 0 view .LVU272
 955 000e 8023     		movs	r3, #128
 956 0010 5B04     		lsls	r3, r3, #17
 957 0012 8360     		str	r3, [r0, #8]
 348:Core/Src/main.c ****   htsc.Init.SpreadSpectrumDeviation = 1;
 958              		.loc 1 348 3 is_stmt 1 view .LVU273
 348:Core/Src/main.c ****   htsc.Init.SpreadSpectrumDeviation = 1;
ARM GAS  /var/folders/kr/g9ry2bg56g773797gdtkvvkw0000gn/T//ccYFTcCO.s 			page 34


 959              		.loc 1 348 28 is_stmt 0 view .LVU274
 960 0014 0023     		movs	r3, #0
 961 0016 0373     		strb	r3, [r0, #12]
 349:Core/Src/main.c ****   htsc.Init.SpreadSpectrumPrescaler = TSC_SS_PRESC_DIV1;
 962              		.loc 1 349 3 is_stmt 1 view .LVU275
 349:Core/Src/main.c ****   htsc.Init.SpreadSpectrumPrescaler = TSC_SS_PRESC_DIV1;
 963              		.loc 1 349 37 is_stmt 0 view .LVU276
 964 0018 0122     		movs	r2, #1
 965 001a 0261     		str	r2, [r0, #16]
 350:Core/Src/main.c ****   htsc.Init.PulseGeneratorPrescaler = TSC_PG_PRESC_DIV4;
 966              		.loc 1 350 3 is_stmt 1 view .LVU277
 350:Core/Src/main.c ****   htsc.Init.PulseGeneratorPrescaler = TSC_PG_PRESC_DIV4;
 967              		.loc 1 350 37 is_stmt 0 view .LVU278
 968 001c 4361     		str	r3, [r0, #20]
 351:Core/Src/main.c ****   htsc.Init.MaxCountValue = TSC_MCV_8191;
 969              		.loc 1 351 3 is_stmt 1 view .LVU279
 351:Core/Src/main.c ****   htsc.Init.MaxCountValue = TSC_MCV_8191;
 970              		.loc 1 351 37 is_stmt 0 view .LVU280
 971 001e 8022     		movs	r2, #128
 972 0020 9201     		lsls	r2, r2, #6
 973 0022 8261     		str	r2, [r0, #24]
 352:Core/Src/main.c ****   htsc.Init.IODefaultMode = TSC_IODEF_OUT_PP_LOW;
 974              		.loc 1 352 3 is_stmt 1 view .LVU281
 352:Core/Src/main.c ****   htsc.Init.IODefaultMode = TSC_IODEF_OUT_PP_LOW;
 975              		.loc 1 352 27 is_stmt 0 view .LVU282
 976 0024 A022     		movs	r2, #160
 977 0026 C261     		str	r2, [r0, #28]
 353:Core/Src/main.c ****   htsc.Init.SynchroPinPolarity = TSC_SYNC_POLARITY_FALLING;
 978              		.loc 1 353 3 is_stmt 1 view .LVU283
 353:Core/Src/main.c ****   htsc.Init.SynchroPinPolarity = TSC_SYNC_POLARITY_FALLING;
 979              		.loc 1 353 27 is_stmt 0 view .LVU284
 980 0028 0362     		str	r3, [r0, #32]
 354:Core/Src/main.c ****   htsc.Init.AcquisitionMode = TSC_ACQ_MODE_NORMAL;
 981              		.loc 1 354 3 is_stmt 1 view .LVU285
 354:Core/Src/main.c ****   htsc.Init.AcquisitionMode = TSC_ACQ_MODE_NORMAL;
 982              		.loc 1 354 32 is_stmt 0 view .LVU286
 983 002a 4362     		str	r3, [r0, #36]
 355:Core/Src/main.c ****   htsc.Init.MaxCountInterrupt = DISABLE;
 984              		.loc 1 355 3 is_stmt 1 view .LVU287
 355:Core/Src/main.c ****   htsc.Init.MaxCountInterrupt = DISABLE;
 985              		.loc 1 355 29 is_stmt 0 view .LVU288
 986 002c 8362     		str	r3, [r0, #40]
 356:Core/Src/main.c ****   htsc.Init.ChannelIOs = TSC_GROUP1_IO3|TSC_GROUP2_IO3|TSC_GROUP3_IO2;
 987              		.loc 1 356 3 is_stmt 1 view .LVU289
 356:Core/Src/main.c ****   htsc.Init.ChannelIOs = TSC_GROUP1_IO3|TSC_GROUP2_IO3|TSC_GROUP3_IO2;
 988              		.loc 1 356 31 is_stmt 0 view .LVU290
 989 002e 743A     		subs	r2, r2, #116
 990 0030 8354     		strb	r3, [r0, r2]
 357:Core/Src/main.c ****   htsc.Init.ShieldIOs = 0;
 991              		.loc 1 357 3 is_stmt 1 view .LVU291
 357:Core/Src/main.c ****   htsc.Init.ShieldIOs = 0;
 992              		.loc 1 357 24 is_stmt 0 view .LVU292
 993 0032 9122     		movs	r2, #145
 994 0034 9200     		lsls	r2, r2, #2
 995 0036 0263     		str	r2, [r0, #48]
 358:Core/Src/main.c ****   htsc.Init.SamplingIOs = TSC_GROUP1_IO4|TSC_GROUP2_IO4|TSC_GROUP3_IO3;
 996              		.loc 1 358 3 is_stmt 1 view .LVU293
ARM GAS  /var/folders/kr/g9ry2bg56g773797gdtkvvkw0000gn/T//ccYFTcCO.s 			page 35


 358:Core/Src/main.c ****   htsc.Init.SamplingIOs = TSC_GROUP1_IO4|TSC_GROUP2_IO4|TSC_GROUP3_IO3;
 997              		.loc 1 358 23 is_stmt 0 view .LVU294
 998 0038 4363     		str	r3, [r0, #52]
 359:Core/Src/main.c ****   if (HAL_TSC_Init(&htsc) != HAL_OK)
 999              		.loc 1 359 3 is_stmt 1 view .LVU295
 359:Core/Src/main.c ****   if (HAL_TSC_Init(&htsc) != HAL_OK)
 1000              		.loc 1 359 25 is_stmt 0 view .LVU296
 1001 003a 9123     		movs	r3, #145
 1002 003c DB00     		lsls	r3, r3, #3
 1003 003e 8363     		str	r3, [r0, #56]
 360:Core/Src/main.c ****   {
 1004              		.loc 1 360 3 is_stmt 1 view .LVU297
 360:Core/Src/main.c ****   {
 1005              		.loc 1 360 7 is_stmt 0 view .LVU298
 1006 0040 FFF7FEFF 		bl	HAL_TSC_Init
 1007              	.LVL29:
 360:Core/Src/main.c ****   {
 1008              		.loc 1 360 6 discriminator 1 view .LVU299
 1009 0044 0028     		cmp	r0, #0
 1010 0046 00D1     		bne	.L55
 368:Core/Src/main.c **** 
 1011              		.loc 1 368 1 view .LVU300
 1012              		@ sp needed
 1013 0048 10BD     		pop	{r4, pc}
 1014              	.L55:
 362:Core/Src/main.c ****   }
 1015              		.loc 1 362 5 is_stmt 1 view .LVU301
 1016 004a FFF7FEFF 		bl	Error_Handler
 1017              	.LVL30:
 1018              	.L57:
 1019 004e C046     		.align	2
 1020              	.L56:
 1021 0050 00000000 		.word	htsc
 1022 0054 00400240 		.word	1073889280
 1023              		.cfi_endproc
 1024              	.LFE47:
 1026              		.section	.text.MX_USB_PCD_Init,"ax",%progbits
 1027              		.align	1
 1028              		.syntax unified
 1029              		.code	16
 1030              		.thumb_func
 1032              	MX_USB_PCD_Init:
 1033              	.LFB48:
 376:Core/Src/main.c **** 
 1034              		.loc 1 376 1 view -0
 1035              		.cfi_startproc
 1036              		@ args = 0, pretend = 0, frame = 0
 1037              		@ frame_needed = 0, uses_anonymous_args = 0
 1038 0000 10B5     		push	{r4, lr}
 1039              	.LCFI9:
 1040              		.cfi_def_cfa_offset 8
 1041              		.cfi_offset 4, -8
 1042              		.cfi_offset 14, -4
 385:Core/Src/main.c ****   hpcd_USB_FS.Init.dev_endpoints = 8;
 1043              		.loc 1 385 3 view .LVU303
 385:Core/Src/main.c ****   hpcd_USB_FS.Init.dev_endpoints = 8;
 1044              		.loc 1 385 24 is_stmt 0 view .LVU304
ARM GAS  /var/folders/kr/g9ry2bg56g773797gdtkvvkw0000gn/T//ccYFTcCO.s 			page 36


 1045 0002 0948     		ldr	r0, .L61
 1046 0004 094B     		ldr	r3, .L61+4
 1047 0006 0360     		str	r3, [r0]
 386:Core/Src/main.c ****   hpcd_USB_FS.Init.speed = PCD_SPEED_FULL;
 1048              		.loc 1 386 3 is_stmt 1 view .LVU305
 386:Core/Src/main.c ****   hpcd_USB_FS.Init.speed = PCD_SPEED_FULL;
 1049              		.loc 1 386 34 is_stmt 0 view .LVU306
 1050 0008 0823     		movs	r3, #8
 1051 000a 4360     		str	r3, [r0, #4]
 387:Core/Src/main.c ****   hpcd_USB_FS.Init.phy_itface = PCD_PHY_EMBEDDED;
 1052              		.loc 1 387 3 is_stmt 1 view .LVU307
 387:Core/Src/main.c ****   hpcd_USB_FS.Init.phy_itface = PCD_PHY_EMBEDDED;
 1053              		.loc 1 387 26 is_stmt 0 view .LVU308
 1054 000c 063B     		subs	r3, r3, #6
 1055 000e 8360     		str	r3, [r0, #8]
 388:Core/Src/main.c ****   hpcd_USB_FS.Init.low_power_enable = DISABLE;
 1056              		.loc 1 388 3 is_stmt 1 view .LVU309
 388:Core/Src/main.c ****   hpcd_USB_FS.Init.low_power_enable = DISABLE;
 1057              		.loc 1 388 31 is_stmt 0 view .LVU310
 1058 0010 0361     		str	r3, [r0, #16]
 389:Core/Src/main.c ****   hpcd_USB_FS.Init.lpm_enable = DISABLE;
 1059              		.loc 1 389 3 is_stmt 1 view .LVU311
 389:Core/Src/main.c ****   hpcd_USB_FS.Init.lpm_enable = DISABLE;
 1060              		.loc 1 389 37 is_stmt 0 view .LVU312
 1061 0012 0023     		movs	r3, #0
 1062 0014 8361     		str	r3, [r0, #24]
 390:Core/Src/main.c ****   hpcd_USB_FS.Init.battery_charging_enable = DISABLE;
 1063              		.loc 1 390 3 is_stmt 1 view .LVU313
 390:Core/Src/main.c ****   hpcd_USB_FS.Init.battery_charging_enable = DISABLE;
 1064              		.loc 1 390 31 is_stmt 0 view .LVU314
 1065 0016 C361     		str	r3, [r0, #28]
 391:Core/Src/main.c ****   if (HAL_PCD_Init(&hpcd_USB_FS) != HAL_OK)
 1066              		.loc 1 391 3 is_stmt 1 view .LVU315
 391:Core/Src/main.c ****   if (HAL_PCD_Init(&hpcd_USB_FS) != HAL_OK)
 1067              		.loc 1 391 44 is_stmt 0 view .LVU316
 1068 0018 0362     		str	r3, [r0, #32]
 392:Core/Src/main.c ****   {
 1069              		.loc 1 392 3 is_stmt 1 view .LVU317
 392:Core/Src/main.c ****   {
 1070              		.loc 1 392 7 is_stmt 0 view .LVU318
 1071 001a FFF7FEFF 		bl	HAL_PCD_Init
 1072              	.LVL31:
 392:Core/Src/main.c ****   {
 1073              		.loc 1 392 6 discriminator 1 view .LVU319
 1074 001e 0028     		cmp	r0, #0
 1075 0020 00D1     		bne	.L60
 400:Core/Src/main.c **** 
 1076              		.loc 1 400 1 view .LVU320
 1077              		@ sp needed
 1078 0022 10BD     		pop	{r4, pc}
 1079              	.L60:
 394:Core/Src/main.c ****   }
 1080              		.loc 1 394 5 is_stmt 1 view .LVU321
 1081 0024 FFF7FEFF 		bl	Error_Handler
 1082              	.LVL32:
 1083              	.L62:
 1084              		.align	2
ARM GAS  /var/folders/kr/g9ry2bg56g773797gdtkvvkw0000gn/T//ccYFTcCO.s 			page 37


 1085              	.L61:
 1086 0028 00000000 		.word	hpcd_USB_FS
 1087 002c 005C0040 		.word	1073765376
 1088              		.cfi_endproc
 1089              	.LFE48:
 1091              		.section	.text.SystemClock_Config,"ax",%progbits
 1092              		.align	1
 1093              		.global	SystemClock_Config
 1094              		.syntax unified
 1095              		.code	16
 1096              		.thumb_func
 1098              	SystemClock_Config:
 1099              	.LFB44:
 197:Core/Src/main.c ****   RCC_OscInitTypeDef RCC_OscInitStruct = {0};
 1100              		.loc 1 197 1 view -0
 1101              		.cfi_startproc
 1102              		@ args = 0, pretend = 0, frame = 96
 1103              		@ frame_needed = 0, uses_anonymous_args = 0
 1104 0000 00B5     		push	{lr}
 1105              	.LCFI10:
 1106              		.cfi_def_cfa_offset 4
 1107              		.cfi_offset 14, -4
 1108 0002 99B0     		sub	sp, sp, #100
 1109              	.LCFI11:
 1110              		.cfi_def_cfa_offset 104
 198:Core/Src/main.c ****   RCC_ClkInitTypeDef RCC_ClkInitStruct = {0};
 1111              		.loc 1 198 3 view .LVU323
 198:Core/Src/main.c ****   RCC_ClkInitTypeDef RCC_ClkInitStruct = {0};
 1112              		.loc 1 198 22 is_stmt 0 view .LVU324
 1113 0004 3422     		movs	r2, #52
 1114 0006 0021     		movs	r1, #0
 1115 0008 0BA8     		add	r0, sp, #44
 1116 000a FFF7FEFF 		bl	memset
 1117              	.LVL33:
 199:Core/Src/main.c ****   RCC_PeriphCLKInitTypeDef PeriphClkInit = {0};
 1118              		.loc 1 199 3 is_stmt 1 view .LVU325
 199:Core/Src/main.c ****   RCC_PeriphCLKInitTypeDef PeriphClkInit = {0};
 1119              		.loc 1 199 22 is_stmt 0 view .LVU326
 1120 000e 1022     		movs	r2, #16
 1121 0010 0021     		movs	r1, #0
 1122 0012 07A8     		add	r0, sp, #28
 1123 0014 FFF7FEFF 		bl	memset
 1124              	.LVL34:
 200:Core/Src/main.c **** 
 1125              		.loc 1 200 3 is_stmt 1 view .LVU327
 200:Core/Src/main.c **** 
 1126              		.loc 1 200 28 is_stmt 0 view .LVU328
 1127 0018 1C22     		movs	r2, #28
 1128 001a 0021     		movs	r1, #0
 1129 001c 6846     		mov	r0, sp
 1130 001e FFF7FEFF 		bl	memset
 1131              	.LVL35:
 205:Core/Src/main.c ****   RCC_OscInitStruct.HSIState = RCC_HSI_ON;
 1132              		.loc 1 205 3 is_stmt 1 view .LVU329
 205:Core/Src/main.c ****   RCC_OscInitStruct.HSIState = RCC_HSI_ON;
 1133              		.loc 1 205 36 is_stmt 0 view .LVU330
 1134 0022 2223     		movs	r3, #34
ARM GAS  /var/folders/kr/g9ry2bg56g773797gdtkvvkw0000gn/T//ccYFTcCO.s 			page 38


 1135 0024 0B93     		str	r3, [sp, #44]
 206:Core/Src/main.c ****   RCC_OscInitStruct.HSI48State = RCC_HSI48_ON;
 1136              		.loc 1 206 3 is_stmt 1 view .LVU331
 206:Core/Src/main.c ****   RCC_OscInitStruct.HSI48State = RCC_HSI48_ON;
 1137              		.loc 1 206 30 is_stmt 0 view .LVU332
 1138 0026 213B     		subs	r3, r3, #33
 1139 0028 0E93     		str	r3, [sp, #56]
 207:Core/Src/main.c ****   RCC_OscInitStruct.HSICalibrationValue = RCC_HSICALIBRATION_DEFAULT;
 1140              		.loc 1 207 3 is_stmt 1 view .LVU333
 207:Core/Src/main.c ****   RCC_OscInitStruct.HSICalibrationValue = RCC_HSICALIBRATION_DEFAULT;
 1141              		.loc 1 207 32 is_stmt 0 view .LVU334
 1142 002a 1393     		str	r3, [sp, #76]
 208:Core/Src/main.c ****   RCC_OscInitStruct.PLL.PLLState = RCC_PLL_ON;
 1143              		.loc 1 208 3 is_stmt 1 view .LVU335
 208:Core/Src/main.c ****   RCC_OscInitStruct.PLL.PLLState = RCC_PLL_ON;
 1144              		.loc 1 208 41 is_stmt 0 view .LVU336
 1145 002c 0F33     		adds	r3, r3, #15
 1146 002e 0F93     		str	r3, [sp, #60]
 209:Core/Src/main.c ****   RCC_OscInitStruct.PLL.PLLSource = RCC_PLLSOURCE_HSI;
 1147              		.loc 1 209 3 is_stmt 1 view .LVU337
 209:Core/Src/main.c ****   RCC_OscInitStruct.PLL.PLLSource = RCC_PLLSOURCE_HSI;
 1148              		.loc 1 209 34 is_stmt 0 view .LVU338
 1149 0030 0E3B     		subs	r3, r3, #14
 1150 0032 1493     		str	r3, [sp, #80]
 210:Core/Src/main.c ****   RCC_OscInitStruct.PLL.PLLMUL = RCC_PLL_MUL6;
 1151              		.loc 1 210 3 is_stmt 1 view .LVU339
 210:Core/Src/main.c ****   RCC_OscInitStruct.PLL.PLLMUL = RCC_PLL_MUL6;
 1152              		.loc 1 210 35 is_stmt 0 view .LVU340
 1153 0034 8023     		movs	r3, #128
 1154 0036 1B02     		lsls	r3, r3, #8
 1155 0038 1593     		str	r3, [sp, #84]
 211:Core/Src/main.c ****   RCC_OscInitStruct.PLL.PREDIV = RCC_PREDIV_DIV1;
 1156              		.loc 1 211 3 is_stmt 1 view .LVU341
 211:Core/Src/main.c ****   RCC_OscInitStruct.PLL.PREDIV = RCC_PREDIV_DIV1;
 1157              		.loc 1 211 32 is_stmt 0 view .LVU342
 1158 003a 8023     		movs	r3, #128
 1159 003c 5B03     		lsls	r3, r3, #13
 1160 003e 1693     		str	r3, [sp, #88]
 212:Core/Src/main.c ****   if (HAL_RCC_OscConfig(&RCC_OscInitStruct) != HAL_OK)
 1161              		.loc 1 212 3 is_stmt 1 view .LVU343
 213:Core/Src/main.c ****   {
 1162              		.loc 1 213 3 view .LVU344
 213:Core/Src/main.c ****   {
 1163              		.loc 1 213 7 is_stmt 0 view .LVU345
 1164 0040 0BA8     		add	r0, sp, #44
 1165 0042 FFF7FEFF 		bl	HAL_RCC_OscConfig
 1166              	.LVL36:
 213:Core/Src/main.c ****   {
 1167              		.loc 1 213 6 discriminator 1 view .LVU346
 1168 0046 0028     		cmp	r0, #0
 1169 0048 18D1     		bne	.L67
 220:Core/Src/main.c ****                               |RCC_CLOCKTYPE_PCLK1;
 1170              		.loc 1 220 3 is_stmt 1 view .LVU347
 220:Core/Src/main.c ****                               |RCC_CLOCKTYPE_PCLK1;
 1171              		.loc 1 220 31 is_stmt 0 view .LVU348
 1172 004a 0723     		movs	r3, #7
 1173 004c 0793     		str	r3, [sp, #28]
ARM GAS  /var/folders/kr/g9ry2bg56g773797gdtkvvkw0000gn/T//ccYFTcCO.s 			page 39


 222:Core/Src/main.c ****   RCC_ClkInitStruct.AHBCLKDivider = RCC_SYSCLK_DIV1;
 1174              		.loc 1 222 3 is_stmt 1 view .LVU349
 222:Core/Src/main.c ****   RCC_ClkInitStruct.AHBCLKDivider = RCC_SYSCLK_DIV1;
 1175              		.loc 1 222 34 is_stmt 0 view .LVU350
 1176 004e 053B     		subs	r3, r3, #5
 1177 0050 0893     		str	r3, [sp, #32]
 223:Core/Src/main.c ****   RCC_ClkInitStruct.APB1CLKDivider = RCC_HCLK_DIV1;
 1178              		.loc 1 223 3 is_stmt 1 view .LVU351
 223:Core/Src/main.c ****   RCC_ClkInitStruct.APB1CLKDivider = RCC_HCLK_DIV1;
 1179              		.loc 1 223 35 is_stmt 0 view .LVU352
 1180 0052 0023     		movs	r3, #0
 1181 0054 0993     		str	r3, [sp, #36]
 224:Core/Src/main.c **** 
 1182              		.loc 1 224 3 is_stmt 1 view .LVU353
 224:Core/Src/main.c **** 
 1183              		.loc 1 224 36 is_stmt 0 view .LVU354
 1184 0056 0A93     		str	r3, [sp, #40]
 226:Core/Src/main.c ****   {
 1185              		.loc 1 226 3 is_stmt 1 view .LVU355
 226:Core/Src/main.c ****   {
 1186              		.loc 1 226 7 is_stmt 0 view .LVU356
 1187 0058 0121     		movs	r1, #1
 1188 005a 07A8     		add	r0, sp, #28
 1189 005c FFF7FEFF 		bl	HAL_RCC_ClockConfig
 1190              	.LVL37:
 226:Core/Src/main.c ****   {
 1191              		.loc 1 226 6 discriminator 1 view .LVU357
 1192 0060 0028     		cmp	r0, #0
 1193 0062 0DD1     		bne	.L68
 230:Core/Src/main.c ****   PeriphClkInit.UsbClockSelection = RCC_USBCLKSOURCE_HSI48;
 1194              		.loc 1 230 3 is_stmt 1 view .LVU358
 230:Core/Src/main.c ****   PeriphClkInit.UsbClockSelection = RCC_USBCLKSOURCE_HSI48;
 1195              		.loc 1 230 38 is_stmt 0 view .LVU359
 1196 0064 8023     		movs	r3, #128
 1197 0066 9B02     		lsls	r3, r3, #10
 1198 0068 0093     		str	r3, [sp]
 231:Core/Src/main.c **** 
 1199              		.loc 1 231 3 is_stmt 1 view .LVU360
 231:Core/Src/main.c **** 
 1200              		.loc 1 231 35 is_stmt 0 view .LVU361
 1201 006a 0023     		movs	r3, #0
 1202 006c 0693     		str	r3, [sp, #24]
 233:Core/Src/main.c ****   {
 1203              		.loc 1 233 3 is_stmt 1 view .LVU362
 233:Core/Src/main.c ****   {
 1204              		.loc 1 233 7 is_stmt 0 view .LVU363
 1205 006e 6846     		mov	r0, sp
 1206 0070 FFF7FEFF 		bl	HAL_RCCEx_PeriphCLKConfig
 1207              	.LVL38:
 233:Core/Src/main.c ****   {
 1208              		.loc 1 233 6 discriminator 1 view .LVU364
 1209 0074 0028     		cmp	r0, #0
 1210 0076 05D1     		bne	.L69
 237:Core/Src/main.c **** 
 1211              		.loc 1 237 1 view .LVU365
 1212 0078 19B0     		add	sp, sp, #100
 1213              		@ sp needed
ARM GAS  /var/folders/kr/g9ry2bg56g773797gdtkvvkw0000gn/T//ccYFTcCO.s 			page 40


 1214 007a 00BD     		pop	{pc}
 1215              	.L67:
 215:Core/Src/main.c ****   }
 1216              		.loc 1 215 5 is_stmt 1 view .LVU366
 1217 007c FFF7FEFF 		bl	Error_Handler
 1218              	.LVL39:
 1219              	.L68:
 228:Core/Src/main.c ****   }
 1220              		.loc 1 228 5 view .LVU367
 1221 0080 FFF7FEFF 		bl	Error_Handler
 1222              	.LVL40:
 1223              	.L69:
 235:Core/Src/main.c ****   }
 1224              		.loc 1 235 5 view .LVU368
 1225 0084 FFF7FEFF 		bl	Error_Handler
 1226              	.LVL41:
 1227              		.cfi_endproc
 1228              	.LFE44:
 1230              		.section	.text.main,"ax",%progbits
 1231              		.align	1
 1232              		.global	main
 1233              		.syntax unified
 1234              		.code	16
 1235              		.thumb_func
 1237              	main:
 1238              	.LFB43:
 105:Core/Src/main.c **** 
 1239              		.loc 1 105 1 view -0
 1240              		.cfi_startproc
 1241              		@ Volatile: function does not return.
 1242              		@ args = 0, pretend = 0, frame = 0
 1243              		@ frame_needed = 0, uses_anonymous_args = 0
 1244 0000 10B5     		push	{r4, lr}
 1245              	.LCFI12:
 1246              		.cfi_def_cfa_offset 8
 1247              		.cfi_offset 4, -8
 1248              		.cfi_offset 14, -4
 114:Core/Src/main.c **** 
 1249              		.loc 1 114 3 view .LVU370
 1250 0002 FFF7FEFF 		bl	HAL_Init
 1251              	.LVL42:
 121:Core/Src/main.c **** 
 1252              		.loc 1 121 3 view .LVU371
 1253 0006 FFF7FEFF 		bl	SystemClock_Config
 1254              	.LVL43:
 128:Core/Src/main.c ****   MX_I2C2_Init();
 1255              		.loc 1 128 3 view .LVU372
 1256 000a FFF7FEFF 		bl	MX_GPIO_Init
 1257              	.LVL44:
 129:Core/Src/main.c ****   MX_SPI2_Init();
 1258              		.loc 1 129 3 view .LVU373
 1259 000e FFF7FEFF 		bl	MX_I2C2_Init
 1260              	.LVL45:
 130:Core/Src/main.c ****   MX_TSC_Init();
 1261              		.loc 1 130 3 view .LVU374
 1262 0012 FFF7FEFF 		bl	MX_SPI2_Init
 1263              	.LVL46:
ARM GAS  /var/folders/kr/g9ry2bg56g773797gdtkvvkw0000gn/T//ccYFTcCO.s 			page 41


 131:Core/Src/main.c ****   MX_USB_PCD_Init();
 1264              		.loc 1 131 3 view .LVU375
 1265 0016 FFF7FEFF 		bl	MX_TSC_Init
 1266              	.LVL47:
 132:Core/Src/main.c **** 
 1267              		.loc 1 132 3 view .LVU376
 1268 001a FFF7FEFF 		bl	MX_USB_PCD_Init
 1269              	.LVL48:
 134:Core/Src/main.c ****   initLEDs();
 1270              		.loc 1 134 3 view .LVU377
 1271 001e FFF7FEFF 		bl	initUsart3
 1272              	.LVL49:
 135:Core/Src/main.c ****   /* USER CODE BEGIN 2 */
 1273              		.loc 1 135 3 view .LVU378
 1274 0022 FFF7FEFF 		bl	initLEDs
 1275              	.LVL50:
 141:Core/Src/main.c **** 
 1276              		.loc 1 141 3 view .LVU379
 1277 0026 FFF7FEFF 		bl	osKernelInitialize
 1278              	.LVL51:
 162:Core/Src/main.c ****   /* creation of LEDTask */
 1279              		.loc 1 162 3 view .LVU380
 162:Core/Src/main.c ****   /* creation of LEDTask */
 1280              		.loc 1 162 22 is_stmt 0 view .LVU381
 1281 002a 0C4A     		ldr	r2, .L72
 1282 002c 0C48     		ldr	r0, .L72+4
 1283 002e 0021     		movs	r1, #0
 1284 0030 FFF7FEFF 		bl	osThreadNew
 1285              	.LVL52:
 162:Core/Src/main.c ****   /* creation of LEDTask */
 1286              		.loc 1 162 20 discriminator 1 view .LVU382
 1287 0034 0B4B     		ldr	r3, .L72+8
 1288 0036 1860     		str	r0, [r3]
 164:Core/Src/main.c ****   /* creation of UART Task */
 1289              		.loc 1 164 3 is_stmt 1 view .LVU383
 164:Core/Src/main.c ****   /* creation of UART Task */
 1290              		.loc 1 164 19 is_stmt 0 view .LVU384
 1291 0038 0B4A     		ldr	r2, .L72+12
 1292 003a 0C48     		ldr	r0, .L72+16
 1293 003c 0021     		movs	r1, #0
 1294 003e FFF7FEFF 		bl	osThreadNew
 1295              	.LVL53:
 164:Core/Src/main.c ****   /* creation of UART Task */
 1296              		.loc 1 164 17 discriminator 1 view .LVU385
 1297 0042 0B4B     		ldr	r3, .L72+20
 1298 0044 1860     		str	r0, [r3]
 166:Core/Src/main.c **** 
 1299              		.loc 1 166 3 is_stmt 1 view .LVU386
 166:Core/Src/main.c **** 
 1300              		.loc 1 166 20 is_stmt 0 view .LVU387
 1301 0046 0B4A     		ldr	r2, .L72+24
 1302 0048 0B48     		ldr	r0, .L72+28
 1303 004a 0021     		movs	r1, #0
 1304 004c FFF7FEFF 		bl	osThreadNew
 1305              	.LVL54:
 166:Core/Src/main.c **** 
 1306              		.loc 1 166 18 discriminator 1 view .LVU388
ARM GAS  /var/folders/kr/g9ry2bg56g773797gdtkvvkw0000gn/T//ccYFTcCO.s 			page 42


 1307 0050 0A4B     		ldr	r3, .L72+32
 1308 0052 1860     		str	r0, [r3]
 177:Core/Src/main.c **** 
 1309              		.loc 1 177 3 is_stmt 1 view .LVU389
 1310 0054 FFF7FEFF 		bl	osKernelStart
 1311              	.LVL55:
 1312              	.L71:
 183:Core/Src/main.c ****   {
 1313              		.loc 1 183 3 view .LVU390
 188:Core/Src/main.c ****   /* USER CODE END 3 */
 1314              		.loc 1 188 3 view .LVU391
 183:Core/Src/main.c ****   {
 1315              		.loc 1 183 9 view .LVU392
 1316 0058 FEE7     		b	.L71
 1317              	.L73:
 1318 005a C046     		.align	2
 1319              	.L72:
 1320 005c 00000000 		.word	routerTask_attributes
 1321 0060 00000000 		.word	StartRouterTask
 1322 0064 00000000 		.word	routerTaskHandle
 1323 0068 00000000 		.word	LEDTask_attributes
 1324 006c 00000000 		.word	StartLEDTask
 1325 0070 00000000 		.word	LEDTaskHandle
 1326 0074 00000000 		.word	UARTTask_attributes
 1327 0078 00000000 		.word	StartParseUartTask
 1328 007c 00000000 		.word	UARTTaskHandle
 1329              		.cfi_endproc
 1330              	.LFE43:
 1332              		.global	LEDTask_attributes
 1333              		.section	.rodata.str1.4,"aMS",%progbits,1
 1334              		.align	2
 1335              	.LC18:
 1336 0000 4C454454 		.ascii	"LEDTask\000"
 1336      61736B00 
 1337              		.section	.rodata.LEDTask_attributes,"a"
 1338              		.align	2
 1341              	LEDTask_attributes:
 1342 0000 00000000 		.word	.LC18
 1343 0004 00000000 		.space	16
 1343      00000000 
 1343      00000000 
 1343      00000000 
 1344 0014 00020000 		.word	512
 1345 0018 18000000 		.word	24
 1346 001c 00000000 		.space	8
 1346      00000000 
 1347              		.global	LEDTaskHandle
 1348              		.section	.bss.LEDTaskHandle,"aw",%nobits
 1349              		.align	2
 1352              	LEDTaskHandle:
 1353 0000 00000000 		.space	4
 1354              		.global	routerTask_attributes
 1355              		.section	.rodata.str1.4
 1356              		.align	2
 1357              	.LC19:
 1358 0008 726F7574 		.ascii	"routerTask\000"
 1358      65725461 
ARM GAS  /var/folders/kr/g9ry2bg56g773797gdtkvvkw0000gn/T//ccYFTcCO.s 			page 43


 1358      736B00
 1359              		.section	.rodata.routerTask_attributes,"a"
 1360              		.align	2
 1363              	routerTask_attributes:
 1364 0000 08000000 		.word	.LC19
 1365 0004 00000000 		.space	16
 1365      00000000 
 1365      00000000 
 1365      00000000 
 1366 0014 00020000 		.word	512
 1367 0018 18000000 		.word	24
 1368 001c 00000000 		.space	8
 1368      00000000 
 1369              		.global	routerTaskHandle
 1370              		.section	.bss.routerTaskHandle,"aw",%nobits
 1371              		.align	2
 1374              	routerTaskHandle:
 1375 0000 00000000 		.space	4
 1376              		.global	hpcd_USB_FS
 1377              		.section	.bss.hpcd_USB_FS,"aw",%nobits
 1378              		.align	2
 1381              	hpcd_USB_FS:
 1382 0000 00000000 		.space	756
 1382      00000000 
 1382      00000000 
 1382      00000000 
 1382      00000000 
 1383              		.global	htsc
 1384              		.section	.bss.htsc,"aw",%nobits
 1385              		.align	2
 1388              	htsc:
 1389 0000 00000000 		.space	68
 1389      00000000 
 1389      00000000 
 1389      00000000 
 1389      00000000 
 1390              		.global	hspi2
 1391              		.section	.bss.hspi2,"aw",%nobits
 1392              		.align	2
 1395              	hspi2:
 1396 0000 00000000 		.space	100
 1396      00000000 
 1396      00000000 
 1396      00000000 
 1396      00000000 
 1397              		.global	hi2c2
 1398              		.section	.bss.hi2c2,"aw",%nobits
 1399              		.align	2
 1402              	hi2c2:
 1403 0000 00000000 		.space	84
 1403      00000000 
 1403      00000000 
 1403      00000000 
 1403      00000000 
 1404              		.global	binarySem04MotorWorkerHandle
 1405              		.section	.bss.binarySem04MotorWorkerHandle,"aw",%nobits
 1406              		.align	2
ARM GAS  /var/folders/kr/g9ry2bg56g773797gdtkvvkw0000gn/T//ccYFTcCO.s 			page 44


 1409              	binarySem04MotorWorkerHandle:
 1410 0000 00000000 		.space	4
 1411              		.global	binarySem03LEDWorkerHandle
 1412              		.section	.bss.binarySem03LEDWorkerHandle,"aw",%nobits
 1413              		.align	2
 1416              	binarySem03LEDWorkerHandle:
 1417 0000 00000000 		.space	4
 1418              		.global	commandMotor
 1419              		.section	.bss.commandMotor,"aw",%nobits
 1420              		.align	1
 1423              	commandMotor:
 1424 0000 0000     		.space	2
 1425              		.global	commandLED
 1426              		.section	.bss.commandLED,"aw",%nobits
 1427              		.align	1
 1430              	commandLED:
 1431 0000 0000     		.space	2
 1432              		.text
 1433              	.Letext0:
 1434              		.file 3 "/Applications/ArmGNUToolchain/13.2.Rel1/arm-none-eabi/arm-none-eabi/include/machine/_defa
 1435              		.file 4 "/Applications/ArmGNUToolchain/13.2.Rel1/arm-none-eabi/arm-none-eabi/include/sys/_stdint.h
 1436              		.file 5 "Drivers/CMSIS/Device/ST/STM32F0xx/Include/stm32f072xb.h"
 1437              		.file 6 "Drivers/CMSIS/Device/ST/STM32F0xx/Include/stm32f0xx.h"
 1438              		.file 7 "Drivers/STM32F0xx_HAL_Driver/Inc/stm32f0xx_hal_def.h"
 1439              		.file 8 "Drivers/STM32F0xx_HAL_Driver/Inc/stm32f0xx_hal_rcc.h"
 1440              		.file 9 "Drivers/STM32F0xx_HAL_Driver/Inc/stm32f0xx_hal_rcc_ex.h"
 1441              		.file 10 "Drivers/STM32F0xx_HAL_Driver/Inc/stm32f0xx_hal_gpio.h"
 1442              		.file 11 "Drivers/STM32F0xx_HAL_Driver/Inc/stm32f0xx_hal_dma.h"
 1443              		.file 12 "Drivers/STM32F0xx_HAL_Driver/Inc/stm32f0xx_hal_i2c.h"
 1444              		.file 13 "Drivers/STM32F0xx_HAL_Driver/Inc/stm32f0xx_ll_usb.h"
 1445              		.file 14 "Drivers/STM32F0xx_HAL_Driver/Inc/stm32f0xx_hal_pcd.h"
 1446              		.file 15 "Drivers/STM32F0xx_HAL_Driver/Inc/stm32f0xx_hal_spi.h"
 1447              		.file 16 "Drivers/STM32F0xx_HAL_Driver/Inc/stm32f0xx_hal_tim.h"
 1448              		.file 17 "Drivers/STM32F0xx_HAL_Driver/Inc/stm32f0xx_hal_tsc.h"
 1449              		.file 18 "Middlewares/Third_Party/FreeRTOS/Source/CMSIS_RTOS_V2/cmsis_os2.h"
 1450              		.file 19 "Core/Inc/cmdQueue.h"
 1451              		.file 20 "Core/Inc/uartParser.h"
 1452              		.file 21 "Core/Inc/main.h"
 1453              		.file 22 "Drivers/STM32F0xx_HAL_Driver/Inc/stm32f0xx_hal_i2c_ex.h"
 1454              		.file 23 "Drivers/STM32F0xx_HAL_Driver/Inc/stm32f0xx_hal.h"
 1455              		.file 24 "<built-in>"
ARM GAS  /var/folders/kr/g9ry2bg56g773797gdtkvvkw0000gn/T//ccYFTcCO.s 			page 45


DEFINED SYMBOLS
                            *ABS*:00000000 main.c
/var/folders/kr/g9ry2bg56g773797gdtkvvkw0000gn/T//ccYFTcCO.s:19     .text.MX_GPIO_Init:00000000 $t
/var/folders/kr/g9ry2bg56g773797gdtkvvkw0000gn/T//ccYFTcCO.s:24     .text.MX_GPIO_Init:00000000 MX_GPIO_Init
/var/folders/kr/g9ry2bg56g773797gdtkvvkw0000gn/T//ccYFTcCO.s:166    .text.MX_GPIO_Init:00000090 $d
/var/folders/kr/g9ry2bg56g773797gdtkvvkw0000gn/T//ccYFTcCO.s:173    .text.StartRouterTask:00000000 $t
/var/folders/kr/g9ry2bg56g773797gdtkvvkw0000gn/T//ccYFTcCO.s:179    .text.StartRouterTask:00000000 StartRouterTask
/var/folders/kr/g9ry2bg56g773797gdtkvvkw0000gn/T//ccYFTcCO.s:243    .text.StartRouterTask:00000040 $d
/var/folders/kr/g9ry2bg56g773797gdtkvvkw0000gn/T//ccYFTcCO.s:1430   .bss.commandLED:00000000 commandLED
/var/folders/kr/g9ry2bg56g773797gdtkvvkw0000gn/T//ccYFTcCO.s:1423   .bss.commandMotor:00000000 commandMotor
/var/folders/kr/g9ry2bg56g773797gdtkvvkw0000gn/T//ccYFTcCO.s:250    .text.StartLEDTask:00000000 $t
/var/folders/kr/g9ry2bg56g773797gdtkvvkw0000gn/T//ccYFTcCO.s:256    .text.StartLEDTask:00000000 StartLEDTask
/var/folders/kr/g9ry2bg56g773797gdtkvvkw0000gn/T//ccYFTcCO.s:468    .text.StartLEDTask:000000f8 $d
/var/folders/kr/g9ry2bg56g773797gdtkvvkw0000gn/T//ccYFTcCO.s:1416   .bss.binarySem03LEDWorkerHandle:00000000 binarySem03LEDWorkerHandle
/var/folders/kr/g9ry2bg56g773797gdtkvvkw0000gn/T//ccYFTcCO.s:475    .text.initLEDs:00000000 $t
/var/folders/kr/g9ry2bg56g773797gdtkvvkw0000gn/T//ccYFTcCO.s:481    .text.initLEDs:00000000 initLEDs
/var/folders/kr/g9ry2bg56g773797gdtkvvkw0000gn/T//ccYFTcCO.s:634    .text.initLEDs:000000a8 $d
/var/folders/kr/g9ry2bg56g773797gdtkvvkw0000gn/T//ccYFTcCO.s:652    .text.HAL_TIM_PeriodElapsedCallback:00000000 $t
/var/folders/kr/g9ry2bg56g773797gdtkvvkw0000gn/T//ccYFTcCO.s:658    .text.HAL_TIM_PeriodElapsedCallback:00000000 HAL_TIM_PeriodElapsedCallback
/var/folders/kr/g9ry2bg56g773797gdtkvvkw0000gn/T//ccYFTcCO.s:693    .text.HAL_TIM_PeriodElapsedCallback:00000014 $d
/var/folders/kr/g9ry2bg56g773797gdtkvvkw0000gn/T//ccYFTcCO.s:698    .text.Error_Handler:00000000 $t
/var/folders/kr/g9ry2bg56g773797gdtkvvkw0000gn/T//ccYFTcCO.s:704    .text.Error_Handler:00000000 Error_Handler
/var/folders/kr/g9ry2bg56g773797gdtkvvkw0000gn/T//ccYFTcCO.s:736    .text.MX_I2C2_Init:00000000 $t
/var/folders/kr/g9ry2bg56g773797gdtkvvkw0000gn/T//ccYFTcCO.s:741    .text.MX_I2C2_Init:00000000 MX_I2C2_Init
/var/folders/kr/g9ry2bg56g773797gdtkvvkw0000gn/T//ccYFTcCO.s:827    .text.MX_I2C2_Init:0000004c $d
/var/folders/kr/g9ry2bg56g773797gdtkvvkw0000gn/T//ccYFTcCO.s:1402   .bss.hi2c2:00000000 hi2c2
/var/folders/kr/g9ry2bg56g773797gdtkvvkw0000gn/T//ccYFTcCO.s:834    .text.MX_SPI2_Init:00000000 $t
/var/folders/kr/g9ry2bg56g773797gdtkvvkw0000gn/T//ccYFTcCO.s:839    .text.MX_SPI2_Init:00000000 MX_SPI2_Init
/var/folders/kr/g9ry2bg56g773797gdtkvvkw0000gn/T//ccYFTcCO.s:921    .text.MX_SPI2_Init:00000044 $d
/var/folders/kr/g9ry2bg56g773797gdtkvvkw0000gn/T//ccYFTcCO.s:1395   .bss.hspi2:00000000 hspi2
/var/folders/kr/g9ry2bg56g773797gdtkvvkw0000gn/T//ccYFTcCO.s:927    .text.MX_TSC_Init:00000000 $t
/var/folders/kr/g9ry2bg56g773797gdtkvvkw0000gn/T//ccYFTcCO.s:932    .text.MX_TSC_Init:00000000 MX_TSC_Init
/var/folders/kr/g9ry2bg56g773797gdtkvvkw0000gn/T//ccYFTcCO.s:1021   .text.MX_TSC_Init:00000050 $d
/var/folders/kr/g9ry2bg56g773797gdtkvvkw0000gn/T//ccYFTcCO.s:1388   .bss.htsc:00000000 htsc
/var/folders/kr/g9ry2bg56g773797gdtkvvkw0000gn/T//ccYFTcCO.s:1027   .text.MX_USB_PCD_Init:00000000 $t
/var/folders/kr/g9ry2bg56g773797gdtkvvkw0000gn/T//ccYFTcCO.s:1032   .text.MX_USB_PCD_Init:00000000 MX_USB_PCD_Init
/var/folders/kr/g9ry2bg56g773797gdtkvvkw0000gn/T//ccYFTcCO.s:1086   .text.MX_USB_PCD_Init:00000028 $d
/var/folders/kr/g9ry2bg56g773797gdtkvvkw0000gn/T//ccYFTcCO.s:1381   .bss.hpcd_USB_FS:00000000 hpcd_USB_FS
/var/folders/kr/g9ry2bg56g773797gdtkvvkw0000gn/T//ccYFTcCO.s:1092   .text.SystemClock_Config:00000000 $t
/var/folders/kr/g9ry2bg56g773797gdtkvvkw0000gn/T//ccYFTcCO.s:1098   .text.SystemClock_Config:00000000 SystemClock_Config
/var/folders/kr/g9ry2bg56g773797gdtkvvkw0000gn/T//ccYFTcCO.s:1231   .text.main:00000000 $t
/var/folders/kr/g9ry2bg56g773797gdtkvvkw0000gn/T//ccYFTcCO.s:1237   .text.main:00000000 main
/var/folders/kr/g9ry2bg56g773797gdtkvvkw0000gn/T//ccYFTcCO.s:1320   .text.main:0000005c $d
/var/folders/kr/g9ry2bg56g773797gdtkvvkw0000gn/T//ccYFTcCO.s:1363   .rodata.routerTask_attributes:00000000 routerTask_attributes
/var/folders/kr/g9ry2bg56g773797gdtkvvkw0000gn/T//ccYFTcCO.s:1374   .bss.routerTaskHandle:00000000 routerTaskHandle
/var/folders/kr/g9ry2bg56g773797gdtkvvkw0000gn/T//ccYFTcCO.s:1341   .rodata.LEDTask_attributes:00000000 LEDTask_attributes
/var/folders/kr/g9ry2bg56g773797gdtkvvkw0000gn/T//ccYFTcCO.s:1352   .bss.LEDTaskHandle:00000000 LEDTaskHandle
/var/folders/kr/g9ry2bg56g773797gdtkvvkw0000gn/T//ccYFTcCO.s:1334   .rodata.str1.4:00000000 $d
/var/folders/kr/g9ry2bg56g773797gdtkvvkw0000gn/T//ccYFTcCO.s:1338   .rodata.LEDTask_attributes:00000000 $d
/var/folders/kr/g9ry2bg56g773797gdtkvvkw0000gn/T//ccYFTcCO.s:1349   .bss.LEDTaskHandle:00000000 $d
/var/folders/kr/g9ry2bg56g773797gdtkvvkw0000gn/T//ccYFTcCO.s:1360   .rodata.routerTask_attributes:00000000 $d
/var/folders/kr/g9ry2bg56g773797gdtkvvkw0000gn/T//ccYFTcCO.s:1371   .bss.routerTaskHandle:00000000 $d
/var/folders/kr/g9ry2bg56g773797gdtkvvkw0000gn/T//ccYFTcCO.s:1378   .bss.hpcd_USB_FS:00000000 $d
/var/folders/kr/g9ry2bg56g773797gdtkvvkw0000gn/T//ccYFTcCO.s:1385   .bss.htsc:00000000 $d
/var/folders/kr/g9ry2bg56g773797gdtkvvkw0000gn/T//ccYFTcCO.s:1392   .bss.hspi2:00000000 $d
/var/folders/kr/g9ry2bg56g773797gdtkvvkw0000gn/T//ccYFTcCO.s:1399   .bss.hi2c2:00000000 $d
/var/folders/kr/g9ry2bg56g773797gdtkvvkw0000gn/T//ccYFTcCO.s:1409   .bss.binarySem04MotorWorkerHandle:00000000 binarySem04MotorWorkerHandle
ARM GAS  /var/folders/kr/g9ry2bg56g773797gdtkvvkw0000gn/T//ccYFTcCO.s 			page 46


/var/folders/kr/g9ry2bg56g773797gdtkvvkw0000gn/T//ccYFTcCO.s:1406   .bss.binarySem04MotorWorkerHandle:00000000 $d
/var/folders/kr/g9ry2bg56g773797gdtkvvkw0000gn/T//ccYFTcCO.s:1413   .bss.binarySem03LEDWorkerHandle:00000000 $d
/var/folders/kr/g9ry2bg56g773797gdtkvvkw0000gn/T//ccYFTcCO.s:1420   .bss.commandMotor:00000000 $d
/var/folders/kr/g9ry2bg56g773797gdtkvvkw0000gn/T//ccYFTcCO.s:1427   .bss.commandLED:00000000 $d

UNDEFINED SYMBOLS
memset
HAL_GPIO_WritePin
HAL_GPIO_Init
isQueueEmpty
osDelay
queuePop
cmdQueue
osSemaphoreNew
osSemaphoreRelease
osSemaphoreAcquire
HAL_IncTick
HAL_I2C_Init
HAL_I2CEx_ConfigAnalogFilter
HAL_I2CEx_ConfigDigitalFilter
HAL_SPI_Init
HAL_TSC_Init
HAL_PCD_Init
HAL_RCC_OscConfig
HAL_RCC_ClockConfig
HAL_RCCEx_PeriphCLKConfig
HAL_Init
initUsart3
osKernelInitialize
osThreadNew
osKernelStart
UARTTask_attributes
StartParseUartTask
UARTTaskHandle
