ARM GAS  /var/folders/kr/g9ry2bg56g773797gdtkvvkw0000gn/T//ccwMwPEG.s 			page 1


   1              		.cpu cortex-m0
   2              		.arch armv6s-m
   3              		.fpu softvfp
   4              		.eabi_attribute 20, 1
   5              		.eabi_attribute 21, 1
   6              		.eabi_attribute 23, 3
   7              		.eabi_attribute 24, 1
   8              		.eabi_attribute 25, 1
   9              		.eabi_attribute 26, 1
  10              		.eabi_attribute 30, 1
  11              		.eabi_attribute 34, 0
  12              		.eabi_attribute 18, 4
  13              		.file	"main.c"
  14              		.text
  15              	.Ltext0:
  16              		.cfi_sections	.debug_frame
  17              		.file 1 "Core/Src/main.c"
  18              		.section	.text.StartRouterTask,"ax",%progbits
  19              		.align	1
  20              		.global	StartRouterTask
  21              		.syntax unified
  22              		.code	16
  23              		.thumb_func
  25              	StartRouterTask:
  26              	.LFB50:
   1:Core/Src/main.c **** /* USER CODE BEGIN Header */
   2:Core/Src/main.c **** /**
   3:Core/Src/main.c ****   ******************************************************************************
   4:Core/Src/main.c ****   * @file           : main.c
   5:Core/Src/main.c ****   * @brief          : Main program body
   6:Core/Src/main.c ****   ******************************************************************************
   7:Core/Src/main.c ****   * @attention
   8:Core/Src/main.c ****   *
   9:Core/Src/main.c ****   * Copyright (c) 2024 STMicroelectronics.
  10:Core/Src/main.c ****   * All rights reserved.
  11:Core/Src/main.c ****   *
  12:Core/Src/main.c ****   * This software is licensed under terms that can be found in the LICENSE file
  13:Core/Src/main.c ****   * in the root directory of this software component.
  14:Core/Src/main.c ****   * If no LICENSE file comes with this software, it is provided AS-IS.
  15:Core/Src/main.c ****   *
  16:Core/Src/main.c ****   ******************************************************************************
  17:Core/Src/main.c ****   */
  18:Core/Src/main.c **** /* USER CODE END Header */
  19:Core/Src/main.c **** /* Includes ------------------------------------------------------------------*/
  20:Core/Src/main.c **** #include "main.h"
  21:Core/Src/main.c **** #include "cmsis_os.h"
  22:Core/Src/main.c **** #include "stm32f072xb.h"
  23:Core/Src/main.c **** 
  24:Core/Src/main.c **** /* Private includes ----------------------------------------------------------*/
  25:Core/Src/main.c **** /* USER CODE BEGIN Includes */
  26:Core/Src/main.c **** 
  27:Core/Src/main.c **** /* USER CODE END Includes */
  28:Core/Src/main.c **** 
  29:Core/Src/main.c **** /* Private typedef -----------------------------------------------------------*/
  30:Core/Src/main.c **** /* USER CODE BEGIN PTD */
  31:Core/Src/main.c **** 
  32:Core/Src/main.c **** /* USER CODE END PTD */
ARM GAS  /var/folders/kr/g9ry2bg56g773797gdtkvvkw0000gn/T//ccwMwPEG.s 			page 2


  33:Core/Src/main.c **** 
  34:Core/Src/main.c **** /* Private define ------------------------------------------------------------*/
  35:Core/Src/main.c **** /* USER CODE BEGIN PD */
  36:Core/Src/main.c **** 
  37:Core/Src/main.c **** /* USER CODE END PD */
  38:Core/Src/main.c **** 
  39:Core/Src/main.c **** /* Private macro -------------------------------------------------------------*/
  40:Core/Src/main.c **** /* USER CODE BEGIN PM */
  41:Core/Src/main.c **** 
  42:Core/Src/main.c **** /* USER CODE END PM */
  43:Core/Src/main.c **** 
  44:Core/Src/main.c **** /* Private variables ---------------------------------------------------------*/
  45:Core/Src/main.c **** I2C_HandleTypeDef hi2c2;
  46:Core/Src/main.c **** 
  47:Core/Src/main.c **** SPI_HandleTypeDef hspi2;
  48:Core/Src/main.c **** 
  49:Core/Src/main.c **** TSC_HandleTypeDef htsc;
  50:Core/Src/main.c **** 
  51:Core/Src/main.c **** PCD_HandleTypeDef hpcd_USB_FS;
  52:Core/Src/main.c **** /* Definitions for task router */
  53:Core/Src/main.c **** osThreadId_t routerTaskHandle;
  54:Core/Src/main.c **** const osThreadAttr_t routerTask_attributes = {
  55:Core/Src/main.c ****   .name = "routerTask",
  56:Core/Src/main.c ****   .stack_size = 128 * 4,
  57:Core/Src/main.c ****   .priority = (osPriority_t) osPriorityNormal,
  58:Core/Src/main.c **** };
  59:Core/Src/main.c **** 
  60:Core/Src/main.c **** /* Definitions for task blink1 */
  61:Core/Src/main.c **** osThreadId_t LEDTaskHandle;
  62:Core/Src/main.c **** const osThreadAttr_t LEDTask_attributes = {
  63:Core/Src/main.c ****   .name = "LEDTask",
  64:Core/Src/main.c ****   .stack_size = 128 * 4,
  65:Core/Src/main.c ****   .priority = (osPriority_t) osPriorityNormal,
  66:Core/Src/main.c **** };
  67:Core/Src/main.c **** 
  68:Core/Src/main.c **** /* USER CODE BEGIN PV */
  69:Core/Src/main.c **** 
  70:Core/Src/main.c **** /* USER CODE END PV */
  71:Core/Src/main.c **** 
  72:Core/Src/main.c **** /* Private function prototypes -----------------------------------------------*/
  73:Core/Src/main.c **** void SystemClock_Config(void);
  74:Core/Src/main.c **** static void MX_GPIO_Init(void);
  75:Core/Src/main.c **** static void MX_I2C2_Init(void);
  76:Core/Src/main.c **** static void MX_SPI2_Init(void);
  77:Core/Src/main.c **** static void MX_TSC_Init(void);
  78:Core/Src/main.c **** static void MX_USB_PCD_Init(void);
  79:Core/Src/main.c **** void StartRouterTask(void *argument);
  80:Core/Src/main.c **** void StartLEDTask(void *argument);
  81:Core/Src/main.c **** 
  82:Core/Src/main.c **** /* USER CODE BEGIN PFP */
  83:Core/Src/main.c **** 
  84:Core/Src/main.c **** /* USER CODE END PFP */
  85:Core/Src/main.c **** 
  86:Core/Src/main.c **** /* Private user code ---------------------------------------------------------*/
  87:Core/Src/main.c **** /* USER CODE BEGIN 0 */
  88:Core/Src/main.c **** 
  89:Core/Src/main.c **** /* USER CODE END 0 */
ARM GAS  /var/folders/kr/g9ry2bg56g773797gdtkvvkw0000gn/T//ccwMwPEG.s 			page 3


  90:Core/Src/main.c **** 
  91:Core/Src/main.c **** /**
  92:Core/Src/main.c ****   * @brief  The application entry point.
  93:Core/Src/main.c ****   * @retval int
  94:Core/Src/main.c ****   */
  95:Core/Src/main.c **** int main(void)
  96:Core/Src/main.c **** {
  97:Core/Src/main.c **** 
  98:Core/Src/main.c ****   /* USER CODE BEGIN 1 */
  99:Core/Src/main.c **** 
 100:Core/Src/main.c ****   /* USER CODE END 1 */
 101:Core/Src/main.c **** 
 102:Core/Src/main.c ****   /* MCU Configuration--------------------------------------------------------*/
 103:Core/Src/main.c **** 
 104:Core/Src/main.c ****   /* Reset of all peripherals, Initializes the Flash interface and the Systick. */
 105:Core/Src/main.c ****   HAL_Init();
 106:Core/Src/main.c **** 
 107:Core/Src/main.c ****   /* USER CODE BEGIN Init */
 108:Core/Src/main.c **** 
 109:Core/Src/main.c ****   /* USER CODE END Init */
 110:Core/Src/main.c **** 
 111:Core/Src/main.c ****   /* Configure the system clock */
 112:Core/Src/main.c ****   SystemClock_Config();
 113:Core/Src/main.c **** 
 114:Core/Src/main.c ****   /* USER CODE BEGIN SysInit */
 115:Core/Src/main.c **** 
 116:Core/Src/main.c ****   /* USER CODE END SysInit */
 117:Core/Src/main.c **** 
 118:Core/Src/main.c ****   /* Initialize all configured peripherals */
 119:Core/Src/main.c ****   MX_GPIO_Init();
 120:Core/Src/main.c ****   MX_I2C2_Init();
 121:Core/Src/main.c ****   MX_SPI2_Init();
 122:Core/Src/main.c ****   MX_TSC_Init();
 123:Core/Src/main.c ****   MX_USB_PCD_Init();
 124:Core/Src/main.c **** 
 125:Core/Src/main.c ****   initUsart3();
 126:Core/Src/main.c ****   /* USER CODE BEGIN 2 */
 127:Core/Src/main.c **** 
 128:Core/Src/main.c ****   /* USER CODE END 2 */
 129:Core/Src/main.c **** 
 130:Core/Src/main.c ****   /* Init scheduler */
 131:Core/Src/main.c ****   osKernelInitialize();
 132:Core/Src/main.c **** 
 133:Core/Src/main.c ****   /* USER CODE BEGIN RTOS_MUTEX */
 134:Core/Src/main.c ****   /* add mutexes, ... */
 135:Core/Src/main.c ****   /* USER CODE END RTOS_MUTEX */
 136:Core/Src/main.c **** 
 137:Core/Src/main.c ****   /* USER CODE BEGIN RTOS_SEMAPHORES */
 138:Core/Src/main.c ****   /* add semaphores, ... */
 139:Core/Src/main.c ****   /* USER CODE END RTOS_SEMAPHORES */
 140:Core/Src/main.c **** 
 141:Core/Src/main.c ****   /* USER CODE BEGIN RTOS_TIMERS */
 142:Core/Src/main.c ****   /* start timers, add new ones, ... */
 143:Core/Src/main.c ****   /* USER CODE END RTOS_TIMERS */
 144:Core/Src/main.c **** 
 145:Core/Src/main.c ****   /* USER CODE BEGIN RTOS_QUEUES */
 146:Core/Src/main.c ****   /* add queues, ... */
ARM GAS  /var/folders/kr/g9ry2bg56g773797gdtkvvkw0000gn/T//ccwMwPEG.s 			page 4


 147:Core/Src/main.c ****   /* USER CODE END RTOS_QUEUES */
 148:Core/Src/main.c **** 
 149:Core/Src/main.c ****   /* Create the thread(s) */
 150:Core/Src/main.c ****   /* creation of routerTask */
 151:Core/Src/main.c ****   routerTaskHandle = osThreadNew(StartRouterTask, NULL, &routerTask_attributes);
 152:Core/Src/main.c ****   /* creation of LEDTask */
 153:Core/Src/main.c ****   LEDTaskHandle = osThreadNew(StartLEDTask, NULL, &LEDTask_attributes);
 154:Core/Src/main.c **** 
 155:Core/Src/main.c ****   /* USER CODE BEGIN RTOS_THREADS */
 156:Core/Src/main.c ****   /* add threads, ... */
 157:Core/Src/main.c ****   /* USER CODE END RTOS_THREADS */
 158:Core/Src/main.c **** 
 159:Core/Src/main.c ****   /* USER CODE BEGIN RTOS_EVENTS */
 160:Core/Src/main.c ****   /* add events, ... */
 161:Core/Src/main.c ****   /* USER CODE END RTOS_EVENTS */
 162:Core/Src/main.c **** 
 163:Core/Src/main.c ****   /* Start scheduler */
 164:Core/Src/main.c ****   osKernelStart();
 165:Core/Src/main.c **** 
 166:Core/Src/main.c ****   /* We should never get here as control is now taken by the scheduler */
 167:Core/Src/main.c **** 
 168:Core/Src/main.c ****   /* Infinite loop */
 169:Core/Src/main.c ****   /* USER CODE BEGIN WHILE */
 170:Core/Src/main.c ****   while (1)
 171:Core/Src/main.c ****   {
 172:Core/Src/main.c ****     /* USER CODE END WHILE */
 173:Core/Src/main.c **** 
 174:Core/Src/main.c ****     /* USER CODE BEGIN 3 */
 175:Core/Src/main.c ****   }
 176:Core/Src/main.c ****   /* USER CODE END 3 */
 177:Core/Src/main.c **** }
 178:Core/Src/main.c **** 
 179:Core/Src/main.c **** /**
 180:Core/Src/main.c ****   * @brief System Clock Configuration
 181:Core/Src/main.c ****   * @retval None
 182:Core/Src/main.c ****   */
 183:Core/Src/main.c **** void SystemClock_Config(void)
 184:Core/Src/main.c **** {
 185:Core/Src/main.c ****   RCC_OscInitTypeDef RCC_OscInitStruct = {0};
 186:Core/Src/main.c ****   RCC_ClkInitTypeDef RCC_ClkInitStruct = {0};
 187:Core/Src/main.c ****   RCC_PeriphCLKInitTypeDef PeriphClkInit = {0};
 188:Core/Src/main.c **** 
 189:Core/Src/main.c ****   /** Initializes the RCC Oscillators according to the specified parameters
 190:Core/Src/main.c ****   * in the RCC_OscInitTypeDef structure.
 191:Core/Src/main.c ****   */
 192:Core/Src/main.c ****   RCC_OscInitStruct.OscillatorType = RCC_OSCILLATORTYPE_HSI|RCC_OSCILLATORTYPE_HSI48;
 193:Core/Src/main.c ****   RCC_OscInitStruct.HSIState = RCC_HSI_ON;
 194:Core/Src/main.c ****   RCC_OscInitStruct.HSI48State = RCC_HSI48_ON;
 195:Core/Src/main.c ****   RCC_OscInitStruct.HSICalibrationValue = RCC_HSICALIBRATION_DEFAULT;
 196:Core/Src/main.c ****   RCC_OscInitStruct.PLL.PLLState = RCC_PLL_ON;
 197:Core/Src/main.c ****   RCC_OscInitStruct.PLL.PLLSource = RCC_PLLSOURCE_HSI;
 198:Core/Src/main.c ****   RCC_OscInitStruct.PLL.PLLMUL = RCC_PLL_MUL6;
 199:Core/Src/main.c ****   RCC_OscInitStruct.PLL.PREDIV = RCC_PREDIV_DIV1;
 200:Core/Src/main.c ****   if (HAL_RCC_OscConfig(&RCC_OscInitStruct) != HAL_OK)
 201:Core/Src/main.c ****   {
 202:Core/Src/main.c ****     Error_Handler();
 203:Core/Src/main.c ****   }
ARM GAS  /var/folders/kr/g9ry2bg56g773797gdtkvvkw0000gn/T//ccwMwPEG.s 			page 5


 204:Core/Src/main.c **** 
 205:Core/Src/main.c ****   /** Initializes the CPU, AHB and APB buses clocks
 206:Core/Src/main.c ****   */
 207:Core/Src/main.c ****   RCC_ClkInitStruct.ClockType = RCC_CLOCKTYPE_HCLK|RCC_CLOCKTYPE_SYSCLK
 208:Core/Src/main.c ****                               |RCC_CLOCKTYPE_PCLK1;
 209:Core/Src/main.c ****   RCC_ClkInitStruct.SYSCLKSource = RCC_SYSCLKSOURCE_PLLCLK;
 210:Core/Src/main.c ****   RCC_ClkInitStruct.AHBCLKDivider = RCC_SYSCLK_DIV1;
 211:Core/Src/main.c ****   RCC_ClkInitStruct.APB1CLKDivider = RCC_HCLK_DIV1;
 212:Core/Src/main.c **** 
 213:Core/Src/main.c ****   if (HAL_RCC_ClockConfig(&RCC_ClkInitStruct, FLASH_LATENCY_1) != HAL_OK)
 214:Core/Src/main.c ****   {
 215:Core/Src/main.c ****     Error_Handler();
 216:Core/Src/main.c ****   }
 217:Core/Src/main.c ****   PeriphClkInit.PeriphClockSelection = RCC_PERIPHCLK_USB;
 218:Core/Src/main.c ****   PeriphClkInit.UsbClockSelection = RCC_USBCLKSOURCE_HSI48;
 219:Core/Src/main.c **** 
 220:Core/Src/main.c ****   if (HAL_RCCEx_PeriphCLKConfig(&PeriphClkInit) != HAL_OK)
 221:Core/Src/main.c ****   {
 222:Core/Src/main.c ****     Error_Handler();
 223:Core/Src/main.c ****   }
 224:Core/Src/main.c **** }
 225:Core/Src/main.c **** 
 226:Core/Src/main.c **** /**
 227:Core/Src/main.c ****   * @brief I2C2 Initialization Function
 228:Core/Src/main.c ****   * @param None
 229:Core/Src/main.c ****   * @retval None
 230:Core/Src/main.c ****   */
 231:Core/Src/main.c **** static void MX_I2C2_Init(void)
 232:Core/Src/main.c **** {
 233:Core/Src/main.c **** 
 234:Core/Src/main.c ****   /* USER CODE BEGIN I2C2_Init 0 */
 235:Core/Src/main.c **** 
 236:Core/Src/main.c ****   /* USER CODE END I2C2_Init 0 */
 237:Core/Src/main.c **** 
 238:Core/Src/main.c ****   /* USER CODE BEGIN I2C2_Init 1 */
 239:Core/Src/main.c **** 
 240:Core/Src/main.c ****   /* USER CODE END I2C2_Init 1 */
 241:Core/Src/main.c ****   hi2c2.Instance = I2C2;
 242:Core/Src/main.c ****   hi2c2.Init.Timing = 0x20303E5D;
 243:Core/Src/main.c ****   hi2c2.Init.OwnAddress1 = 0;
 244:Core/Src/main.c ****   hi2c2.Init.AddressingMode = I2C_ADDRESSINGMODE_7BIT;
 245:Core/Src/main.c ****   hi2c2.Init.DualAddressMode = I2C_DUALADDRESS_DISABLE;
 246:Core/Src/main.c ****   hi2c2.Init.OwnAddress2 = 0;
 247:Core/Src/main.c ****   hi2c2.Init.OwnAddress2Masks = I2C_OA2_NOMASK;
 248:Core/Src/main.c ****   hi2c2.Init.GeneralCallMode = I2C_GENERALCALL_DISABLE;
 249:Core/Src/main.c ****   hi2c2.Init.NoStretchMode = I2C_NOSTRETCH_DISABLE;
 250:Core/Src/main.c ****   if (HAL_I2C_Init(&hi2c2) != HAL_OK)
 251:Core/Src/main.c ****   {
 252:Core/Src/main.c ****     Error_Handler();
 253:Core/Src/main.c ****   }
 254:Core/Src/main.c **** 
 255:Core/Src/main.c ****   /** Configure Analogue filter
 256:Core/Src/main.c ****   */
 257:Core/Src/main.c ****   if (HAL_I2CEx_ConfigAnalogFilter(&hi2c2, I2C_ANALOGFILTER_ENABLE) != HAL_OK)
 258:Core/Src/main.c ****   {
 259:Core/Src/main.c ****     Error_Handler();
 260:Core/Src/main.c ****   }
ARM GAS  /var/folders/kr/g9ry2bg56g773797gdtkvvkw0000gn/T//ccwMwPEG.s 			page 6


 261:Core/Src/main.c **** 
 262:Core/Src/main.c ****   /** Configure Digital filter
 263:Core/Src/main.c ****   */
 264:Core/Src/main.c ****   if (HAL_I2CEx_ConfigDigitalFilter(&hi2c2, 0) != HAL_OK)
 265:Core/Src/main.c ****   {
 266:Core/Src/main.c ****     Error_Handler();
 267:Core/Src/main.c ****   }
 268:Core/Src/main.c ****   /* USER CODE BEGIN I2C2_Init 2 */
 269:Core/Src/main.c **** 
 270:Core/Src/main.c ****   /* USER CODE END I2C2_Init 2 */
 271:Core/Src/main.c **** 
 272:Core/Src/main.c **** }
 273:Core/Src/main.c **** 
 274:Core/Src/main.c **** /**
 275:Core/Src/main.c ****   * @brief SPI2 Initialization Function
 276:Core/Src/main.c ****   * @param None
 277:Core/Src/main.c ****   * @retval None
 278:Core/Src/main.c ****   */
 279:Core/Src/main.c **** static void MX_SPI2_Init(void)
 280:Core/Src/main.c **** {
 281:Core/Src/main.c **** 
 282:Core/Src/main.c ****   /* USER CODE BEGIN SPI2_Init 0 */
 283:Core/Src/main.c **** 
 284:Core/Src/main.c ****   /* USER CODE END SPI2_Init 0 */
 285:Core/Src/main.c **** 
 286:Core/Src/main.c ****   /* USER CODE BEGIN SPI2_Init 1 */
 287:Core/Src/main.c **** 
 288:Core/Src/main.c ****   /* USER CODE END SPI2_Init 1 */
 289:Core/Src/main.c ****   /* SPI2 parameter configuration*/
 290:Core/Src/main.c ****   hspi2.Instance = SPI2;
 291:Core/Src/main.c ****   hspi2.Init.Mode = SPI_MODE_MASTER;
 292:Core/Src/main.c ****   hspi2.Init.Direction = SPI_DIRECTION_2LINES;
 293:Core/Src/main.c ****   hspi2.Init.DataSize = SPI_DATASIZE_4BIT;
 294:Core/Src/main.c ****   hspi2.Init.CLKPolarity = SPI_POLARITY_LOW;
 295:Core/Src/main.c ****   hspi2.Init.CLKPhase = SPI_PHASE_1EDGE;
 296:Core/Src/main.c ****   hspi2.Init.NSS = SPI_NSS_SOFT;
 297:Core/Src/main.c ****   hspi2.Init.BaudRatePrescaler = SPI_BAUDRATEPRESCALER_4;
 298:Core/Src/main.c ****   hspi2.Init.FirstBit = SPI_FIRSTBIT_MSB;
 299:Core/Src/main.c ****   hspi2.Init.TIMode = SPI_TIMODE_DISABLE;
 300:Core/Src/main.c ****   hspi2.Init.CRCCalculation = SPI_CRCCALCULATION_DISABLE;
 301:Core/Src/main.c ****   hspi2.Init.CRCPolynomial = 7;
 302:Core/Src/main.c ****   hspi2.Init.CRCLength = SPI_CRC_LENGTH_DATASIZE;
 303:Core/Src/main.c ****   hspi2.Init.NSSPMode = SPI_NSS_PULSE_ENABLE;
 304:Core/Src/main.c ****   if (HAL_SPI_Init(&hspi2) != HAL_OK)
 305:Core/Src/main.c ****   {
 306:Core/Src/main.c ****     Error_Handler();
 307:Core/Src/main.c ****   }
 308:Core/Src/main.c ****   /* USER CODE BEGIN SPI2_Init 2 */
 309:Core/Src/main.c **** 
 310:Core/Src/main.c ****   /* USER CODE END SPI2_Init 2 */
 311:Core/Src/main.c **** 
 312:Core/Src/main.c **** }
 313:Core/Src/main.c **** 
 314:Core/Src/main.c **** /**
 315:Core/Src/main.c ****   * @brief TSC Initialization Function
 316:Core/Src/main.c ****   * @param None
 317:Core/Src/main.c ****   * @retval None
ARM GAS  /var/folders/kr/g9ry2bg56g773797gdtkvvkw0000gn/T//ccwMwPEG.s 			page 7


 318:Core/Src/main.c ****   */
 319:Core/Src/main.c **** static void MX_TSC_Init(void)
 320:Core/Src/main.c **** {
 321:Core/Src/main.c **** 
 322:Core/Src/main.c ****   /* USER CODE BEGIN TSC_Init 0 */
 323:Core/Src/main.c **** 
 324:Core/Src/main.c ****   /* USER CODE END TSC_Init 0 */
 325:Core/Src/main.c **** 
 326:Core/Src/main.c ****   /* USER CODE BEGIN TSC_Init 1 */
 327:Core/Src/main.c **** 
 328:Core/Src/main.c ****   /* USER CODE END TSC_Init 1 */
 329:Core/Src/main.c **** 
 330:Core/Src/main.c ****   /** Configure the TSC peripheral
 331:Core/Src/main.c ****   */
 332:Core/Src/main.c ****   htsc.Instance = TSC;
 333:Core/Src/main.c ****   htsc.Init.CTPulseHighLength = TSC_CTPH_2CYCLES;
 334:Core/Src/main.c ****   htsc.Init.CTPulseLowLength = TSC_CTPL_2CYCLES;
 335:Core/Src/main.c ****   htsc.Init.SpreadSpectrum = DISABLE;
 336:Core/Src/main.c ****   htsc.Init.SpreadSpectrumDeviation = 1;
 337:Core/Src/main.c ****   htsc.Init.SpreadSpectrumPrescaler = TSC_SS_PRESC_DIV1;
 338:Core/Src/main.c ****   htsc.Init.PulseGeneratorPrescaler = TSC_PG_PRESC_DIV4;
 339:Core/Src/main.c ****   htsc.Init.MaxCountValue = TSC_MCV_8191;
 340:Core/Src/main.c ****   htsc.Init.IODefaultMode = TSC_IODEF_OUT_PP_LOW;
 341:Core/Src/main.c ****   htsc.Init.SynchroPinPolarity = TSC_SYNC_POLARITY_FALLING;
 342:Core/Src/main.c ****   htsc.Init.AcquisitionMode = TSC_ACQ_MODE_NORMAL;
 343:Core/Src/main.c ****   htsc.Init.MaxCountInterrupt = DISABLE;
 344:Core/Src/main.c ****   htsc.Init.ChannelIOs = TSC_GROUP1_IO3|TSC_GROUP2_IO3|TSC_GROUP3_IO2;
 345:Core/Src/main.c ****   htsc.Init.ShieldIOs = 0;
 346:Core/Src/main.c ****   htsc.Init.SamplingIOs = TSC_GROUP1_IO4|TSC_GROUP2_IO4|TSC_GROUP3_IO3;
 347:Core/Src/main.c ****   if (HAL_TSC_Init(&htsc) != HAL_OK)
 348:Core/Src/main.c ****   {
 349:Core/Src/main.c ****     Error_Handler();
 350:Core/Src/main.c ****   }
 351:Core/Src/main.c ****   /* USER CODE BEGIN TSC_Init 2 */
 352:Core/Src/main.c **** 
 353:Core/Src/main.c ****   /* USER CODE END TSC_Init 2 */
 354:Core/Src/main.c **** 
 355:Core/Src/main.c **** }
 356:Core/Src/main.c **** 
 357:Core/Src/main.c **** /**
 358:Core/Src/main.c ****   * @brief USB Initialization Function
 359:Core/Src/main.c ****   * @param None
 360:Core/Src/main.c ****   * @retval None
 361:Core/Src/main.c ****   */
 362:Core/Src/main.c **** static void MX_USB_PCD_Init(void)
 363:Core/Src/main.c **** {
 364:Core/Src/main.c **** 
 365:Core/Src/main.c ****   /* USER CODE BEGIN USB_Init 0 */
 366:Core/Src/main.c **** 
 367:Core/Src/main.c ****   /* USER CODE END USB_Init 0 */
 368:Core/Src/main.c **** 
 369:Core/Src/main.c ****   /* USER CODE BEGIN USB_Init 1 */
 370:Core/Src/main.c **** 
 371:Core/Src/main.c ****   /* USER CODE END USB_Init 1 */
 372:Core/Src/main.c ****   hpcd_USB_FS.Instance = USB;
 373:Core/Src/main.c ****   hpcd_USB_FS.Init.dev_endpoints = 8;
 374:Core/Src/main.c ****   hpcd_USB_FS.Init.speed = PCD_SPEED_FULL;
ARM GAS  /var/folders/kr/g9ry2bg56g773797gdtkvvkw0000gn/T//ccwMwPEG.s 			page 8


 375:Core/Src/main.c ****   hpcd_USB_FS.Init.phy_itface = PCD_PHY_EMBEDDED;
 376:Core/Src/main.c ****   hpcd_USB_FS.Init.low_power_enable = DISABLE;
 377:Core/Src/main.c ****   hpcd_USB_FS.Init.lpm_enable = DISABLE;
 378:Core/Src/main.c ****   hpcd_USB_FS.Init.battery_charging_enable = DISABLE;
 379:Core/Src/main.c ****   if (HAL_PCD_Init(&hpcd_USB_FS) != HAL_OK)
 380:Core/Src/main.c ****   {
 381:Core/Src/main.c ****     Error_Handler();
 382:Core/Src/main.c ****   }
 383:Core/Src/main.c ****   /* USER CODE BEGIN USB_Init 2 */
 384:Core/Src/main.c **** 
 385:Core/Src/main.c ****   /* USER CODE END USB_Init 2 */
 386:Core/Src/main.c **** 
 387:Core/Src/main.c **** }
 388:Core/Src/main.c **** 
 389:Core/Src/main.c **** /**
 390:Core/Src/main.c ****   * @brief GPIO Initialization Function
 391:Core/Src/main.c ****   * @param None
 392:Core/Src/main.c ****   * @retval None
 393:Core/Src/main.c ****   */
 394:Core/Src/main.c **** static void MX_GPIO_Init(void)
 395:Core/Src/main.c **** {
 396:Core/Src/main.c ****   GPIO_InitTypeDef GPIO_InitStruct = {0};
 397:Core/Src/main.c **** /* USER CODE BEGIN MX_GPIO_Init_1 */
 398:Core/Src/main.c **** /* USER CODE END MX_GPIO_Init_1 */
 399:Core/Src/main.c **** 
 400:Core/Src/main.c ****   /* GPIO Ports Clock Enable */
 401:Core/Src/main.c ****   __HAL_RCC_GPIOC_CLK_ENABLE();
 402:Core/Src/main.c ****   __HAL_RCC_GPIOA_CLK_ENABLE();
 403:Core/Src/main.c ****   __HAL_RCC_GPIOB_CLK_ENABLE();
 404:Core/Src/main.c **** 
 405:Core/Src/main.c ****   /*Configure GPIO pin Output Level */
 406:Core/Src/main.c ****   HAL_GPIO_WritePin(GPIOC, NCS_MEMS_SPI_Pin|EXT_RESET_Pin|LD3_Pin|LD6_Pin
 407:Core/Src/main.c ****                           |LD4_Pin|LD5_Pin, GPIO_PIN_RESET);
 408:Core/Src/main.c **** 
 409:Core/Src/main.c ****   /*Configure GPIO pins : NCS_MEMS_SPI_Pin EXT_RESET_Pin LD3_Pin LD6_Pin
 410:Core/Src/main.c ****                            LD4_Pin LD5_Pin */
 411:Core/Src/main.c ****   GPIO_InitStruct.Pin = NCS_MEMS_SPI_Pin|EXT_RESET_Pin|LD3_Pin|LD6_Pin
 412:Core/Src/main.c ****                           |LD4_Pin|LD5_Pin;
 413:Core/Src/main.c ****   GPIO_InitStruct.Mode = GPIO_MODE_OUTPUT_PP;
 414:Core/Src/main.c ****   GPIO_InitStruct.Pull = GPIO_NOPULL;
 415:Core/Src/main.c ****   GPIO_InitStruct.Speed = GPIO_SPEED_FREQ_LOW;
 416:Core/Src/main.c ****   HAL_GPIO_Init(GPIOC, &GPIO_InitStruct);
 417:Core/Src/main.c **** 
 418:Core/Src/main.c ****   /*Configure GPIO pins : MEMS_INT1_Pin MEMS_INT2_Pin */
 419:Core/Src/main.c ****   GPIO_InitStruct.Pin = MEMS_INT1_Pin|MEMS_INT2_Pin;
 420:Core/Src/main.c ****   GPIO_InitStruct.Mode = GPIO_MODE_EVT_RISING;
 421:Core/Src/main.c ****   GPIO_InitStruct.Pull = GPIO_NOPULL;
 422:Core/Src/main.c ****   HAL_GPIO_Init(GPIOC, &GPIO_InitStruct);
 423:Core/Src/main.c **** 
 424:Core/Src/main.c ****   /*Configure GPIO pin : B1_Pin */
 425:Core/Src/main.c ****   GPIO_InitStruct.Pin = B1_Pin;
 426:Core/Src/main.c ****   GPIO_InitStruct.Mode = GPIO_MODE_EVT_RISING;
 427:Core/Src/main.c ****   GPIO_InitStruct.Pull = GPIO_NOPULL;
 428:Core/Src/main.c ****   HAL_GPIO_Init(B1_GPIO_Port, &GPIO_InitStruct);
 429:Core/Src/main.c **** 
 430:Core/Src/main.c **** /* USER CODE BEGIN MX_GPIO_Init_2 */
 431:Core/Src/main.c **** /* USER CODE END MX_GPIO_Init_2 */
ARM GAS  /var/folders/kr/g9ry2bg56g773797gdtkvvkw0000gn/T//ccwMwPEG.s 			page 9


 432:Core/Src/main.c **** }
 433:Core/Src/main.c **** 
 434:Core/Src/main.c **** /* USER CODE BEGIN 4 */
 435:Core/Src/main.c **** 
 436:Core/Src/main.c **** /* USER CODE END 4 */
 437:Core/Src/main.c **** 
 438:Core/Src/main.c **** /* USER CODE BEGIN Header_StartRouterTask */
 439:Core/Src/main.c **** /**
 440:Core/Src/main.c ****   * @brief  Function implementing the routerTask thread.
 441:Core/Src/main.c ****   * @param  argument: Not used
 442:Core/Src/main.c ****   * @retval None
 443:Core/Src/main.c ****   */
 444:Core/Src/main.c **** /* USER CODE END Header_StartRouterTask */
 445:Core/Src/main.c **** void StartRouterTask(void *argument)
 446:Core/Src/main.c **** {
  27              		.loc 1 446 1 view -0
  28              		.cfi_startproc
  29              		@ Volatile: function does not return.
  30              		@ args = 0, pretend = 0, frame = 0
  31              		@ frame_needed = 0, uses_anonymous_args = 0
  32              		@ link register save eliminated.
  33              	.LVL0:
  34              	.L2:
 447:Core/Src/main.c ****   /* USER CODE BEGIN 5 */
 448:Core/Src/main.c ****   /* Infinite loop */
 449:Core/Src/main.c ****   for(;;)
  35              		.loc 1 449 3 view .LVU1
 450:Core/Src/main.c ****   {
 451:Core/Src/main.c ****     //If queue is not empty
 452:Core/Src/main.c ****       //Retrieve command from queue
 453:Core/Src/main.c ****       //Determine which worker task corresponds to command
 454:Core/Src/main.c ****       //Wait until worker task is not busy/full
 455:Core/Src/main.c ****       //Send command to worker
 456:Core/Src/main.c ****         //Write command to global variable
 457:Core/Src/main.c ****         //wake worker - vtaskresume
 458:Core/Src/main.c ****   }
  36              		.loc 1 458 3 view .LVU2
 449:Core/Src/main.c ****   {
  37              		.loc 1 449 3 view .LVU3
  38 0000 FEE7     		b	.L2
  39              		.cfi_endproc
  40              	.LFE50:
  42              		.section	.text.MX_GPIO_Init,"ax",%progbits
  43              		.align	1
  44              		.syntax unified
  45              		.code	16
  46              		.thumb_func
  48              	MX_GPIO_Init:
  49              	.LFB49:
 395:Core/Src/main.c ****   GPIO_InitTypeDef GPIO_InitStruct = {0};
  50              		.loc 1 395 1 view -0
  51              		.cfi_startproc
  52              		@ args = 0, pretend = 0, frame = 32
  53              		@ frame_needed = 0, uses_anonymous_args = 0
  54 0000 F0B5     		push	{r4, r5, r6, r7, lr}
  55              	.LCFI0:
  56              		.cfi_def_cfa_offset 20
ARM GAS  /var/folders/kr/g9ry2bg56g773797gdtkvvkw0000gn/T//ccwMwPEG.s 			page 10


  57              		.cfi_offset 4, -20
  58              		.cfi_offset 5, -16
  59              		.cfi_offset 6, -12
  60              		.cfi_offset 7, -8
  61              		.cfi_offset 14, -4
  62 0002 89B0     		sub	sp, sp, #36
  63              	.LCFI1:
  64              		.cfi_def_cfa_offset 56
 396:Core/Src/main.c **** /* USER CODE BEGIN MX_GPIO_Init_1 */
  65              		.loc 1 396 3 view .LVU5
 396:Core/Src/main.c **** /* USER CODE BEGIN MX_GPIO_Init_1 */
  66              		.loc 1 396 20 is_stmt 0 view .LVU6
  67 0004 1422     		movs	r2, #20
  68 0006 0021     		movs	r1, #0
  69 0008 03A8     		add	r0, sp, #12
  70 000a FFF7FEFF 		bl	memset
  71              	.LVL1:
 401:Core/Src/main.c ****   __HAL_RCC_GPIOA_CLK_ENABLE();
  72              		.loc 1 401 3 is_stmt 1 view .LVU7
  73              	.LBB4:
 401:Core/Src/main.c ****   __HAL_RCC_GPIOA_CLK_ENABLE();
  74              		.loc 1 401 3 view .LVU8
 401:Core/Src/main.c ****   __HAL_RCC_GPIOA_CLK_ENABLE();
  75              		.loc 1 401 3 view .LVU9
  76 000e 204B     		ldr	r3, .L4
  77 0010 5A69     		ldr	r2, [r3, #20]
  78 0012 8021     		movs	r1, #128
  79 0014 0903     		lsls	r1, r1, #12
  80 0016 0A43     		orrs	r2, r1
  81 0018 5A61     		str	r2, [r3, #20]
 401:Core/Src/main.c ****   __HAL_RCC_GPIOA_CLK_ENABLE();
  82              		.loc 1 401 3 view .LVU10
  83 001a 5A69     		ldr	r2, [r3, #20]
  84 001c 0A40     		ands	r2, r1
  85 001e 0092     		str	r2, [sp]
 401:Core/Src/main.c ****   __HAL_RCC_GPIOA_CLK_ENABLE();
  86              		.loc 1 401 3 view .LVU11
  87 0020 009A     		ldr	r2, [sp]
  88              	.LBE4:
 401:Core/Src/main.c ****   __HAL_RCC_GPIOA_CLK_ENABLE();
  89              		.loc 1 401 3 view .LVU12
 402:Core/Src/main.c ****   __HAL_RCC_GPIOB_CLK_ENABLE();
  90              		.loc 1 402 3 view .LVU13
  91              	.LBB5:
 402:Core/Src/main.c ****   __HAL_RCC_GPIOB_CLK_ENABLE();
  92              		.loc 1 402 3 view .LVU14
 402:Core/Src/main.c ****   __HAL_RCC_GPIOB_CLK_ENABLE();
  93              		.loc 1 402 3 view .LVU15
  94 0022 5A69     		ldr	r2, [r3, #20]
  95 0024 8021     		movs	r1, #128
  96 0026 8902     		lsls	r1, r1, #10
  97 0028 0A43     		orrs	r2, r1
  98 002a 5A61     		str	r2, [r3, #20]
 402:Core/Src/main.c ****   __HAL_RCC_GPIOB_CLK_ENABLE();
  99              		.loc 1 402 3 view .LVU16
 100 002c 5A69     		ldr	r2, [r3, #20]
 101 002e 0A40     		ands	r2, r1
ARM GAS  /var/folders/kr/g9ry2bg56g773797gdtkvvkw0000gn/T//ccwMwPEG.s 			page 11


 102 0030 0192     		str	r2, [sp, #4]
 402:Core/Src/main.c ****   __HAL_RCC_GPIOB_CLK_ENABLE();
 103              		.loc 1 402 3 view .LVU17
 104 0032 019A     		ldr	r2, [sp, #4]
 105              	.LBE5:
 402:Core/Src/main.c ****   __HAL_RCC_GPIOB_CLK_ENABLE();
 106              		.loc 1 402 3 view .LVU18
 403:Core/Src/main.c **** 
 107              		.loc 1 403 3 view .LVU19
 108              	.LBB6:
 403:Core/Src/main.c **** 
 109              		.loc 1 403 3 view .LVU20
 403:Core/Src/main.c **** 
 110              		.loc 1 403 3 view .LVU21
 111 0034 5A69     		ldr	r2, [r3, #20]
 112 0036 8021     		movs	r1, #128
 113 0038 C902     		lsls	r1, r1, #11
 114 003a 0A43     		orrs	r2, r1
 115 003c 5A61     		str	r2, [r3, #20]
 403:Core/Src/main.c **** 
 116              		.loc 1 403 3 view .LVU22
 117 003e 5B69     		ldr	r3, [r3, #20]
 118 0040 0B40     		ands	r3, r1
 119 0042 0293     		str	r3, [sp, #8]
 403:Core/Src/main.c **** 
 120              		.loc 1 403 3 view .LVU23
 121 0044 029B     		ldr	r3, [sp, #8]
 122              	.LBE6:
 403:Core/Src/main.c **** 
 123              		.loc 1 403 3 view .LVU24
 406:Core/Src/main.c ****                           |LD4_Pin|LD5_Pin, GPIO_PIN_RESET);
 124              		.loc 1 406 3 view .LVU25
 125 0046 134C     		ldr	r4, .L4+4
 126 0048 134D     		ldr	r5, .L4+8
 127 004a 0022     		movs	r2, #0
 128 004c 2100     		movs	r1, r4
 129 004e 2800     		movs	r0, r5
 130 0050 FFF7FEFF 		bl	HAL_GPIO_WritePin
 131              	.LVL2:
 411:Core/Src/main.c ****                           |LD4_Pin|LD5_Pin;
 132              		.loc 1 411 3 view .LVU26
 411:Core/Src/main.c ****                           |LD4_Pin|LD5_Pin;
 133              		.loc 1 411 23 is_stmt 0 view .LVU27
 134 0054 0394     		str	r4, [sp, #12]
 413:Core/Src/main.c ****   GPIO_InitStruct.Pull = GPIO_NOPULL;
 135              		.loc 1 413 3 is_stmt 1 view .LVU28
 413:Core/Src/main.c ****   GPIO_InitStruct.Pull = GPIO_NOPULL;
 136              		.loc 1 413 24 is_stmt 0 view .LVU29
 137 0056 0127     		movs	r7, #1
 138 0058 0497     		str	r7, [sp, #16]
 414:Core/Src/main.c ****   GPIO_InitStruct.Speed = GPIO_SPEED_FREQ_LOW;
 139              		.loc 1 414 3 is_stmt 1 view .LVU30
 414:Core/Src/main.c ****   GPIO_InitStruct.Speed = GPIO_SPEED_FREQ_LOW;
 140              		.loc 1 414 24 is_stmt 0 view .LVU31
 141 005a 0024     		movs	r4, #0
 142 005c 0594     		str	r4, [sp, #20]
 415:Core/Src/main.c ****   HAL_GPIO_Init(GPIOC, &GPIO_InitStruct);
ARM GAS  /var/folders/kr/g9ry2bg56g773797gdtkvvkw0000gn/T//ccwMwPEG.s 			page 12


 143              		.loc 1 415 3 is_stmt 1 view .LVU32
 415:Core/Src/main.c ****   HAL_GPIO_Init(GPIOC, &GPIO_InitStruct);
 144              		.loc 1 415 25 is_stmt 0 view .LVU33
 145 005e 0694     		str	r4, [sp, #24]
 416:Core/Src/main.c **** 
 146              		.loc 1 416 3 is_stmt 1 view .LVU34
 147 0060 03A9     		add	r1, sp, #12
 148 0062 2800     		movs	r0, r5
 149 0064 FFF7FEFF 		bl	HAL_GPIO_Init
 150              	.LVL3:
 419:Core/Src/main.c ****   GPIO_InitStruct.Mode = GPIO_MODE_EVT_RISING;
 151              		.loc 1 419 3 view .LVU35
 419:Core/Src/main.c ****   GPIO_InitStruct.Mode = GPIO_MODE_EVT_RISING;
 152              		.loc 1 419 23 is_stmt 0 view .LVU36
 153 0068 0623     		movs	r3, #6
 154 006a 0393     		str	r3, [sp, #12]
 420:Core/Src/main.c ****   GPIO_InitStruct.Pull = GPIO_NOPULL;
 155              		.loc 1 420 3 is_stmt 1 view .LVU37
 420:Core/Src/main.c ****   GPIO_InitStruct.Pull = GPIO_NOPULL;
 156              		.loc 1 420 24 is_stmt 0 view .LVU38
 157 006c 9026     		movs	r6, #144
 158 006e 7603     		lsls	r6, r6, #13
 159 0070 0496     		str	r6, [sp, #16]
 421:Core/Src/main.c ****   HAL_GPIO_Init(GPIOC, &GPIO_InitStruct);
 160              		.loc 1 421 3 is_stmt 1 view .LVU39
 421:Core/Src/main.c ****   HAL_GPIO_Init(GPIOC, &GPIO_InitStruct);
 161              		.loc 1 421 24 is_stmt 0 view .LVU40
 162 0072 0594     		str	r4, [sp, #20]
 422:Core/Src/main.c **** 
 163              		.loc 1 422 3 is_stmt 1 view .LVU41
 164 0074 03A9     		add	r1, sp, #12
 165 0076 2800     		movs	r0, r5
 166 0078 FFF7FEFF 		bl	HAL_GPIO_Init
 167              	.LVL4:
 425:Core/Src/main.c ****   GPIO_InitStruct.Mode = GPIO_MODE_EVT_RISING;
 168              		.loc 1 425 3 view .LVU42
 425:Core/Src/main.c ****   GPIO_InitStruct.Mode = GPIO_MODE_EVT_RISING;
 169              		.loc 1 425 23 is_stmt 0 view .LVU43
 170 007c 0397     		str	r7, [sp, #12]
 426:Core/Src/main.c ****   GPIO_InitStruct.Pull = GPIO_NOPULL;
 171              		.loc 1 426 3 is_stmt 1 view .LVU44
 426:Core/Src/main.c ****   GPIO_InitStruct.Pull = GPIO_NOPULL;
 172              		.loc 1 426 24 is_stmt 0 view .LVU45
 173 007e 0496     		str	r6, [sp, #16]
 427:Core/Src/main.c ****   HAL_GPIO_Init(B1_GPIO_Port, &GPIO_InitStruct);
 174              		.loc 1 427 3 is_stmt 1 view .LVU46
 427:Core/Src/main.c ****   HAL_GPIO_Init(B1_GPIO_Port, &GPIO_InitStruct);
 175              		.loc 1 427 24 is_stmt 0 view .LVU47
 176 0080 0594     		str	r4, [sp, #20]
 428:Core/Src/main.c **** 
 177              		.loc 1 428 3 is_stmt 1 view .LVU48
 178 0082 9020     		movs	r0, #144
 179 0084 03A9     		add	r1, sp, #12
 180 0086 C005     		lsls	r0, r0, #23
 181 0088 FFF7FEFF 		bl	HAL_GPIO_Init
 182              	.LVL5:
 432:Core/Src/main.c **** 
ARM GAS  /var/folders/kr/g9ry2bg56g773797gdtkvvkw0000gn/T//ccwMwPEG.s 			page 13


 183              		.loc 1 432 1 is_stmt 0 view .LVU49
 184 008c 09B0     		add	sp, sp, #36
 185              		@ sp needed
 186 008e F0BD     		pop	{r4, r5, r6, r7, pc}
 187              	.L5:
 188              		.align	2
 189              	.L4:
 190 0090 00100240 		.word	1073876992
 191 0094 E1030000 		.word	993
 192 0098 00080048 		.word	1207961600
 193              		.cfi_endproc
 194              	.LFE49:
 196              		.section	.text.StartLEDTask,"ax",%progbits
 197              		.align	1
 198              		.global	StartLEDTask
 199              		.syntax unified
 200              		.code	16
 201              		.thumb_func
 203              	StartLEDTask:
 204              	.LFB51:
 459:Core/Src/main.c ****   
 460:Core/Src/main.c ****   /* USER CODE END 5 */
 461:Core/Src/main.c **** }
 462:Core/Src/main.c **** 
 463:Core/Src/main.c **** /* USER CODE BEGIN Header_StartLEDTask */
 464:Core/Src/main.c **** /**
 465:Core/Src/main.c ****   * @brief  Function implementing the LEDTask thread.
 466:Core/Src/main.c ****   * @param  argument: Not used
 467:Core/Src/main.c ****   * @retval None
 468:Core/Src/main.c ****   */
 469:Core/Src/main.c **** /* USER CODE END Header_StartLEDTask */
 470:Core/Src/main.c **** void StartLEDTask(void *argument)
 471:Core/Src/main.c **** {
 205              		.loc 1 471 1 is_stmt 1 view -0
 206              		.cfi_startproc
 207              		@ Volatile: function does not return.
 208              		@ args = 0, pretend = 0, frame = 8
 209              		@ frame_needed = 0, uses_anonymous_args = 0
 210              	.LVL6:
 211              		.loc 1 471 1 is_stmt 0 view .LVU51
 212 0000 00B5     		push	{lr}
 213              	.LCFI2:
 214              		.cfi_def_cfa_offset 4
 215              		.cfi_offset 14, -4
 216 0002 83B0     		sub	sp, sp, #12
 217              	.LCFI3:
 218              		.cfi_def_cfa_offset 16
 219 0004 1FE0     		b	.L16
 220              	.LVL7:
 221              	.L8:
 472:Core/Src/main.c ****   extern volatile uint16_t commandLED;
 473:Core/Src/main.c ****   //command 0xA color action dont care
 474:Core/Src/main.c ****   volatile uint32_t color;
 475:Core/Src/main.c **** 
 476:Core/Src/main.c ****   /* Infinite loop */
 477:Core/Src/main.c ****   for(;;)
 478:Core/Src/main.c ****   {
ARM GAS  /var/folders/kr/g9ry2bg56g773797gdtkvvkw0000gn/T//ccwMwPEG.s 			page 14


 479:Core/Src/main.c ****     switch (commandLED & 0x0F00) {    
 222              		.loc 1 479 5 view .LVU52
 223 0006 8022     		movs	r2, #128
 224 0008 D200     		lsls	r2, r2, #3
 225 000a 9342     		cmp	r3, r2
 226 000c 05D1     		bne	.L11
 480:Core/Src/main.c ****       //Red LED - PC6
 481:Core/Src/main.c ****       case 0x0100:  
 482:Core/Src/main.c ****         color = GPIO_ODR_6;
 483:Core/Src/main.c ****         break;
 484:Core/Src/main.c ****       //Green LED - PC9
 485:Core/Src/main.c ****       case 0x0200:
 486:Core/Src/main.c ****         color = GPIO_ODR_9;
 487:Core/Src/main.c ****         break;
 488:Core/Src/main.c ****       //Blue LED - PC7  
 489:Core/Src/main.c ****       case 0x0300:
 490:Core/Src/main.c ****         color = GPIO_ODR_7;
 491:Core/Src/main.c ****         break;
 492:Core/Src/main.c ****       //Orange LED - PC8
 493:Core/Src/main.c ****       case 0x0400:
 494:Core/Src/main.c ****         color = GPIO_ODR_8;
 227              		.loc 1 494 9 is_stmt 1 view .LVU53
 228              		.loc 1 494 15 is_stmt 0 view .LVU54
 229 000e 8023     		movs	r3, #128
 230 0010 5B00     		lsls	r3, r3, #1
 231 0012 0193     		str	r3, [sp, #4]
 495:Core/Src/main.c ****         break;
 232              		.loc 1 495 9 is_stmt 1 view .LVU55
 233 0014 01E0     		b	.L11
 234              	.L9:
 482:Core/Src/main.c ****         break;
 235              		.loc 1 482 9 view .LVU56
 482:Core/Src/main.c ****         break;
 236              		.loc 1 482 15 is_stmt 0 view .LVU57
 237 0016 4023     		movs	r3, #64
 238 0018 0193     		str	r3, [sp, #4]
 483:Core/Src/main.c ****       //Green LED - PC9
 239              		.loc 1 483 9 is_stmt 1 view .LVU58
 240              	.L11:
 496:Core/Src/main.c ****       default:
 497:Core/Src/main.c ****     }
 498:Core/Src/main.c **** 
 499:Core/Src/main.c ****     switch (commandLED & 0x00F0) {
 241              		.loc 1 499 5 view .LVU59
 242              		.loc 1 499 24 is_stmt 0 view .LVU60
 243 001a 1D4B     		ldr	r3, .L17
 244 001c 1B88     		ldrh	r3, [r3]
 245 001e F022     		movs	r2, #240
 246 0020 1340     		ands	r3, r2
 247              		.loc 1 499 5 view .LVU61
 248 0022 202B     		cmp	r3, #32
 249 0024 28D0     		beq	.L13
 250 0026 302B     		cmp	r3, #48
 251 0028 2CD0     		beq	.L14
 252 002a 102B     		cmp	r3, #16
 253 002c 04D1     		bne	.L15
 500:Core/Src/main.c ****       case 0x0010:
ARM GAS  /var/folders/kr/g9ry2bg56g773797gdtkvvkw0000gn/T//ccwMwPEG.s 			page 15


 501:Core/Src/main.c ****         GPIOC->ODR |= color;
 254              		.loc 1 501 9 is_stmt 1 view .LVU62
 255 002e 0199     		ldr	r1, [sp, #4]
 256              		.loc 1 501 14 is_stmt 0 view .LVU63
 257 0030 184A     		ldr	r2, .L17+4
 258 0032 5369     		ldr	r3, [r2, #20]
 259              		.loc 1 501 20 view .LVU64
 260 0034 0B43     		orrs	r3, r1
 261 0036 5361     		str	r3, [r2, #20]
 502:Core/Src/main.c ****         break;
 262              		.loc 1 502 9 is_stmt 1 view .LVU65
 263              	.L15:
 503:Core/Src/main.c ****       case 0x0020:
 504:Core/Src/main.c ****         GPIOC->ODR &= ~color;
 505:Core/Src/main.c ****         break;
 506:Core/Src/main.c ****       case 0x0030:
 507:Core/Src/main.c ****         GPIOC->ODR ^= color;
 508:Core/Src/main.c ****         break;
 509:Core/Src/main.c ****       default:
 510:Core/Src/main.c ****     }
 511:Core/Src/main.c ****     commandLED = 0;
 264              		.loc 1 511 5 view .LVU66
 265              		.loc 1 511 16 is_stmt 0 view .LVU67
 266 0038 154B     		ldr	r3, .L17
 267 003a 0022     		movs	r2, #0
 268 003c 1A80     		strh	r2, [r3]
 512:Core/Src/main.c ****     osDelay(1000);
 269              		.loc 1 512 5 is_stmt 1 view .LVU68
 270 003e FA20     		movs	r0, #250
 271 0040 8000     		lsls	r0, r0, #2
 272 0042 FFF7FEFF 		bl	osDelay
 273              	.LVL8:
 477:Core/Src/main.c ****   {
 274              		.loc 1 477 3 view .LVU69
 275              	.L16:
 472:Core/Src/main.c ****   //command 0xA color action dont care
 276              		.loc 1 472 3 view .LVU70
 474:Core/Src/main.c **** 
 277              		.loc 1 474 3 view .LVU71
 477:Core/Src/main.c ****   {
 278              		.loc 1 477 3 view .LVU72
 479:Core/Src/main.c ****       //Red LED - PC6
 279              		.loc 1 479 5 view .LVU73
 479:Core/Src/main.c ****       //Red LED - PC6
 280              		.loc 1 479 24 is_stmt 0 view .LVU74
 281 0046 124B     		ldr	r3, .L17
 282 0048 1B88     		ldrh	r3, [r3]
 283 004a F022     		movs	r2, #240
 284 004c 1201     		lsls	r2, r2, #4
 285 004e 1340     		ands	r3, r2
 479:Core/Src/main.c ****       //Red LED - PC6
 286              		.loc 1 479 5 view .LVU75
 287 0050 C022     		movs	r2, #192
 288 0052 9200     		lsls	r2, r2, #2
 289 0054 9342     		cmp	r3, r2
 290 0056 0CD0     		beq	.L7
 291 0058 D5D8     		bhi	.L8
ARM GAS  /var/folders/kr/g9ry2bg56g773797gdtkvvkw0000gn/T//ccwMwPEG.s 			page 16


 292 005a 8022     		movs	r2, #128
 293 005c 5200     		lsls	r2, r2, #1
 294 005e 9342     		cmp	r3, r2
 295 0060 D9D0     		beq	.L9
 296 0062 0132     		adds	r2, r2, #1
 297 0064 FF32     		adds	r2, r2, #255
 298 0066 9342     		cmp	r3, r2
 299 0068 D7D1     		bne	.L11
 486:Core/Src/main.c ****         break;
 300              		.loc 1 486 9 is_stmt 1 view .LVU76
 486:Core/Src/main.c ****         break;
 301              		.loc 1 486 15 is_stmt 0 view .LVU77
 302 006a 8023     		movs	r3, #128
 303 006c 9B00     		lsls	r3, r3, #2
 304 006e 0193     		str	r3, [sp, #4]
 487:Core/Src/main.c ****       //Blue LED - PC7  
 305              		.loc 1 487 9 is_stmt 1 view .LVU78
 306 0070 D3E7     		b	.L11
 307              	.L7:
 490:Core/Src/main.c ****         break;
 308              		.loc 1 490 9 view .LVU79
 490:Core/Src/main.c ****         break;
 309              		.loc 1 490 15 is_stmt 0 view .LVU80
 310 0072 8023     		movs	r3, #128
 311 0074 0193     		str	r3, [sp, #4]
 491:Core/Src/main.c ****       //Orange LED - PC8
 312              		.loc 1 491 9 is_stmt 1 view .LVU81
 313 0076 D0E7     		b	.L11
 314              	.L13:
 504:Core/Src/main.c ****         break;
 315              		.loc 1 504 9 view .LVU82
 504:Core/Src/main.c ****         break;
 316              		.loc 1 504 23 is_stmt 0 view .LVU83
 317 0078 0199     		ldr	r1, [sp, #4]
 504:Core/Src/main.c ****         break;
 318              		.loc 1 504 14 view .LVU84
 319 007a 064A     		ldr	r2, .L17+4
 320 007c 5369     		ldr	r3, [r2, #20]
 504:Core/Src/main.c ****         break;
 321              		.loc 1 504 20 view .LVU85
 322 007e 8B43     		bics	r3, r1
 323 0080 5361     		str	r3, [r2, #20]
 505:Core/Src/main.c ****       case 0x0030:
 324              		.loc 1 505 9 is_stmt 1 view .LVU86
 325 0082 D9E7     		b	.L15
 326              	.L14:
 507:Core/Src/main.c ****         break;
 327              		.loc 1 507 9 view .LVU87
 328 0084 0199     		ldr	r1, [sp, #4]
 507:Core/Src/main.c ****         break;
 329              		.loc 1 507 14 is_stmt 0 view .LVU88
 330 0086 034A     		ldr	r2, .L17+4
 331 0088 5369     		ldr	r3, [r2, #20]
 507:Core/Src/main.c ****         break;
 332              		.loc 1 507 20 view .LVU89
 333 008a 4B40     		eors	r3, r1
 334 008c 5361     		str	r3, [r2, #20]
ARM GAS  /var/folders/kr/g9ry2bg56g773797gdtkvvkw0000gn/T//ccwMwPEG.s 			page 17


 508:Core/Src/main.c ****       default:
 335              		.loc 1 508 9 is_stmt 1 view .LVU90
 336 008e D3E7     		b	.L15
 337              	.L18:
 338              		.align	2
 339              	.L17:
 340 0090 00000000 		.word	commandLED
 341 0094 00080048 		.word	1207961600
 342              		.cfi_endproc
 343              	.LFE51:
 345              		.section	.text.HAL_TIM_PeriodElapsedCallback,"ax",%progbits
 346              		.align	1
 347              		.global	HAL_TIM_PeriodElapsedCallback
 348              		.syntax unified
 349              		.code	16
 350              		.thumb_func
 352              	HAL_TIM_PeriodElapsedCallback:
 353              	.LVL9:
 354              	.LFB52:
 513:Core/Src/main.c ****   }
 514:Core/Src/main.c **** }
 515:Core/Src/main.c **** 
 516:Core/Src/main.c **** /**
 517:Core/Src/main.c ****   * @brief  Period elapsed callback in non blocking mode
 518:Core/Src/main.c ****   * @note   This function is called  when TIM6 interrupt took place, inside
 519:Core/Src/main.c ****   * HAL_TIM_IRQHandler(). It makes a direct call to HAL_IncTick() to increment
 520:Core/Src/main.c ****   * a global variable "uwTick" used as application time base.
 521:Core/Src/main.c ****   * @param  htim : TIM handle
 522:Core/Src/main.c ****   * @retval None
 523:Core/Src/main.c ****   */
 524:Core/Src/main.c **** void HAL_TIM_PeriodElapsedCallback(TIM_HandleTypeDef *htim)
 525:Core/Src/main.c **** {
 355              		.loc 1 525 1 view -0
 356              		.cfi_startproc
 357              		@ args = 0, pretend = 0, frame = 0
 358              		@ frame_needed = 0, uses_anonymous_args = 0
 359              		.loc 1 525 1 is_stmt 0 view .LVU92
 360 0000 10B5     		push	{r4, lr}
 361              	.LCFI4:
 362              		.cfi_def_cfa_offset 8
 363              		.cfi_offset 4, -8
 364              		.cfi_offset 14, -4
 526:Core/Src/main.c ****   /* USER CODE BEGIN Callback 0 */
 527:Core/Src/main.c **** 
 528:Core/Src/main.c ****   /* USER CODE END Callback 0 */
 529:Core/Src/main.c ****   if (htim->Instance == TIM6) {
 365              		.loc 1 529 3 is_stmt 1 view .LVU93
 366              		.loc 1 529 11 is_stmt 0 view .LVU94
 367 0002 0268     		ldr	r2, [r0]
 368              		.loc 1 529 6 view .LVU95
 369 0004 034B     		ldr	r3, .L22
 370 0006 9A42     		cmp	r2, r3
 371 0008 00D0     		beq	.L21
 372              	.LVL10:
 373              	.L19:
 530:Core/Src/main.c ****     HAL_IncTick();
 531:Core/Src/main.c ****   }
ARM GAS  /var/folders/kr/g9ry2bg56g773797gdtkvvkw0000gn/T//ccwMwPEG.s 			page 18


 532:Core/Src/main.c ****   /* USER CODE BEGIN Callback 1 */
 533:Core/Src/main.c **** 
 534:Core/Src/main.c ****   /* USER CODE END Callback 1 */
 535:Core/Src/main.c **** }
 374              		.loc 1 535 1 view .LVU96
 375              		@ sp needed
 376 000a 10BD     		pop	{r4, pc}
 377              	.LVL11:
 378              	.L21:
 530:Core/Src/main.c ****     HAL_IncTick();
 379              		.loc 1 530 5 is_stmt 1 view .LVU97
 380 000c FFF7FEFF 		bl	HAL_IncTick
 381              	.LVL12:
 382              		.loc 1 535 1 is_stmt 0 view .LVU98
 383 0010 FBE7     		b	.L19
 384              	.L23:
 385 0012 C046     		.align	2
 386              	.L22:
 387 0014 00100040 		.word	1073745920
 388              		.cfi_endproc
 389              	.LFE52:
 391              		.section	.text.Error_Handler,"ax",%progbits
 392              		.align	1
 393              		.global	Error_Handler
 394              		.syntax unified
 395              		.code	16
 396              		.thumb_func
 398              	Error_Handler:
 399              	.LFB53:
 536:Core/Src/main.c **** 
 537:Core/Src/main.c **** /**
 538:Core/Src/main.c ****   * @brief  This function is executed in case of error occurrence.
 539:Core/Src/main.c ****   * @retval None
 540:Core/Src/main.c ****   */
 541:Core/Src/main.c **** void Error_Handler(void)
 542:Core/Src/main.c **** {
 400              		.loc 1 542 1 is_stmt 1 view -0
 401              		.cfi_startproc
 402              		@ Volatile: function does not return.
 403              		@ args = 0, pretend = 0, frame = 0
 404              		@ frame_needed = 0, uses_anonymous_args = 0
 405              		@ link register save eliminated.
 543:Core/Src/main.c ****   /* USER CODE BEGIN Error_Handler_Debug */
 544:Core/Src/main.c ****   /* User can add his own implementation to report the HAL error return state */
 545:Core/Src/main.c ****   __disable_irq();
 406              		.loc 1 545 3 view .LVU100
 407              	.LBB7:
 408              	.LBI7:
 409              		.file 2 "Drivers/CMSIS/Include/cmsis_gcc.h"
   1:Drivers/CMSIS/Include/cmsis_gcc.h **** /**************************************************************************//**
   2:Drivers/CMSIS/Include/cmsis_gcc.h ****  * @file     cmsis_gcc.h
   3:Drivers/CMSIS/Include/cmsis_gcc.h ****  * @brief    CMSIS compiler GCC header file
   4:Drivers/CMSIS/Include/cmsis_gcc.h ****  * @version  V5.0.4
   5:Drivers/CMSIS/Include/cmsis_gcc.h ****  * @date     09. April 2018
   6:Drivers/CMSIS/Include/cmsis_gcc.h ****  ******************************************************************************/
   7:Drivers/CMSIS/Include/cmsis_gcc.h **** /*
   8:Drivers/CMSIS/Include/cmsis_gcc.h ****  * Copyright (c) 2009-2018 Arm Limited. All rights reserved.
ARM GAS  /var/folders/kr/g9ry2bg56g773797gdtkvvkw0000gn/T//ccwMwPEG.s 			page 19


   9:Drivers/CMSIS/Include/cmsis_gcc.h ****  *
  10:Drivers/CMSIS/Include/cmsis_gcc.h ****  * SPDX-License-Identifier: Apache-2.0
  11:Drivers/CMSIS/Include/cmsis_gcc.h ****  *
  12:Drivers/CMSIS/Include/cmsis_gcc.h ****  * Licensed under the Apache License, Version 2.0 (the License); you may
  13:Drivers/CMSIS/Include/cmsis_gcc.h ****  * not use this file except in compliance with the License.
  14:Drivers/CMSIS/Include/cmsis_gcc.h ****  * You may obtain a copy of the License at
  15:Drivers/CMSIS/Include/cmsis_gcc.h ****  *
  16:Drivers/CMSIS/Include/cmsis_gcc.h ****  * www.apache.org/licenses/LICENSE-2.0
  17:Drivers/CMSIS/Include/cmsis_gcc.h ****  *
  18:Drivers/CMSIS/Include/cmsis_gcc.h ****  * Unless required by applicable law or agreed to in writing, software
  19:Drivers/CMSIS/Include/cmsis_gcc.h ****  * distributed under the License is distributed on an AS IS BASIS, WITHOUT
  20:Drivers/CMSIS/Include/cmsis_gcc.h ****  * WARRANTIES OR CONDITIONS OF ANY KIND, either express or implied.
  21:Drivers/CMSIS/Include/cmsis_gcc.h ****  * See the License for the specific language governing permissions and
  22:Drivers/CMSIS/Include/cmsis_gcc.h ****  * limitations under the License.
  23:Drivers/CMSIS/Include/cmsis_gcc.h ****  */
  24:Drivers/CMSIS/Include/cmsis_gcc.h **** 
  25:Drivers/CMSIS/Include/cmsis_gcc.h **** #ifndef __CMSIS_GCC_H
  26:Drivers/CMSIS/Include/cmsis_gcc.h **** #define __CMSIS_GCC_H
  27:Drivers/CMSIS/Include/cmsis_gcc.h **** 
  28:Drivers/CMSIS/Include/cmsis_gcc.h **** /* ignore some GCC warnings */
  29:Drivers/CMSIS/Include/cmsis_gcc.h **** #pragma GCC diagnostic push
  30:Drivers/CMSIS/Include/cmsis_gcc.h **** #pragma GCC diagnostic ignored "-Wsign-conversion"
  31:Drivers/CMSIS/Include/cmsis_gcc.h **** #pragma GCC diagnostic ignored "-Wconversion"
  32:Drivers/CMSIS/Include/cmsis_gcc.h **** #pragma GCC diagnostic ignored "-Wunused-parameter"
  33:Drivers/CMSIS/Include/cmsis_gcc.h **** 
  34:Drivers/CMSIS/Include/cmsis_gcc.h **** /* Fallback for __has_builtin */
  35:Drivers/CMSIS/Include/cmsis_gcc.h **** #ifndef __has_builtin
  36:Drivers/CMSIS/Include/cmsis_gcc.h ****   #define __has_builtin(x) (0)
  37:Drivers/CMSIS/Include/cmsis_gcc.h **** #endif
  38:Drivers/CMSIS/Include/cmsis_gcc.h **** 
  39:Drivers/CMSIS/Include/cmsis_gcc.h **** /* CMSIS compiler specific defines */
  40:Drivers/CMSIS/Include/cmsis_gcc.h **** #ifndef   __ASM
  41:Drivers/CMSIS/Include/cmsis_gcc.h ****   #define __ASM                                  __asm
  42:Drivers/CMSIS/Include/cmsis_gcc.h **** #endif
  43:Drivers/CMSIS/Include/cmsis_gcc.h **** #ifndef   __INLINE
  44:Drivers/CMSIS/Include/cmsis_gcc.h ****   #define __INLINE                               inline
  45:Drivers/CMSIS/Include/cmsis_gcc.h **** #endif
  46:Drivers/CMSIS/Include/cmsis_gcc.h **** #ifndef   __STATIC_INLINE
  47:Drivers/CMSIS/Include/cmsis_gcc.h ****   #define __STATIC_INLINE                        static inline
  48:Drivers/CMSIS/Include/cmsis_gcc.h **** #endif
  49:Drivers/CMSIS/Include/cmsis_gcc.h **** #ifndef   __STATIC_FORCEINLINE                 
  50:Drivers/CMSIS/Include/cmsis_gcc.h ****   #define __STATIC_FORCEINLINE                   __attribute__((always_inline)) static inline
  51:Drivers/CMSIS/Include/cmsis_gcc.h **** #endif                                           
  52:Drivers/CMSIS/Include/cmsis_gcc.h **** #ifndef   __NO_RETURN
  53:Drivers/CMSIS/Include/cmsis_gcc.h ****   #define __NO_RETURN                            __attribute__((__noreturn__))
  54:Drivers/CMSIS/Include/cmsis_gcc.h **** #endif
  55:Drivers/CMSIS/Include/cmsis_gcc.h **** #ifndef   __USED
  56:Drivers/CMSIS/Include/cmsis_gcc.h ****   #define __USED                                 __attribute__((used))
  57:Drivers/CMSIS/Include/cmsis_gcc.h **** #endif
  58:Drivers/CMSIS/Include/cmsis_gcc.h **** #ifndef   __WEAK
  59:Drivers/CMSIS/Include/cmsis_gcc.h ****   #define __WEAK                                 __attribute__((weak))
  60:Drivers/CMSIS/Include/cmsis_gcc.h **** #endif
  61:Drivers/CMSIS/Include/cmsis_gcc.h **** #ifndef   __PACKED
  62:Drivers/CMSIS/Include/cmsis_gcc.h ****   #define __PACKED                               __attribute__((packed, aligned(1)))
  63:Drivers/CMSIS/Include/cmsis_gcc.h **** #endif
  64:Drivers/CMSIS/Include/cmsis_gcc.h **** #ifndef   __PACKED_STRUCT
  65:Drivers/CMSIS/Include/cmsis_gcc.h ****   #define __PACKED_STRUCT                        struct __attribute__((packed, aligned(1)))
ARM GAS  /var/folders/kr/g9ry2bg56g773797gdtkvvkw0000gn/T//ccwMwPEG.s 			page 20


  66:Drivers/CMSIS/Include/cmsis_gcc.h **** #endif
  67:Drivers/CMSIS/Include/cmsis_gcc.h **** #ifndef   __PACKED_UNION
  68:Drivers/CMSIS/Include/cmsis_gcc.h ****   #define __PACKED_UNION                         union __attribute__((packed, aligned(1)))
  69:Drivers/CMSIS/Include/cmsis_gcc.h **** #endif
  70:Drivers/CMSIS/Include/cmsis_gcc.h **** #ifndef   __UNALIGNED_UINT32        /* deprecated */
  71:Drivers/CMSIS/Include/cmsis_gcc.h ****   #pragma GCC diagnostic push
  72:Drivers/CMSIS/Include/cmsis_gcc.h ****   #pragma GCC diagnostic ignored "-Wpacked"
  73:Drivers/CMSIS/Include/cmsis_gcc.h ****   #pragma GCC diagnostic ignored "-Wattributes"
  74:Drivers/CMSIS/Include/cmsis_gcc.h ****   struct __attribute__((packed)) T_UINT32 { uint32_t v; };
  75:Drivers/CMSIS/Include/cmsis_gcc.h ****   #pragma GCC diagnostic pop
  76:Drivers/CMSIS/Include/cmsis_gcc.h ****   #define __UNALIGNED_UINT32(x)                  (((struct T_UINT32 *)(x))->v)
  77:Drivers/CMSIS/Include/cmsis_gcc.h **** #endif
  78:Drivers/CMSIS/Include/cmsis_gcc.h **** #ifndef   __UNALIGNED_UINT16_WRITE
  79:Drivers/CMSIS/Include/cmsis_gcc.h ****   #pragma GCC diagnostic push
  80:Drivers/CMSIS/Include/cmsis_gcc.h ****   #pragma GCC diagnostic ignored "-Wpacked"
  81:Drivers/CMSIS/Include/cmsis_gcc.h ****   #pragma GCC diagnostic ignored "-Wattributes"
  82:Drivers/CMSIS/Include/cmsis_gcc.h ****   __PACKED_STRUCT T_UINT16_WRITE { uint16_t v; };
  83:Drivers/CMSIS/Include/cmsis_gcc.h ****   #pragma GCC diagnostic pop
  84:Drivers/CMSIS/Include/cmsis_gcc.h ****   #define __UNALIGNED_UINT16_WRITE(addr, val)    (void)((((struct T_UINT16_WRITE *)(void *)(addr))-
  85:Drivers/CMSIS/Include/cmsis_gcc.h **** #endif
  86:Drivers/CMSIS/Include/cmsis_gcc.h **** #ifndef   __UNALIGNED_UINT16_READ
  87:Drivers/CMSIS/Include/cmsis_gcc.h ****   #pragma GCC diagnostic push
  88:Drivers/CMSIS/Include/cmsis_gcc.h ****   #pragma GCC diagnostic ignored "-Wpacked"
  89:Drivers/CMSIS/Include/cmsis_gcc.h ****   #pragma GCC diagnostic ignored "-Wattributes"
  90:Drivers/CMSIS/Include/cmsis_gcc.h ****   __PACKED_STRUCT T_UINT16_READ { uint16_t v; };
  91:Drivers/CMSIS/Include/cmsis_gcc.h ****   #pragma GCC diagnostic pop
  92:Drivers/CMSIS/Include/cmsis_gcc.h ****   #define __UNALIGNED_UINT16_READ(addr)          (((const struct T_UINT16_READ *)(const void *)(add
  93:Drivers/CMSIS/Include/cmsis_gcc.h **** #endif
  94:Drivers/CMSIS/Include/cmsis_gcc.h **** #ifndef   __UNALIGNED_UINT32_WRITE
  95:Drivers/CMSIS/Include/cmsis_gcc.h ****   #pragma GCC diagnostic push
  96:Drivers/CMSIS/Include/cmsis_gcc.h ****   #pragma GCC diagnostic ignored "-Wpacked"
  97:Drivers/CMSIS/Include/cmsis_gcc.h ****   #pragma GCC diagnostic ignored "-Wattributes"
  98:Drivers/CMSIS/Include/cmsis_gcc.h ****   __PACKED_STRUCT T_UINT32_WRITE { uint32_t v; };
  99:Drivers/CMSIS/Include/cmsis_gcc.h ****   #pragma GCC diagnostic pop
 100:Drivers/CMSIS/Include/cmsis_gcc.h ****   #define __UNALIGNED_UINT32_WRITE(addr, val)    (void)((((struct T_UINT32_WRITE *)(void *)(addr))-
 101:Drivers/CMSIS/Include/cmsis_gcc.h **** #endif
 102:Drivers/CMSIS/Include/cmsis_gcc.h **** #ifndef   __UNALIGNED_UINT32_READ
 103:Drivers/CMSIS/Include/cmsis_gcc.h ****   #pragma GCC diagnostic push
 104:Drivers/CMSIS/Include/cmsis_gcc.h ****   #pragma GCC diagnostic ignored "-Wpacked"
 105:Drivers/CMSIS/Include/cmsis_gcc.h ****   #pragma GCC diagnostic ignored "-Wattributes"
 106:Drivers/CMSIS/Include/cmsis_gcc.h ****   __PACKED_STRUCT T_UINT32_READ { uint32_t v; };
 107:Drivers/CMSIS/Include/cmsis_gcc.h ****   #pragma GCC diagnostic pop
 108:Drivers/CMSIS/Include/cmsis_gcc.h ****   #define __UNALIGNED_UINT32_READ(addr)          (((const struct T_UINT32_READ *)(const void *)(add
 109:Drivers/CMSIS/Include/cmsis_gcc.h **** #endif
 110:Drivers/CMSIS/Include/cmsis_gcc.h **** #ifndef   __ALIGNED
 111:Drivers/CMSIS/Include/cmsis_gcc.h ****   #define __ALIGNED(x)                           __attribute__((aligned(x)))
 112:Drivers/CMSIS/Include/cmsis_gcc.h **** #endif
 113:Drivers/CMSIS/Include/cmsis_gcc.h **** #ifndef   __RESTRICT
 114:Drivers/CMSIS/Include/cmsis_gcc.h ****   #define __RESTRICT                             __restrict
 115:Drivers/CMSIS/Include/cmsis_gcc.h **** #endif
 116:Drivers/CMSIS/Include/cmsis_gcc.h **** 
 117:Drivers/CMSIS/Include/cmsis_gcc.h **** 
 118:Drivers/CMSIS/Include/cmsis_gcc.h **** /* ###########################  Core Function Access  ########################### */
 119:Drivers/CMSIS/Include/cmsis_gcc.h **** /** \ingroup  CMSIS_Core_FunctionInterface
 120:Drivers/CMSIS/Include/cmsis_gcc.h ****     \defgroup CMSIS_Core_RegAccFunctions CMSIS Core Register Access Functions
 121:Drivers/CMSIS/Include/cmsis_gcc.h ****   @{
 122:Drivers/CMSIS/Include/cmsis_gcc.h ****  */
ARM GAS  /var/folders/kr/g9ry2bg56g773797gdtkvvkw0000gn/T//ccwMwPEG.s 			page 21


 123:Drivers/CMSIS/Include/cmsis_gcc.h **** 
 124:Drivers/CMSIS/Include/cmsis_gcc.h **** /**
 125:Drivers/CMSIS/Include/cmsis_gcc.h ****   \brief   Enable IRQ Interrupts
 126:Drivers/CMSIS/Include/cmsis_gcc.h ****   \details Enables IRQ interrupts by clearing the I-bit in the CPSR.
 127:Drivers/CMSIS/Include/cmsis_gcc.h ****            Can only be executed in Privileged modes.
 128:Drivers/CMSIS/Include/cmsis_gcc.h ****  */
 129:Drivers/CMSIS/Include/cmsis_gcc.h **** __STATIC_FORCEINLINE void __enable_irq(void)
 130:Drivers/CMSIS/Include/cmsis_gcc.h **** {
 131:Drivers/CMSIS/Include/cmsis_gcc.h ****   __ASM volatile ("cpsie i" : : : "memory");
 132:Drivers/CMSIS/Include/cmsis_gcc.h **** }
 133:Drivers/CMSIS/Include/cmsis_gcc.h **** 
 134:Drivers/CMSIS/Include/cmsis_gcc.h **** 
 135:Drivers/CMSIS/Include/cmsis_gcc.h **** /**
 136:Drivers/CMSIS/Include/cmsis_gcc.h ****   \brief   Disable IRQ Interrupts
 137:Drivers/CMSIS/Include/cmsis_gcc.h ****   \details Disables IRQ interrupts by setting the I-bit in the CPSR.
 138:Drivers/CMSIS/Include/cmsis_gcc.h ****            Can only be executed in Privileged modes.
 139:Drivers/CMSIS/Include/cmsis_gcc.h ****  */
 140:Drivers/CMSIS/Include/cmsis_gcc.h **** __STATIC_FORCEINLINE void __disable_irq(void)
 410              		.loc 2 140 27 view .LVU101
 411              	.LBB8:
 141:Drivers/CMSIS/Include/cmsis_gcc.h **** {
 142:Drivers/CMSIS/Include/cmsis_gcc.h ****   __ASM volatile ("cpsid i" : : : "memory");
 412              		.loc 2 142 3 view .LVU102
 413              		.syntax divided
 414              	@ 142 "Drivers/CMSIS/Include/cmsis_gcc.h" 1
 415 0000 72B6     		cpsid i
 416              	@ 0 "" 2
 417              		.thumb
 418              		.syntax unified
 419              	.L25:
 420              	.LBE8:
 421              	.LBE7:
 546:Core/Src/main.c ****   while (1)
 422              		.loc 1 546 3 view .LVU103
 547:Core/Src/main.c ****   {
 548:Core/Src/main.c ****   }
 423              		.loc 1 548 3 view .LVU104
 546:Core/Src/main.c ****   while (1)
 424              		.loc 1 546 9 view .LVU105
 425 0002 FEE7     		b	.L25
 426              		.cfi_endproc
 427              	.LFE53:
 429              		.section	.text.MX_I2C2_Init,"ax",%progbits
 430              		.align	1
 431              		.syntax unified
 432              		.code	16
 433              		.thumb_func
 435              	MX_I2C2_Init:
 436              	.LFB45:
 232:Core/Src/main.c **** 
 437              		.loc 1 232 1 view -0
 438              		.cfi_startproc
 439              		@ args = 0, pretend = 0, frame = 0
 440              		@ frame_needed = 0, uses_anonymous_args = 0
 441 0000 10B5     		push	{r4, lr}
 442              	.LCFI5:
 443              		.cfi_def_cfa_offset 8
ARM GAS  /var/folders/kr/g9ry2bg56g773797gdtkvvkw0000gn/T//ccwMwPEG.s 			page 22


 444              		.cfi_offset 4, -8
 445              		.cfi_offset 14, -4
 241:Core/Src/main.c ****   hi2c2.Init.Timing = 0x20303E5D;
 446              		.loc 1 241 3 view .LVU107
 241:Core/Src/main.c ****   hi2c2.Init.Timing = 0x20303E5D;
 447              		.loc 1 241 18 is_stmt 0 view .LVU108
 448 0002 1248     		ldr	r0, .L33
 449 0004 124B     		ldr	r3, .L33+4
 450 0006 0360     		str	r3, [r0]
 242:Core/Src/main.c ****   hi2c2.Init.OwnAddress1 = 0;
 451              		.loc 1 242 3 is_stmt 1 view .LVU109
 242:Core/Src/main.c ****   hi2c2.Init.OwnAddress1 = 0;
 452              		.loc 1 242 21 is_stmt 0 view .LVU110
 453 0008 124B     		ldr	r3, .L33+8
 454 000a 4360     		str	r3, [r0, #4]
 243:Core/Src/main.c ****   hi2c2.Init.AddressingMode = I2C_ADDRESSINGMODE_7BIT;
 455              		.loc 1 243 3 is_stmt 1 view .LVU111
 243:Core/Src/main.c ****   hi2c2.Init.AddressingMode = I2C_ADDRESSINGMODE_7BIT;
 456              		.loc 1 243 26 is_stmt 0 view .LVU112
 457 000c 0023     		movs	r3, #0
 458 000e 8360     		str	r3, [r0, #8]
 244:Core/Src/main.c ****   hi2c2.Init.DualAddressMode = I2C_DUALADDRESS_DISABLE;
 459              		.loc 1 244 3 is_stmt 1 view .LVU113
 244:Core/Src/main.c ****   hi2c2.Init.DualAddressMode = I2C_DUALADDRESS_DISABLE;
 460              		.loc 1 244 29 is_stmt 0 view .LVU114
 461 0010 0122     		movs	r2, #1
 462 0012 C260     		str	r2, [r0, #12]
 245:Core/Src/main.c ****   hi2c2.Init.OwnAddress2 = 0;
 463              		.loc 1 245 3 is_stmt 1 view .LVU115
 245:Core/Src/main.c ****   hi2c2.Init.OwnAddress2 = 0;
 464              		.loc 1 245 30 is_stmt 0 view .LVU116
 465 0014 0361     		str	r3, [r0, #16]
 246:Core/Src/main.c ****   hi2c2.Init.OwnAddress2Masks = I2C_OA2_NOMASK;
 466              		.loc 1 246 3 is_stmt 1 view .LVU117
 246:Core/Src/main.c ****   hi2c2.Init.OwnAddress2Masks = I2C_OA2_NOMASK;
 467              		.loc 1 246 26 is_stmt 0 view .LVU118
 468 0016 4361     		str	r3, [r0, #20]
 247:Core/Src/main.c ****   hi2c2.Init.GeneralCallMode = I2C_GENERALCALL_DISABLE;
 469              		.loc 1 247 3 is_stmt 1 view .LVU119
 247:Core/Src/main.c ****   hi2c2.Init.GeneralCallMode = I2C_GENERALCALL_DISABLE;
 470              		.loc 1 247 31 is_stmt 0 view .LVU120
 471 0018 8361     		str	r3, [r0, #24]
 248:Core/Src/main.c ****   hi2c2.Init.NoStretchMode = I2C_NOSTRETCH_DISABLE;
 472              		.loc 1 248 3 is_stmt 1 view .LVU121
 248:Core/Src/main.c ****   hi2c2.Init.NoStretchMode = I2C_NOSTRETCH_DISABLE;
 473              		.loc 1 248 30 is_stmt 0 view .LVU122
 474 001a C361     		str	r3, [r0, #28]
 249:Core/Src/main.c ****   if (HAL_I2C_Init(&hi2c2) != HAL_OK)
 475              		.loc 1 249 3 is_stmt 1 view .LVU123
 249:Core/Src/main.c ****   if (HAL_I2C_Init(&hi2c2) != HAL_OK)
 476              		.loc 1 249 28 is_stmt 0 view .LVU124
 477 001c 0362     		str	r3, [r0, #32]
 250:Core/Src/main.c ****   {
 478              		.loc 1 250 3 is_stmt 1 view .LVU125
 250:Core/Src/main.c ****   {
 479              		.loc 1 250 7 is_stmt 0 view .LVU126
 480 001e FFF7FEFF 		bl	HAL_I2C_Init
ARM GAS  /var/folders/kr/g9ry2bg56g773797gdtkvvkw0000gn/T//ccwMwPEG.s 			page 23


 481              	.LVL13:
 250:Core/Src/main.c ****   {
 482              		.loc 1 250 6 discriminator 1 view .LVU127
 483 0022 0028     		cmp	r0, #0
 484 0024 0CD1     		bne	.L30
 257:Core/Src/main.c ****   {
 485              		.loc 1 257 3 is_stmt 1 view .LVU128
 257:Core/Src/main.c ****   {
 486              		.loc 1 257 7 is_stmt 0 view .LVU129
 487 0026 0948     		ldr	r0, .L33
 488 0028 0021     		movs	r1, #0
 489 002a FFF7FEFF 		bl	HAL_I2CEx_ConfigAnalogFilter
 490              	.LVL14:
 257:Core/Src/main.c ****   {
 491              		.loc 1 257 6 discriminator 1 view .LVU130
 492 002e 0028     		cmp	r0, #0
 493 0030 08D1     		bne	.L31
 264:Core/Src/main.c ****   {
 494              		.loc 1 264 3 is_stmt 1 view .LVU131
 264:Core/Src/main.c ****   {
 495              		.loc 1 264 7 is_stmt 0 view .LVU132
 496 0032 0648     		ldr	r0, .L33
 497 0034 0021     		movs	r1, #0
 498 0036 FFF7FEFF 		bl	HAL_I2CEx_ConfigDigitalFilter
 499              	.LVL15:
 264:Core/Src/main.c ****   {
 500              		.loc 1 264 6 discriminator 1 view .LVU133
 501 003a 0028     		cmp	r0, #0
 502 003c 04D1     		bne	.L32
 272:Core/Src/main.c **** 
 503              		.loc 1 272 1 view .LVU134
 504              		@ sp needed
 505 003e 10BD     		pop	{r4, pc}
 506              	.L30:
 252:Core/Src/main.c ****   }
 507              		.loc 1 252 5 is_stmt 1 view .LVU135
 508 0040 FFF7FEFF 		bl	Error_Handler
 509              	.LVL16:
 510              	.L31:
 259:Core/Src/main.c ****   }
 511              		.loc 1 259 5 view .LVU136
 512 0044 FFF7FEFF 		bl	Error_Handler
 513              	.LVL17:
 514              	.L32:
 266:Core/Src/main.c ****   }
 515              		.loc 1 266 5 view .LVU137
 516 0048 FFF7FEFF 		bl	Error_Handler
 517              	.LVL18:
 518              	.L34:
 519              		.align	2
 520              	.L33:
 521 004c 00000000 		.word	hi2c2
 522 0050 00580040 		.word	1073764352
 523 0054 5D3E3020 		.word	540032605
 524              		.cfi_endproc
 525              	.LFE45:
 527              		.section	.text.MX_SPI2_Init,"ax",%progbits
ARM GAS  /var/folders/kr/g9ry2bg56g773797gdtkvvkw0000gn/T//ccwMwPEG.s 			page 24


 528              		.align	1
 529              		.syntax unified
 530              		.code	16
 531              		.thumb_func
 533              	MX_SPI2_Init:
 534              	.LFB46:
 280:Core/Src/main.c **** 
 535              		.loc 1 280 1 view -0
 536              		.cfi_startproc
 537              		@ args = 0, pretend = 0, frame = 0
 538              		@ frame_needed = 0, uses_anonymous_args = 0
 539 0000 10B5     		push	{r4, lr}
 540              	.LCFI6:
 541              		.cfi_def_cfa_offset 8
 542              		.cfi_offset 4, -8
 543              		.cfi_offset 14, -4
 290:Core/Src/main.c ****   hspi2.Init.Mode = SPI_MODE_MASTER;
 544              		.loc 1 290 3 view .LVU139
 290:Core/Src/main.c ****   hspi2.Init.Mode = SPI_MODE_MASTER;
 545              		.loc 1 290 18 is_stmt 0 view .LVU140
 546 0002 1048     		ldr	r0, .L38
 547 0004 104B     		ldr	r3, .L38+4
 548 0006 0360     		str	r3, [r0]
 291:Core/Src/main.c ****   hspi2.Init.Direction = SPI_DIRECTION_2LINES;
 549              		.loc 1 291 3 is_stmt 1 view .LVU141
 291:Core/Src/main.c ****   hspi2.Init.Direction = SPI_DIRECTION_2LINES;
 550              		.loc 1 291 19 is_stmt 0 view .LVU142
 551 0008 8223     		movs	r3, #130
 552 000a 5B00     		lsls	r3, r3, #1
 553 000c 4360     		str	r3, [r0, #4]
 292:Core/Src/main.c ****   hspi2.Init.DataSize = SPI_DATASIZE_4BIT;
 554              		.loc 1 292 3 is_stmt 1 view .LVU143
 292:Core/Src/main.c ****   hspi2.Init.DataSize = SPI_DATASIZE_4BIT;
 555              		.loc 1 292 24 is_stmt 0 view .LVU144
 556 000e 0023     		movs	r3, #0
 557 0010 8360     		str	r3, [r0, #8]
 293:Core/Src/main.c ****   hspi2.Init.CLKPolarity = SPI_POLARITY_LOW;
 558              		.loc 1 293 3 is_stmt 1 view .LVU145
 293:Core/Src/main.c ****   hspi2.Init.CLKPolarity = SPI_POLARITY_LOW;
 559              		.loc 1 293 23 is_stmt 0 view .LVU146
 560 0012 C022     		movs	r2, #192
 561 0014 9200     		lsls	r2, r2, #2
 562 0016 C260     		str	r2, [r0, #12]
 294:Core/Src/main.c ****   hspi2.Init.CLKPhase = SPI_PHASE_1EDGE;
 563              		.loc 1 294 3 is_stmt 1 view .LVU147
 294:Core/Src/main.c ****   hspi2.Init.CLKPhase = SPI_PHASE_1EDGE;
 564              		.loc 1 294 26 is_stmt 0 view .LVU148
 565 0018 0361     		str	r3, [r0, #16]
 295:Core/Src/main.c ****   hspi2.Init.NSS = SPI_NSS_SOFT;
 566              		.loc 1 295 3 is_stmt 1 view .LVU149
 295:Core/Src/main.c ****   hspi2.Init.NSS = SPI_NSS_SOFT;
 567              		.loc 1 295 23 is_stmt 0 view .LVU150
 568 001a 4361     		str	r3, [r0, #20]
 296:Core/Src/main.c ****   hspi2.Init.BaudRatePrescaler = SPI_BAUDRATEPRESCALER_4;
 569              		.loc 1 296 3 is_stmt 1 view .LVU151
 296:Core/Src/main.c ****   hspi2.Init.BaudRatePrescaler = SPI_BAUDRATEPRESCALER_4;
 570              		.loc 1 296 18 is_stmt 0 view .LVU152
ARM GAS  /var/folders/kr/g9ry2bg56g773797gdtkvvkw0000gn/T//ccwMwPEG.s 			page 25


 571 001c 013A     		subs	r2, r2, #1
 572 001e FF3A     		subs	r2, r2, #255
 573 0020 8261     		str	r2, [r0, #24]
 297:Core/Src/main.c ****   hspi2.Init.FirstBit = SPI_FIRSTBIT_MSB;
 574              		.loc 1 297 3 is_stmt 1 view .LVU153
 297:Core/Src/main.c ****   hspi2.Init.FirstBit = SPI_FIRSTBIT_MSB;
 575              		.loc 1 297 32 is_stmt 0 view .LVU154
 576 0022 F93A     		subs	r2, r2, #249
 577 0024 FF3A     		subs	r2, r2, #255
 578 0026 C261     		str	r2, [r0, #28]
 298:Core/Src/main.c ****   hspi2.Init.TIMode = SPI_TIMODE_DISABLE;
 579              		.loc 1 298 3 is_stmt 1 view .LVU155
 298:Core/Src/main.c ****   hspi2.Init.TIMode = SPI_TIMODE_DISABLE;
 580              		.loc 1 298 23 is_stmt 0 view .LVU156
 581 0028 0362     		str	r3, [r0, #32]
 299:Core/Src/main.c ****   hspi2.Init.CRCCalculation = SPI_CRCCALCULATION_DISABLE;
 582              		.loc 1 299 3 is_stmt 1 view .LVU157
 299:Core/Src/main.c ****   hspi2.Init.CRCCalculation = SPI_CRCCALCULATION_DISABLE;
 583              		.loc 1 299 21 is_stmt 0 view .LVU158
 584 002a 4362     		str	r3, [r0, #36]
 300:Core/Src/main.c ****   hspi2.Init.CRCPolynomial = 7;
 585              		.loc 1 300 3 is_stmt 1 view .LVU159
 300:Core/Src/main.c ****   hspi2.Init.CRCPolynomial = 7;
 586              		.loc 1 300 29 is_stmt 0 view .LVU160
 587 002c 8362     		str	r3, [r0, #40]
 301:Core/Src/main.c ****   hspi2.Init.CRCLength = SPI_CRC_LENGTH_DATASIZE;
 588              		.loc 1 301 3 is_stmt 1 view .LVU161
 301:Core/Src/main.c ****   hspi2.Init.CRCLength = SPI_CRC_LENGTH_DATASIZE;
 589              		.loc 1 301 28 is_stmt 0 view .LVU162
 590 002e 0721     		movs	r1, #7
 591 0030 C162     		str	r1, [r0, #44]
 302:Core/Src/main.c ****   hspi2.Init.NSSPMode = SPI_NSS_PULSE_ENABLE;
 592              		.loc 1 302 3 is_stmt 1 view .LVU163
 302:Core/Src/main.c ****   hspi2.Init.NSSPMode = SPI_NSS_PULSE_ENABLE;
 593              		.loc 1 302 24 is_stmt 0 view .LVU164
 594 0032 0363     		str	r3, [r0, #48]
 303:Core/Src/main.c ****   if (HAL_SPI_Init(&hspi2) != HAL_OK)
 595              		.loc 1 303 3 is_stmt 1 view .LVU165
 303:Core/Src/main.c ****   if (HAL_SPI_Init(&hspi2) != HAL_OK)
 596              		.loc 1 303 23 is_stmt 0 view .LVU166
 597 0034 4263     		str	r2, [r0, #52]
 304:Core/Src/main.c ****   {
 598              		.loc 1 304 3 is_stmt 1 view .LVU167
 304:Core/Src/main.c ****   {
 599              		.loc 1 304 7 is_stmt 0 view .LVU168
 600 0036 FFF7FEFF 		bl	HAL_SPI_Init
 601              	.LVL19:
 304:Core/Src/main.c ****   {
 602              		.loc 1 304 6 discriminator 1 view .LVU169
 603 003a 0028     		cmp	r0, #0
 604 003c 00D1     		bne	.L37
 312:Core/Src/main.c **** 
 605              		.loc 1 312 1 view .LVU170
 606              		@ sp needed
 607 003e 10BD     		pop	{r4, pc}
 608              	.L37:
 306:Core/Src/main.c ****   }
ARM GAS  /var/folders/kr/g9ry2bg56g773797gdtkvvkw0000gn/T//ccwMwPEG.s 			page 26


 609              		.loc 1 306 5 is_stmt 1 view .LVU171
 610 0040 FFF7FEFF 		bl	Error_Handler
 611              	.LVL20:
 612              	.L39:
 613              		.align	2
 614              	.L38:
 615 0044 00000000 		.word	hspi2
 616 0048 00380040 		.word	1073756160
 617              		.cfi_endproc
 618              	.LFE46:
 620              		.section	.text.MX_TSC_Init,"ax",%progbits
 621              		.align	1
 622              		.syntax unified
 623              		.code	16
 624              		.thumb_func
 626              	MX_TSC_Init:
 627              	.LFB47:
 320:Core/Src/main.c **** 
 628              		.loc 1 320 1 view -0
 629              		.cfi_startproc
 630              		@ args = 0, pretend = 0, frame = 0
 631              		@ frame_needed = 0, uses_anonymous_args = 0
 632 0000 10B5     		push	{r4, lr}
 633              	.LCFI7:
 634              		.cfi_def_cfa_offset 8
 635              		.cfi_offset 4, -8
 636              		.cfi_offset 14, -4
 332:Core/Src/main.c ****   htsc.Init.CTPulseHighLength = TSC_CTPH_2CYCLES;
 637              		.loc 1 332 3 view .LVU173
 332:Core/Src/main.c ****   htsc.Init.CTPulseHighLength = TSC_CTPH_2CYCLES;
 638              		.loc 1 332 17 is_stmt 0 view .LVU174
 639 0002 1348     		ldr	r0, .L43
 640 0004 134B     		ldr	r3, .L43+4
 641 0006 0360     		str	r3, [r0]
 333:Core/Src/main.c ****   htsc.Init.CTPulseLowLength = TSC_CTPL_2CYCLES;
 642              		.loc 1 333 3 is_stmt 1 view .LVU175
 333:Core/Src/main.c ****   htsc.Init.CTPulseLowLength = TSC_CTPL_2CYCLES;
 643              		.loc 1 333 31 is_stmt 0 view .LVU176
 644 0008 8023     		movs	r3, #128
 645 000a 5B05     		lsls	r3, r3, #21
 646 000c 4360     		str	r3, [r0, #4]
 334:Core/Src/main.c ****   htsc.Init.SpreadSpectrum = DISABLE;
 647              		.loc 1 334 3 is_stmt 1 view .LVU177
 334:Core/Src/main.c ****   htsc.Init.SpreadSpectrum = DISABLE;
 648              		.loc 1 334 30 is_stmt 0 view .LVU178
 649 000e 8023     		movs	r3, #128
 650 0010 5B04     		lsls	r3, r3, #17
 651 0012 8360     		str	r3, [r0, #8]
 335:Core/Src/main.c ****   htsc.Init.SpreadSpectrumDeviation = 1;
 652              		.loc 1 335 3 is_stmt 1 view .LVU179
 335:Core/Src/main.c ****   htsc.Init.SpreadSpectrumDeviation = 1;
 653              		.loc 1 335 28 is_stmt 0 view .LVU180
 654 0014 0023     		movs	r3, #0
 655 0016 0373     		strb	r3, [r0, #12]
 336:Core/Src/main.c ****   htsc.Init.SpreadSpectrumPrescaler = TSC_SS_PRESC_DIV1;
 656              		.loc 1 336 3 is_stmt 1 view .LVU181
 336:Core/Src/main.c ****   htsc.Init.SpreadSpectrumPrescaler = TSC_SS_PRESC_DIV1;
ARM GAS  /var/folders/kr/g9ry2bg56g773797gdtkvvkw0000gn/T//ccwMwPEG.s 			page 27


 657              		.loc 1 336 37 is_stmt 0 view .LVU182
 658 0018 0122     		movs	r2, #1
 659 001a 0261     		str	r2, [r0, #16]
 337:Core/Src/main.c ****   htsc.Init.PulseGeneratorPrescaler = TSC_PG_PRESC_DIV4;
 660              		.loc 1 337 3 is_stmt 1 view .LVU183
 337:Core/Src/main.c ****   htsc.Init.PulseGeneratorPrescaler = TSC_PG_PRESC_DIV4;
 661              		.loc 1 337 37 is_stmt 0 view .LVU184
 662 001c 4361     		str	r3, [r0, #20]
 338:Core/Src/main.c ****   htsc.Init.MaxCountValue = TSC_MCV_8191;
 663              		.loc 1 338 3 is_stmt 1 view .LVU185
 338:Core/Src/main.c ****   htsc.Init.MaxCountValue = TSC_MCV_8191;
 664              		.loc 1 338 37 is_stmt 0 view .LVU186
 665 001e 8022     		movs	r2, #128
 666 0020 9201     		lsls	r2, r2, #6
 667 0022 8261     		str	r2, [r0, #24]
 339:Core/Src/main.c ****   htsc.Init.IODefaultMode = TSC_IODEF_OUT_PP_LOW;
 668              		.loc 1 339 3 is_stmt 1 view .LVU187
 339:Core/Src/main.c ****   htsc.Init.IODefaultMode = TSC_IODEF_OUT_PP_LOW;
 669              		.loc 1 339 27 is_stmt 0 view .LVU188
 670 0024 A022     		movs	r2, #160
 671 0026 C261     		str	r2, [r0, #28]
 340:Core/Src/main.c ****   htsc.Init.SynchroPinPolarity = TSC_SYNC_POLARITY_FALLING;
 672              		.loc 1 340 3 is_stmt 1 view .LVU189
 340:Core/Src/main.c ****   htsc.Init.SynchroPinPolarity = TSC_SYNC_POLARITY_FALLING;
 673              		.loc 1 340 27 is_stmt 0 view .LVU190
 674 0028 0362     		str	r3, [r0, #32]
 341:Core/Src/main.c ****   htsc.Init.AcquisitionMode = TSC_ACQ_MODE_NORMAL;
 675              		.loc 1 341 3 is_stmt 1 view .LVU191
 341:Core/Src/main.c ****   htsc.Init.AcquisitionMode = TSC_ACQ_MODE_NORMAL;
 676              		.loc 1 341 32 is_stmt 0 view .LVU192
 677 002a 4362     		str	r3, [r0, #36]
 342:Core/Src/main.c ****   htsc.Init.MaxCountInterrupt = DISABLE;
 678              		.loc 1 342 3 is_stmt 1 view .LVU193
 342:Core/Src/main.c ****   htsc.Init.MaxCountInterrupt = DISABLE;
 679              		.loc 1 342 29 is_stmt 0 view .LVU194
 680 002c 8362     		str	r3, [r0, #40]
 343:Core/Src/main.c ****   htsc.Init.ChannelIOs = TSC_GROUP1_IO3|TSC_GROUP2_IO3|TSC_GROUP3_IO2;
 681              		.loc 1 343 3 is_stmt 1 view .LVU195
 343:Core/Src/main.c ****   htsc.Init.ChannelIOs = TSC_GROUP1_IO3|TSC_GROUP2_IO3|TSC_GROUP3_IO2;
 682              		.loc 1 343 31 is_stmt 0 view .LVU196
 683 002e 743A     		subs	r2, r2, #116
 684 0030 8354     		strb	r3, [r0, r2]
 344:Core/Src/main.c ****   htsc.Init.ShieldIOs = 0;
 685              		.loc 1 344 3 is_stmt 1 view .LVU197
 344:Core/Src/main.c ****   htsc.Init.ShieldIOs = 0;
 686              		.loc 1 344 24 is_stmt 0 view .LVU198
 687 0032 9122     		movs	r2, #145
 688 0034 9200     		lsls	r2, r2, #2
 689 0036 0263     		str	r2, [r0, #48]
 345:Core/Src/main.c ****   htsc.Init.SamplingIOs = TSC_GROUP1_IO4|TSC_GROUP2_IO4|TSC_GROUP3_IO3;
 690              		.loc 1 345 3 is_stmt 1 view .LVU199
 345:Core/Src/main.c ****   htsc.Init.SamplingIOs = TSC_GROUP1_IO4|TSC_GROUP2_IO4|TSC_GROUP3_IO3;
 691              		.loc 1 345 23 is_stmt 0 view .LVU200
 692 0038 4363     		str	r3, [r0, #52]
 346:Core/Src/main.c ****   if (HAL_TSC_Init(&htsc) != HAL_OK)
 693              		.loc 1 346 3 is_stmt 1 view .LVU201
 346:Core/Src/main.c ****   if (HAL_TSC_Init(&htsc) != HAL_OK)
ARM GAS  /var/folders/kr/g9ry2bg56g773797gdtkvvkw0000gn/T//ccwMwPEG.s 			page 28


 694              		.loc 1 346 25 is_stmt 0 view .LVU202
 695 003a 9123     		movs	r3, #145
 696 003c DB00     		lsls	r3, r3, #3
 697 003e 8363     		str	r3, [r0, #56]
 347:Core/Src/main.c ****   {
 698              		.loc 1 347 3 is_stmt 1 view .LVU203
 347:Core/Src/main.c ****   {
 699              		.loc 1 347 7 is_stmt 0 view .LVU204
 700 0040 FFF7FEFF 		bl	HAL_TSC_Init
 701              	.LVL21:
 347:Core/Src/main.c ****   {
 702              		.loc 1 347 6 discriminator 1 view .LVU205
 703 0044 0028     		cmp	r0, #0
 704 0046 00D1     		bne	.L42
 355:Core/Src/main.c **** 
 705              		.loc 1 355 1 view .LVU206
 706              		@ sp needed
 707 0048 10BD     		pop	{r4, pc}
 708              	.L42:
 349:Core/Src/main.c ****   }
 709              		.loc 1 349 5 is_stmt 1 view .LVU207
 710 004a FFF7FEFF 		bl	Error_Handler
 711              	.LVL22:
 712              	.L44:
 713 004e C046     		.align	2
 714              	.L43:
 715 0050 00000000 		.word	htsc
 716 0054 00400240 		.word	1073889280
 717              		.cfi_endproc
 718              	.LFE47:
 720              		.section	.text.MX_USB_PCD_Init,"ax",%progbits
 721              		.align	1
 722              		.syntax unified
 723              		.code	16
 724              		.thumb_func
 726              	MX_USB_PCD_Init:
 727              	.LFB48:
 363:Core/Src/main.c **** 
 728              		.loc 1 363 1 view -0
 729              		.cfi_startproc
 730              		@ args = 0, pretend = 0, frame = 0
 731              		@ frame_needed = 0, uses_anonymous_args = 0
 732 0000 10B5     		push	{r4, lr}
 733              	.LCFI8:
 734              		.cfi_def_cfa_offset 8
 735              		.cfi_offset 4, -8
 736              		.cfi_offset 14, -4
 372:Core/Src/main.c ****   hpcd_USB_FS.Init.dev_endpoints = 8;
 737              		.loc 1 372 3 view .LVU209
 372:Core/Src/main.c ****   hpcd_USB_FS.Init.dev_endpoints = 8;
 738              		.loc 1 372 24 is_stmt 0 view .LVU210
 739 0002 0948     		ldr	r0, .L48
 740 0004 094B     		ldr	r3, .L48+4
 741 0006 0360     		str	r3, [r0]
 373:Core/Src/main.c ****   hpcd_USB_FS.Init.speed = PCD_SPEED_FULL;
 742              		.loc 1 373 3 is_stmt 1 view .LVU211
 373:Core/Src/main.c ****   hpcd_USB_FS.Init.speed = PCD_SPEED_FULL;
ARM GAS  /var/folders/kr/g9ry2bg56g773797gdtkvvkw0000gn/T//ccwMwPEG.s 			page 29


 743              		.loc 1 373 34 is_stmt 0 view .LVU212
 744 0008 0823     		movs	r3, #8
 745 000a 4360     		str	r3, [r0, #4]
 374:Core/Src/main.c ****   hpcd_USB_FS.Init.phy_itface = PCD_PHY_EMBEDDED;
 746              		.loc 1 374 3 is_stmt 1 view .LVU213
 374:Core/Src/main.c ****   hpcd_USB_FS.Init.phy_itface = PCD_PHY_EMBEDDED;
 747              		.loc 1 374 26 is_stmt 0 view .LVU214
 748 000c 063B     		subs	r3, r3, #6
 749 000e 8360     		str	r3, [r0, #8]
 375:Core/Src/main.c ****   hpcd_USB_FS.Init.low_power_enable = DISABLE;
 750              		.loc 1 375 3 is_stmt 1 view .LVU215
 375:Core/Src/main.c ****   hpcd_USB_FS.Init.low_power_enable = DISABLE;
 751              		.loc 1 375 31 is_stmt 0 view .LVU216
 752 0010 0361     		str	r3, [r0, #16]
 376:Core/Src/main.c ****   hpcd_USB_FS.Init.lpm_enable = DISABLE;
 753              		.loc 1 376 3 is_stmt 1 view .LVU217
 376:Core/Src/main.c ****   hpcd_USB_FS.Init.lpm_enable = DISABLE;
 754              		.loc 1 376 37 is_stmt 0 view .LVU218
 755 0012 0023     		movs	r3, #0
 756 0014 8361     		str	r3, [r0, #24]
 377:Core/Src/main.c ****   hpcd_USB_FS.Init.battery_charging_enable = DISABLE;
 757              		.loc 1 377 3 is_stmt 1 view .LVU219
 377:Core/Src/main.c ****   hpcd_USB_FS.Init.battery_charging_enable = DISABLE;
 758              		.loc 1 377 31 is_stmt 0 view .LVU220
 759 0016 C361     		str	r3, [r0, #28]
 378:Core/Src/main.c ****   if (HAL_PCD_Init(&hpcd_USB_FS) != HAL_OK)
 760              		.loc 1 378 3 is_stmt 1 view .LVU221
 378:Core/Src/main.c ****   if (HAL_PCD_Init(&hpcd_USB_FS) != HAL_OK)
 761              		.loc 1 378 44 is_stmt 0 view .LVU222
 762 0018 0362     		str	r3, [r0, #32]
 379:Core/Src/main.c ****   {
 763              		.loc 1 379 3 is_stmt 1 view .LVU223
 379:Core/Src/main.c ****   {
 764              		.loc 1 379 7 is_stmt 0 view .LVU224
 765 001a FFF7FEFF 		bl	HAL_PCD_Init
 766              	.LVL23:
 379:Core/Src/main.c ****   {
 767              		.loc 1 379 6 discriminator 1 view .LVU225
 768 001e 0028     		cmp	r0, #0
 769 0020 00D1     		bne	.L47
 387:Core/Src/main.c **** 
 770              		.loc 1 387 1 view .LVU226
 771              		@ sp needed
 772 0022 10BD     		pop	{r4, pc}
 773              	.L47:
 381:Core/Src/main.c ****   }
 774              		.loc 1 381 5 is_stmt 1 view .LVU227
 775 0024 FFF7FEFF 		bl	Error_Handler
 776              	.LVL24:
 777              	.L49:
 778              		.align	2
 779              	.L48:
 780 0028 00000000 		.word	hpcd_USB_FS
 781 002c 005C0040 		.word	1073765376
 782              		.cfi_endproc
 783              	.LFE48:
 785              		.section	.text.SystemClock_Config,"ax",%progbits
ARM GAS  /var/folders/kr/g9ry2bg56g773797gdtkvvkw0000gn/T//ccwMwPEG.s 			page 30


 786              		.align	1
 787              		.global	SystemClock_Config
 788              		.syntax unified
 789              		.code	16
 790              		.thumb_func
 792              	SystemClock_Config:
 793              	.LFB44:
 184:Core/Src/main.c ****   RCC_OscInitTypeDef RCC_OscInitStruct = {0};
 794              		.loc 1 184 1 view -0
 795              		.cfi_startproc
 796              		@ args = 0, pretend = 0, frame = 96
 797              		@ frame_needed = 0, uses_anonymous_args = 0
 798 0000 00B5     		push	{lr}
 799              	.LCFI9:
 800              		.cfi_def_cfa_offset 4
 801              		.cfi_offset 14, -4
 802 0002 99B0     		sub	sp, sp, #100
 803              	.LCFI10:
 804              		.cfi_def_cfa_offset 104
 185:Core/Src/main.c ****   RCC_ClkInitTypeDef RCC_ClkInitStruct = {0};
 805              		.loc 1 185 3 view .LVU229
 185:Core/Src/main.c ****   RCC_ClkInitTypeDef RCC_ClkInitStruct = {0};
 806              		.loc 1 185 22 is_stmt 0 view .LVU230
 807 0004 3422     		movs	r2, #52
 808 0006 0021     		movs	r1, #0
 809 0008 0BA8     		add	r0, sp, #44
 810 000a FFF7FEFF 		bl	memset
 811              	.LVL25:
 186:Core/Src/main.c ****   RCC_PeriphCLKInitTypeDef PeriphClkInit = {0};
 812              		.loc 1 186 3 is_stmt 1 view .LVU231
 186:Core/Src/main.c ****   RCC_PeriphCLKInitTypeDef PeriphClkInit = {0};
 813              		.loc 1 186 22 is_stmt 0 view .LVU232
 814 000e 1022     		movs	r2, #16
 815 0010 0021     		movs	r1, #0
 816 0012 07A8     		add	r0, sp, #28
 817 0014 FFF7FEFF 		bl	memset
 818              	.LVL26:
 187:Core/Src/main.c **** 
 819              		.loc 1 187 3 is_stmt 1 view .LVU233
 187:Core/Src/main.c **** 
 820              		.loc 1 187 28 is_stmt 0 view .LVU234
 821 0018 1C22     		movs	r2, #28
 822 001a 0021     		movs	r1, #0
 823 001c 6846     		mov	r0, sp
 824 001e FFF7FEFF 		bl	memset
 825              	.LVL27:
 192:Core/Src/main.c ****   RCC_OscInitStruct.HSIState = RCC_HSI_ON;
 826              		.loc 1 192 3 is_stmt 1 view .LVU235
 192:Core/Src/main.c ****   RCC_OscInitStruct.HSIState = RCC_HSI_ON;
 827              		.loc 1 192 36 is_stmt 0 view .LVU236
 828 0022 2223     		movs	r3, #34
 829 0024 0B93     		str	r3, [sp, #44]
 193:Core/Src/main.c ****   RCC_OscInitStruct.HSI48State = RCC_HSI48_ON;
 830              		.loc 1 193 3 is_stmt 1 view .LVU237
 193:Core/Src/main.c ****   RCC_OscInitStruct.HSI48State = RCC_HSI48_ON;
 831              		.loc 1 193 30 is_stmt 0 view .LVU238
 832 0026 213B     		subs	r3, r3, #33
ARM GAS  /var/folders/kr/g9ry2bg56g773797gdtkvvkw0000gn/T//ccwMwPEG.s 			page 31


 833 0028 0E93     		str	r3, [sp, #56]
 194:Core/Src/main.c ****   RCC_OscInitStruct.HSICalibrationValue = RCC_HSICALIBRATION_DEFAULT;
 834              		.loc 1 194 3 is_stmt 1 view .LVU239
 194:Core/Src/main.c ****   RCC_OscInitStruct.HSICalibrationValue = RCC_HSICALIBRATION_DEFAULT;
 835              		.loc 1 194 32 is_stmt 0 view .LVU240
 836 002a 1393     		str	r3, [sp, #76]
 195:Core/Src/main.c ****   RCC_OscInitStruct.PLL.PLLState = RCC_PLL_ON;
 837              		.loc 1 195 3 is_stmt 1 view .LVU241
 195:Core/Src/main.c ****   RCC_OscInitStruct.PLL.PLLState = RCC_PLL_ON;
 838              		.loc 1 195 41 is_stmt 0 view .LVU242
 839 002c 0F33     		adds	r3, r3, #15
 840 002e 0F93     		str	r3, [sp, #60]
 196:Core/Src/main.c ****   RCC_OscInitStruct.PLL.PLLSource = RCC_PLLSOURCE_HSI;
 841              		.loc 1 196 3 is_stmt 1 view .LVU243
 196:Core/Src/main.c ****   RCC_OscInitStruct.PLL.PLLSource = RCC_PLLSOURCE_HSI;
 842              		.loc 1 196 34 is_stmt 0 view .LVU244
 843 0030 0E3B     		subs	r3, r3, #14
 844 0032 1493     		str	r3, [sp, #80]
 197:Core/Src/main.c ****   RCC_OscInitStruct.PLL.PLLMUL = RCC_PLL_MUL6;
 845              		.loc 1 197 3 is_stmt 1 view .LVU245
 197:Core/Src/main.c ****   RCC_OscInitStruct.PLL.PLLMUL = RCC_PLL_MUL6;
 846              		.loc 1 197 35 is_stmt 0 view .LVU246
 847 0034 8023     		movs	r3, #128
 848 0036 1B02     		lsls	r3, r3, #8
 849 0038 1593     		str	r3, [sp, #84]
 198:Core/Src/main.c ****   RCC_OscInitStruct.PLL.PREDIV = RCC_PREDIV_DIV1;
 850              		.loc 1 198 3 is_stmt 1 view .LVU247
 198:Core/Src/main.c ****   RCC_OscInitStruct.PLL.PREDIV = RCC_PREDIV_DIV1;
 851              		.loc 1 198 32 is_stmt 0 view .LVU248
 852 003a 8023     		movs	r3, #128
 853 003c 5B03     		lsls	r3, r3, #13
 854 003e 1693     		str	r3, [sp, #88]
 199:Core/Src/main.c ****   if (HAL_RCC_OscConfig(&RCC_OscInitStruct) != HAL_OK)
 855              		.loc 1 199 3 is_stmt 1 view .LVU249
 200:Core/Src/main.c ****   {
 856              		.loc 1 200 3 view .LVU250
 200:Core/Src/main.c ****   {
 857              		.loc 1 200 7 is_stmt 0 view .LVU251
 858 0040 0BA8     		add	r0, sp, #44
 859 0042 FFF7FEFF 		bl	HAL_RCC_OscConfig
 860              	.LVL28:
 200:Core/Src/main.c ****   {
 861              		.loc 1 200 6 discriminator 1 view .LVU252
 862 0046 0028     		cmp	r0, #0
 863 0048 18D1     		bne	.L54
 207:Core/Src/main.c ****                               |RCC_CLOCKTYPE_PCLK1;
 864              		.loc 1 207 3 is_stmt 1 view .LVU253
 207:Core/Src/main.c ****                               |RCC_CLOCKTYPE_PCLK1;
 865              		.loc 1 207 31 is_stmt 0 view .LVU254
 866 004a 0723     		movs	r3, #7
 867 004c 0793     		str	r3, [sp, #28]
 209:Core/Src/main.c ****   RCC_ClkInitStruct.AHBCLKDivider = RCC_SYSCLK_DIV1;
 868              		.loc 1 209 3 is_stmt 1 view .LVU255
 209:Core/Src/main.c ****   RCC_ClkInitStruct.AHBCLKDivider = RCC_SYSCLK_DIV1;
 869              		.loc 1 209 34 is_stmt 0 view .LVU256
 870 004e 053B     		subs	r3, r3, #5
 871 0050 0893     		str	r3, [sp, #32]
ARM GAS  /var/folders/kr/g9ry2bg56g773797gdtkvvkw0000gn/T//ccwMwPEG.s 			page 32


 210:Core/Src/main.c ****   RCC_ClkInitStruct.APB1CLKDivider = RCC_HCLK_DIV1;
 872              		.loc 1 210 3 is_stmt 1 view .LVU257
 210:Core/Src/main.c ****   RCC_ClkInitStruct.APB1CLKDivider = RCC_HCLK_DIV1;
 873              		.loc 1 210 35 is_stmt 0 view .LVU258
 874 0052 0023     		movs	r3, #0
 875 0054 0993     		str	r3, [sp, #36]
 211:Core/Src/main.c **** 
 876              		.loc 1 211 3 is_stmt 1 view .LVU259
 211:Core/Src/main.c **** 
 877              		.loc 1 211 36 is_stmt 0 view .LVU260
 878 0056 0A93     		str	r3, [sp, #40]
 213:Core/Src/main.c ****   {
 879              		.loc 1 213 3 is_stmt 1 view .LVU261
 213:Core/Src/main.c ****   {
 880              		.loc 1 213 7 is_stmt 0 view .LVU262
 881 0058 0121     		movs	r1, #1
 882 005a 07A8     		add	r0, sp, #28
 883 005c FFF7FEFF 		bl	HAL_RCC_ClockConfig
 884              	.LVL29:
 213:Core/Src/main.c ****   {
 885              		.loc 1 213 6 discriminator 1 view .LVU263
 886 0060 0028     		cmp	r0, #0
 887 0062 0DD1     		bne	.L55
 217:Core/Src/main.c ****   PeriphClkInit.UsbClockSelection = RCC_USBCLKSOURCE_HSI48;
 888              		.loc 1 217 3 is_stmt 1 view .LVU264
 217:Core/Src/main.c ****   PeriphClkInit.UsbClockSelection = RCC_USBCLKSOURCE_HSI48;
 889              		.loc 1 217 38 is_stmt 0 view .LVU265
 890 0064 8023     		movs	r3, #128
 891 0066 9B02     		lsls	r3, r3, #10
 892 0068 0093     		str	r3, [sp]
 218:Core/Src/main.c **** 
 893              		.loc 1 218 3 is_stmt 1 view .LVU266
 218:Core/Src/main.c **** 
 894              		.loc 1 218 35 is_stmt 0 view .LVU267
 895 006a 0023     		movs	r3, #0
 896 006c 0693     		str	r3, [sp, #24]
 220:Core/Src/main.c ****   {
 897              		.loc 1 220 3 is_stmt 1 view .LVU268
 220:Core/Src/main.c ****   {
 898              		.loc 1 220 7 is_stmt 0 view .LVU269
 899 006e 6846     		mov	r0, sp
 900 0070 FFF7FEFF 		bl	HAL_RCCEx_PeriphCLKConfig
 901              	.LVL30:
 220:Core/Src/main.c ****   {
 902              		.loc 1 220 6 discriminator 1 view .LVU270
 903 0074 0028     		cmp	r0, #0
 904 0076 05D1     		bne	.L56
 224:Core/Src/main.c **** 
 905              		.loc 1 224 1 view .LVU271
 906 0078 19B0     		add	sp, sp, #100
 907              		@ sp needed
 908 007a 00BD     		pop	{pc}
 909              	.L54:
 202:Core/Src/main.c ****   }
 910              		.loc 1 202 5 is_stmt 1 view .LVU272
 911 007c FFF7FEFF 		bl	Error_Handler
 912              	.LVL31:
ARM GAS  /var/folders/kr/g9ry2bg56g773797gdtkvvkw0000gn/T//ccwMwPEG.s 			page 33


 913              	.L55:
 215:Core/Src/main.c ****   }
 914              		.loc 1 215 5 view .LVU273
 915 0080 FFF7FEFF 		bl	Error_Handler
 916              	.LVL32:
 917              	.L56:
 222:Core/Src/main.c ****   }
 918              		.loc 1 222 5 view .LVU274
 919 0084 FFF7FEFF 		bl	Error_Handler
 920              	.LVL33:
 921              		.cfi_endproc
 922              	.LFE44:
 924              		.section	.text.main,"ax",%progbits
 925              		.align	1
 926              		.global	main
 927              		.syntax unified
 928              		.code	16
 929              		.thumb_func
 931              	main:
 932              	.LFB43:
  96:Core/Src/main.c **** 
 933              		.loc 1 96 1 view -0
 934              		.cfi_startproc
 935              		@ Volatile: function does not return.
 936              		@ args = 0, pretend = 0, frame = 0
 937              		@ frame_needed = 0, uses_anonymous_args = 0
 938 0000 10B5     		push	{r4, lr}
 939              	.LCFI11:
 940              		.cfi_def_cfa_offset 8
 941              		.cfi_offset 4, -8
 942              		.cfi_offset 14, -4
 105:Core/Src/main.c **** 
 943              		.loc 1 105 3 view .LVU276
 944 0002 FFF7FEFF 		bl	HAL_Init
 945              	.LVL34:
 112:Core/Src/main.c **** 
 946              		.loc 1 112 3 view .LVU277
 947 0006 FFF7FEFF 		bl	SystemClock_Config
 948              	.LVL35:
 119:Core/Src/main.c ****   MX_I2C2_Init();
 949              		.loc 1 119 3 view .LVU278
 950 000a FFF7FEFF 		bl	MX_GPIO_Init
 951              	.LVL36:
 120:Core/Src/main.c ****   MX_SPI2_Init();
 952              		.loc 1 120 3 view .LVU279
 953 000e FFF7FEFF 		bl	MX_I2C2_Init
 954              	.LVL37:
 121:Core/Src/main.c ****   MX_TSC_Init();
 955              		.loc 1 121 3 view .LVU280
 956 0012 FFF7FEFF 		bl	MX_SPI2_Init
 957              	.LVL38:
 122:Core/Src/main.c ****   MX_USB_PCD_Init();
 958              		.loc 1 122 3 view .LVU281
 959 0016 FFF7FEFF 		bl	MX_TSC_Init
 960              	.LVL39:
 123:Core/Src/main.c **** 
 961              		.loc 1 123 3 view .LVU282
ARM GAS  /var/folders/kr/g9ry2bg56g773797gdtkvvkw0000gn/T//ccwMwPEG.s 			page 34


 962 001a FFF7FEFF 		bl	MX_USB_PCD_Init
 963              	.LVL40:
 125:Core/Src/main.c ****   /* USER CODE BEGIN 2 */
 964              		.loc 1 125 3 view .LVU283
 965 001e FFF7FEFF 		bl	initUsart3
 966              	.LVL41:
 131:Core/Src/main.c **** 
 967              		.loc 1 131 3 view .LVU284
 968 0022 FFF7FEFF 		bl	osKernelInitialize
 969              	.LVL42:
 151:Core/Src/main.c ****   /* creation of LEDTask */
 970              		.loc 1 151 3 view .LVU285
 151:Core/Src/main.c ****   /* creation of LEDTask */
 971              		.loc 1 151 22 is_stmt 0 view .LVU286
 972 0026 084A     		ldr	r2, .L59
 973 0028 0848     		ldr	r0, .L59+4
 974 002a 0021     		movs	r1, #0
 975 002c FFF7FEFF 		bl	osThreadNew
 976              	.LVL43:
 151:Core/Src/main.c ****   /* creation of LEDTask */
 977              		.loc 1 151 20 discriminator 1 view .LVU287
 978 0030 074B     		ldr	r3, .L59+8
 979 0032 1860     		str	r0, [r3]
 153:Core/Src/main.c **** 
 980              		.loc 1 153 3 is_stmt 1 view .LVU288
 153:Core/Src/main.c **** 
 981              		.loc 1 153 19 is_stmt 0 view .LVU289
 982 0034 074A     		ldr	r2, .L59+12
 983 0036 0848     		ldr	r0, .L59+16
 984 0038 0021     		movs	r1, #0
 985 003a FFF7FEFF 		bl	osThreadNew
 986              	.LVL44:
 153:Core/Src/main.c **** 
 987              		.loc 1 153 17 discriminator 1 view .LVU290
 988 003e 074B     		ldr	r3, .L59+20
 989 0040 1860     		str	r0, [r3]
 164:Core/Src/main.c **** 
 990              		.loc 1 164 3 is_stmt 1 view .LVU291
 991 0042 FFF7FEFF 		bl	osKernelStart
 992              	.LVL45:
 993              	.L58:
 170:Core/Src/main.c ****   {
 994              		.loc 1 170 3 view .LVU292
 175:Core/Src/main.c ****   /* USER CODE END 3 */
 995              		.loc 1 175 3 view .LVU293
 170:Core/Src/main.c ****   {
 996              		.loc 1 170 9 view .LVU294
 997 0046 FEE7     		b	.L58
 998              	.L60:
 999              		.align	2
 1000              	.L59:
 1001 0048 00000000 		.word	routerTask_attributes
 1002 004c 00000000 		.word	StartRouterTask
 1003 0050 00000000 		.word	routerTaskHandle
 1004 0054 00000000 		.word	LEDTask_attributes
 1005 0058 00000000 		.word	StartLEDTask
 1006 005c 00000000 		.word	LEDTaskHandle
ARM GAS  /var/folders/kr/g9ry2bg56g773797gdtkvvkw0000gn/T//ccwMwPEG.s 			page 35


 1007              		.cfi_endproc
 1008              	.LFE43:
 1010              		.global	LEDTask_attributes
 1011              		.section	.rodata.str1.4,"aMS",%progbits,1
 1012              		.align	2
 1013              	.LC11:
 1014 0000 4C454454 		.ascii	"LEDTask\000"
 1014      61736B00 
 1015              		.section	.rodata.LEDTask_attributes,"a"
 1016              		.align	2
 1019              	LEDTask_attributes:
 1020 0000 00000000 		.word	.LC11
 1021 0004 00000000 		.space	16
 1021      00000000 
 1021      00000000 
 1021      00000000 
 1022 0014 00020000 		.word	512
 1023 0018 18000000 		.word	24
 1024 001c 00000000 		.space	8
 1024      00000000 
 1025              		.global	LEDTaskHandle
 1026              		.section	.bss.LEDTaskHandle,"aw",%nobits
 1027              		.align	2
 1030              	LEDTaskHandle:
 1031 0000 00000000 		.space	4
 1032              		.global	routerTask_attributes
 1033              		.section	.rodata.str1.4
 1034              		.align	2
 1035              	.LC12:
 1036 0008 726F7574 		.ascii	"routerTask\000"
 1036      65725461 
 1036      736B00
 1037              		.section	.rodata.routerTask_attributes,"a"
 1038              		.align	2
 1041              	routerTask_attributes:
 1042 0000 08000000 		.word	.LC12
 1043 0004 00000000 		.space	16
 1043      00000000 
 1043      00000000 
 1043      00000000 
 1044 0014 00020000 		.word	512
 1045 0018 18000000 		.word	24
 1046 001c 00000000 		.space	8
 1046      00000000 
 1047              		.global	routerTaskHandle
 1048              		.section	.bss.routerTaskHandle,"aw",%nobits
 1049              		.align	2
 1052              	routerTaskHandle:
 1053 0000 00000000 		.space	4
 1054              		.global	hpcd_USB_FS
 1055              		.section	.bss.hpcd_USB_FS,"aw",%nobits
 1056              		.align	2
 1059              	hpcd_USB_FS:
 1060 0000 00000000 		.space	756
 1060      00000000 
 1060      00000000 
 1060      00000000 
ARM GAS  /var/folders/kr/g9ry2bg56g773797gdtkvvkw0000gn/T//ccwMwPEG.s 			page 36


 1060      00000000 
 1061              		.global	htsc
 1062              		.section	.bss.htsc,"aw",%nobits
 1063              		.align	2
 1066              	htsc:
 1067 0000 00000000 		.space	68
 1067      00000000 
 1067      00000000 
 1067      00000000 
 1067      00000000 
 1068              		.global	hspi2
 1069              		.section	.bss.hspi2,"aw",%nobits
 1070              		.align	2
 1073              	hspi2:
 1074 0000 00000000 		.space	100
 1074      00000000 
 1074      00000000 
 1074      00000000 
 1074      00000000 
 1075              		.global	hi2c2
 1076              		.section	.bss.hi2c2,"aw",%nobits
 1077              		.align	2
 1080              	hi2c2:
 1081 0000 00000000 		.space	84
 1081      00000000 
 1081      00000000 
 1081      00000000 
 1081      00000000 
 1082              		.text
 1083              	.Letext0:
 1084              		.file 3 "/Applications/ArmGNUToolchain/13.2.Rel1/arm-none-eabi/arm-none-eabi/include/machine/_defa
 1085              		.file 4 "/Applications/ArmGNUToolchain/13.2.Rel1/arm-none-eabi/arm-none-eabi/include/sys/_stdint.h
 1086              		.file 5 "Drivers/CMSIS/Device/ST/STM32F0xx/Include/stm32f072xb.h"
 1087              		.file 6 "Drivers/CMSIS/Device/ST/STM32F0xx/Include/stm32f0xx.h"
 1088              		.file 7 "Drivers/STM32F0xx_HAL_Driver/Inc/stm32f0xx_hal_def.h"
 1089              		.file 8 "Drivers/STM32F0xx_HAL_Driver/Inc/stm32f0xx_hal_rcc.h"
 1090              		.file 9 "Drivers/STM32F0xx_HAL_Driver/Inc/stm32f0xx_hal_rcc_ex.h"
 1091              		.file 10 "Drivers/STM32F0xx_HAL_Driver/Inc/stm32f0xx_hal_gpio.h"
 1092              		.file 11 "Drivers/STM32F0xx_HAL_Driver/Inc/stm32f0xx_hal_dma.h"
 1093              		.file 12 "Drivers/STM32F0xx_HAL_Driver/Inc/stm32f0xx_hal_i2c.h"
 1094              		.file 13 "Drivers/STM32F0xx_HAL_Driver/Inc/stm32f0xx_ll_usb.h"
 1095              		.file 14 "Drivers/STM32F0xx_HAL_Driver/Inc/stm32f0xx_hal_pcd.h"
 1096              		.file 15 "Drivers/STM32F0xx_HAL_Driver/Inc/stm32f0xx_hal_spi.h"
 1097              		.file 16 "Drivers/STM32F0xx_HAL_Driver/Inc/stm32f0xx_hal_tim.h"
 1098              		.file 17 "Drivers/STM32F0xx_HAL_Driver/Inc/stm32f0xx_hal_tsc.h"
 1099              		.file 18 "Middlewares/Third_Party/FreeRTOS/Source/CMSIS_RTOS_V2/cmsis_os2.h"
 1100              		.file 19 "Drivers/STM32F0xx_HAL_Driver/Inc/stm32f0xx_hal_i2c_ex.h"
 1101              		.file 20 "Drivers/STM32F0xx_HAL_Driver/Inc/stm32f0xx_hal.h"
 1102              		.file 21 "Core/Inc/uartParser.h"
 1103              		.file 22 "<built-in>"
ARM GAS  /var/folders/kr/g9ry2bg56g773797gdtkvvkw0000gn/T//ccwMwPEG.s 			page 37


DEFINED SYMBOLS
                            *ABS*:00000000 main.c
/var/folders/kr/g9ry2bg56g773797gdtkvvkw0000gn/T//ccwMwPEG.s:19     .text.StartRouterTask:00000000 $t
/var/folders/kr/g9ry2bg56g773797gdtkvvkw0000gn/T//ccwMwPEG.s:25     .text.StartRouterTask:00000000 StartRouterTask
/var/folders/kr/g9ry2bg56g773797gdtkvvkw0000gn/T//ccwMwPEG.s:43     .text.MX_GPIO_Init:00000000 $t
/var/folders/kr/g9ry2bg56g773797gdtkvvkw0000gn/T//ccwMwPEG.s:48     .text.MX_GPIO_Init:00000000 MX_GPIO_Init
/var/folders/kr/g9ry2bg56g773797gdtkvvkw0000gn/T//ccwMwPEG.s:190    .text.MX_GPIO_Init:00000090 $d
/var/folders/kr/g9ry2bg56g773797gdtkvvkw0000gn/T//ccwMwPEG.s:197    .text.StartLEDTask:00000000 $t
/var/folders/kr/g9ry2bg56g773797gdtkvvkw0000gn/T//ccwMwPEG.s:203    .text.StartLEDTask:00000000 StartLEDTask
/var/folders/kr/g9ry2bg56g773797gdtkvvkw0000gn/T//ccwMwPEG.s:340    .text.StartLEDTask:00000090 $d
/var/folders/kr/g9ry2bg56g773797gdtkvvkw0000gn/T//ccwMwPEG.s:346    .text.HAL_TIM_PeriodElapsedCallback:00000000 $t
/var/folders/kr/g9ry2bg56g773797gdtkvvkw0000gn/T//ccwMwPEG.s:352    .text.HAL_TIM_PeriodElapsedCallback:00000000 HAL_TIM_PeriodElapsedCallback
/var/folders/kr/g9ry2bg56g773797gdtkvvkw0000gn/T//ccwMwPEG.s:387    .text.HAL_TIM_PeriodElapsedCallback:00000014 $d
/var/folders/kr/g9ry2bg56g773797gdtkvvkw0000gn/T//ccwMwPEG.s:392    .text.Error_Handler:00000000 $t
/var/folders/kr/g9ry2bg56g773797gdtkvvkw0000gn/T//ccwMwPEG.s:398    .text.Error_Handler:00000000 Error_Handler
/var/folders/kr/g9ry2bg56g773797gdtkvvkw0000gn/T//ccwMwPEG.s:430    .text.MX_I2C2_Init:00000000 $t
/var/folders/kr/g9ry2bg56g773797gdtkvvkw0000gn/T//ccwMwPEG.s:435    .text.MX_I2C2_Init:00000000 MX_I2C2_Init
/var/folders/kr/g9ry2bg56g773797gdtkvvkw0000gn/T//ccwMwPEG.s:521    .text.MX_I2C2_Init:0000004c $d
/var/folders/kr/g9ry2bg56g773797gdtkvvkw0000gn/T//ccwMwPEG.s:1080   .bss.hi2c2:00000000 hi2c2
/var/folders/kr/g9ry2bg56g773797gdtkvvkw0000gn/T//ccwMwPEG.s:528    .text.MX_SPI2_Init:00000000 $t
/var/folders/kr/g9ry2bg56g773797gdtkvvkw0000gn/T//ccwMwPEG.s:533    .text.MX_SPI2_Init:00000000 MX_SPI2_Init
/var/folders/kr/g9ry2bg56g773797gdtkvvkw0000gn/T//ccwMwPEG.s:615    .text.MX_SPI2_Init:00000044 $d
/var/folders/kr/g9ry2bg56g773797gdtkvvkw0000gn/T//ccwMwPEG.s:1073   .bss.hspi2:00000000 hspi2
/var/folders/kr/g9ry2bg56g773797gdtkvvkw0000gn/T//ccwMwPEG.s:621    .text.MX_TSC_Init:00000000 $t
/var/folders/kr/g9ry2bg56g773797gdtkvvkw0000gn/T//ccwMwPEG.s:626    .text.MX_TSC_Init:00000000 MX_TSC_Init
/var/folders/kr/g9ry2bg56g773797gdtkvvkw0000gn/T//ccwMwPEG.s:715    .text.MX_TSC_Init:00000050 $d
/var/folders/kr/g9ry2bg56g773797gdtkvvkw0000gn/T//ccwMwPEG.s:1066   .bss.htsc:00000000 htsc
/var/folders/kr/g9ry2bg56g773797gdtkvvkw0000gn/T//ccwMwPEG.s:721    .text.MX_USB_PCD_Init:00000000 $t
/var/folders/kr/g9ry2bg56g773797gdtkvvkw0000gn/T//ccwMwPEG.s:726    .text.MX_USB_PCD_Init:00000000 MX_USB_PCD_Init
/var/folders/kr/g9ry2bg56g773797gdtkvvkw0000gn/T//ccwMwPEG.s:780    .text.MX_USB_PCD_Init:00000028 $d
/var/folders/kr/g9ry2bg56g773797gdtkvvkw0000gn/T//ccwMwPEG.s:1059   .bss.hpcd_USB_FS:00000000 hpcd_USB_FS
/var/folders/kr/g9ry2bg56g773797gdtkvvkw0000gn/T//ccwMwPEG.s:786    .text.SystemClock_Config:00000000 $t
/var/folders/kr/g9ry2bg56g773797gdtkvvkw0000gn/T//ccwMwPEG.s:792    .text.SystemClock_Config:00000000 SystemClock_Config
/var/folders/kr/g9ry2bg56g773797gdtkvvkw0000gn/T//ccwMwPEG.s:925    .text.main:00000000 $t
/var/folders/kr/g9ry2bg56g773797gdtkvvkw0000gn/T//ccwMwPEG.s:931    .text.main:00000000 main
/var/folders/kr/g9ry2bg56g773797gdtkvvkw0000gn/T//ccwMwPEG.s:1001   .text.main:00000048 $d
/var/folders/kr/g9ry2bg56g773797gdtkvvkw0000gn/T//ccwMwPEG.s:1041   .rodata.routerTask_attributes:00000000 routerTask_attributes
/var/folders/kr/g9ry2bg56g773797gdtkvvkw0000gn/T//ccwMwPEG.s:1052   .bss.routerTaskHandle:00000000 routerTaskHandle
/var/folders/kr/g9ry2bg56g773797gdtkvvkw0000gn/T//ccwMwPEG.s:1019   .rodata.LEDTask_attributes:00000000 LEDTask_attributes
/var/folders/kr/g9ry2bg56g773797gdtkvvkw0000gn/T//ccwMwPEG.s:1030   .bss.LEDTaskHandle:00000000 LEDTaskHandle
/var/folders/kr/g9ry2bg56g773797gdtkvvkw0000gn/T//ccwMwPEG.s:1012   .rodata.str1.4:00000000 $d
/var/folders/kr/g9ry2bg56g773797gdtkvvkw0000gn/T//ccwMwPEG.s:1016   .rodata.LEDTask_attributes:00000000 $d
/var/folders/kr/g9ry2bg56g773797gdtkvvkw0000gn/T//ccwMwPEG.s:1027   .bss.LEDTaskHandle:00000000 $d
/var/folders/kr/g9ry2bg56g773797gdtkvvkw0000gn/T//ccwMwPEG.s:1038   .rodata.routerTask_attributes:00000000 $d
/var/folders/kr/g9ry2bg56g773797gdtkvvkw0000gn/T//ccwMwPEG.s:1049   .bss.routerTaskHandle:00000000 $d
/var/folders/kr/g9ry2bg56g773797gdtkvvkw0000gn/T//ccwMwPEG.s:1056   .bss.hpcd_USB_FS:00000000 $d
/var/folders/kr/g9ry2bg56g773797gdtkvvkw0000gn/T//ccwMwPEG.s:1063   .bss.htsc:00000000 $d
/var/folders/kr/g9ry2bg56g773797gdtkvvkw0000gn/T//ccwMwPEG.s:1070   .bss.hspi2:00000000 $d
/var/folders/kr/g9ry2bg56g773797gdtkvvkw0000gn/T//ccwMwPEG.s:1077   .bss.hi2c2:00000000 $d

UNDEFINED SYMBOLS
memset
HAL_GPIO_WritePin
HAL_GPIO_Init
osDelay
commandLED
HAL_IncTick
ARM GAS  /var/folders/kr/g9ry2bg56g773797gdtkvvkw0000gn/T//ccwMwPEG.s 			page 38


HAL_I2C_Init
HAL_I2CEx_ConfigAnalogFilter
HAL_I2CEx_ConfigDigitalFilter
HAL_SPI_Init
HAL_TSC_Init
HAL_PCD_Init
HAL_RCC_OscConfig
HAL_RCC_ClockConfig
HAL_RCCEx_PeriphCLKConfig
HAL_Init
initUsart3
osKernelInitialize
osThreadNew
osKernelStart
