ARM GAS  /var/folders/kr/g9ry2bg56g773797gdtkvvkw0000gn/T//cc5EoDJi.s 			page 1


   1              		.cpu cortex-m0
   2              		.arch armv6s-m
   3              		.fpu softvfp
   4              		.eabi_attribute 20, 1
   5              		.eabi_attribute 21, 1
   6              		.eabi_attribute 23, 3
   7              		.eabi_attribute 24, 1
   8              		.eabi_attribute 25, 1
   9              		.eabi_attribute 26, 1
  10              		.eabi_attribute 30, 1
  11              		.eabi_attribute 34, 0
  12              		.eabi_attribute 18, 4
  13              		.file	"main.c"
  14              		.text
  15              	.Ltext0:
  16              		.cfi_sections	.debug_frame
  17              		.file 1 "Core/Src/main.c"
  18              		.section	.text.MX_GPIO_Init,"ax",%progbits
  19              		.align	1
  20              		.syntax unified
  21              		.code	16
  22              		.thumb_func
  24              	MX_GPIO_Init:
  25              	.LFB49:
   1:Core/Src/main.c **** /* USER CODE BEGIN Header */
   2:Core/Src/main.c **** /**
   3:Core/Src/main.c ****   ******************************************************************************
   4:Core/Src/main.c ****   * @file           : main.c
   5:Core/Src/main.c ****   * @brief          : Main program body
   6:Core/Src/main.c ****   ******************************************************************************
   7:Core/Src/main.c ****   * @attention
   8:Core/Src/main.c ****   *
   9:Core/Src/main.c ****   * Copyright (c) 2024 STMicroelectronics.
  10:Core/Src/main.c ****   * All rights reserved.
  11:Core/Src/main.c ****   *
  12:Core/Src/main.c ****   * This software is licensed under terms that can be found in the LICENSE file
  13:Core/Src/main.c ****   * in the root directory of this software component.
  14:Core/Src/main.c ****   * If no LICENSE file comes with this software, it is provided AS-IS.
  15:Core/Src/main.c ****   *
  16:Core/Src/main.c ****   ******************************************************************************
  17:Core/Src/main.c ****   */
  18:Core/Src/main.c **** /* USER CODE END Header */
  19:Core/Src/main.c **** /* Includes ------------------------------------------------------------------*/
  20:Core/Src/main.c **** #include "main.h"
  21:Core/Src/main.c **** #include "cmsis_os.h"
  22:Core/Src/main.c **** #include "stm32f072xb.h"
  23:Core/Src/main.c **** 
  24:Core/Src/main.c **** //Global variables
  25:Core/Src/main.c **** volatile uint16_t commandLED = 0;
  26:Core/Src/main.c **** volatile uint16_t commandMotor = 0;
  27:Core/Src/main.c **** 
  28:Core/Src/main.c **** //Semaphores
  29:Core/Src/main.c **** osSemaphoreId_t binarySem03LEDWorkerHandle;
  30:Core/Src/main.c **** osSemaphoreId_t binarySem04MotorWorkerHandle;
  31:Core/Src/main.c **** 
  32:Core/Src/main.c **** /* Private includes ----------------------------------------------------------*/
  33:Core/Src/main.c **** /* USER CODE BEGIN Includes */
ARM GAS  /var/folders/kr/g9ry2bg56g773797gdtkvvkw0000gn/T//cc5EoDJi.s 			page 2


  34:Core/Src/main.c **** 
  35:Core/Src/main.c **** /* USER CODE END Includes */
  36:Core/Src/main.c **** 
  37:Core/Src/main.c **** /* Private typedef -----------------------------------------------------------*/
  38:Core/Src/main.c **** /* USER CODE BEGIN PTD */
  39:Core/Src/main.c **** 
  40:Core/Src/main.c **** /* USER CODE END PTD */
  41:Core/Src/main.c **** 
  42:Core/Src/main.c **** /* Private define ------------------------------------------------------------*/
  43:Core/Src/main.c **** /* USER CODE BEGIN PD */
  44:Core/Src/main.c **** 
  45:Core/Src/main.c **** /* USER CODE END PD */
  46:Core/Src/main.c **** 
  47:Core/Src/main.c **** /* Private macro -------------------------------------------------------------*/
  48:Core/Src/main.c **** /* USER CODE BEGIN PM */
  49:Core/Src/main.c **** 
  50:Core/Src/main.c **** /* USER CODE END PM */
  51:Core/Src/main.c **** 
  52:Core/Src/main.c **** /* Private variables ---------------------------------------------------------*/
  53:Core/Src/main.c **** I2C_HandleTypeDef hi2c2;
  54:Core/Src/main.c **** 
  55:Core/Src/main.c **** SPI_HandleTypeDef hspi2;
  56:Core/Src/main.c **** 
  57:Core/Src/main.c **** TSC_HandleTypeDef htsc;
  58:Core/Src/main.c **** 
  59:Core/Src/main.c **** PCD_HandleTypeDef hpcd_USB_FS;
  60:Core/Src/main.c **** /* Definitions for task router */
  61:Core/Src/main.c **** osThreadId_t routerTaskHandle;
  62:Core/Src/main.c **** const osThreadAttr_t routerTask_attributes = {
  63:Core/Src/main.c ****   .name = "routerTask",
  64:Core/Src/main.c ****   .stack_size = 128 * 4,
  65:Core/Src/main.c ****   .priority = (osPriority_t) osPriorityNormal,
  66:Core/Src/main.c **** };
  67:Core/Src/main.c **** 
  68:Core/Src/main.c **** /* Definitions for LED worker task */
  69:Core/Src/main.c **** osThreadId_t LEDTaskHandle;
  70:Core/Src/main.c **** const osThreadAttr_t LEDTask_attributes = {
  71:Core/Src/main.c ****   .name = "LEDTask",
  72:Core/Src/main.c ****   .stack_size = 128 * 4,
  73:Core/Src/main.c ****   .priority = (osPriority_t) osPriorityNormal,
  74:Core/Src/main.c **** };
  75:Core/Src/main.c **** 
  76:Core/Src/main.c **** 
  77:Core/Src/main.c **** /* USER CODE BEGIN PV */
  78:Core/Src/main.c **** 
  79:Core/Src/main.c **** /* USER CODE END PV */
  80:Core/Src/main.c **** 
  81:Core/Src/main.c **** /* Private function prototypes -----------------------------------------------*/
  82:Core/Src/main.c **** void SystemClock_Config(void);
  83:Core/Src/main.c **** static void MX_GPIO_Init(void);
  84:Core/Src/main.c **** static void MX_I2C2_Init(void);
  85:Core/Src/main.c **** static void MX_SPI2_Init(void);
  86:Core/Src/main.c **** static void MX_TSC_Init(void);
  87:Core/Src/main.c **** static void MX_USB_PCD_Init(void);
  88:Core/Src/main.c **** void StartRouterTask(void *argument);
  89:Core/Src/main.c **** void StartLEDTask(void *argument);
  90:Core/Src/main.c **** void initLEDs(void);
ARM GAS  /var/folders/kr/g9ry2bg56g773797gdtkvvkw0000gn/T//cc5EoDJi.s 			page 3


  91:Core/Src/main.c **** /* USER CODE BEGIN PFP */
  92:Core/Src/main.c **** 
  93:Core/Src/main.c **** /* USER CODE END PFP */
  94:Core/Src/main.c **** 
  95:Core/Src/main.c **** /* Private user code ---------------------------------------------------------*/
  96:Core/Src/main.c **** /* USER CODE BEGIN 0 */
  97:Core/Src/main.c **** 
  98:Core/Src/main.c **** /* USER CODE END 0 */
  99:Core/Src/main.c **** 
 100:Core/Src/main.c **** /**
 101:Core/Src/main.c ****   * @brief  The application entry point.
 102:Core/Src/main.c ****   * @retval int
 103:Core/Src/main.c ****   */
 104:Core/Src/main.c **** int main(void)
 105:Core/Src/main.c **** {
 106:Core/Src/main.c **** 
 107:Core/Src/main.c ****   /* USER CODE BEGIN 1 */
 108:Core/Src/main.c **** 
 109:Core/Src/main.c ****   /* USER CODE END 1 */
 110:Core/Src/main.c **** 
 111:Core/Src/main.c ****   /* MCU Configuration--------------------------------------------------------*/
 112:Core/Src/main.c **** 
 113:Core/Src/main.c ****   /* Reset of all peripherals, Initializes the Flash interface and the Systick. */
 114:Core/Src/main.c ****   HAL_Init();
 115:Core/Src/main.c **** 
 116:Core/Src/main.c ****   /* USER CODE BEGIN Init */
 117:Core/Src/main.c **** 
 118:Core/Src/main.c ****   /* USER CODE END Init */
 119:Core/Src/main.c **** 
 120:Core/Src/main.c ****   /* Configure the system clock */
 121:Core/Src/main.c ****   SystemClock_Config();
 122:Core/Src/main.c **** 
 123:Core/Src/main.c ****   /* USER CODE BEGIN SysInit */
 124:Core/Src/main.c **** 
 125:Core/Src/main.c ****   /* USER CODE END SysInit */
 126:Core/Src/main.c **** 
 127:Core/Src/main.c ****   /* Initialize all configured peripherals */
 128:Core/Src/main.c ****   MX_GPIO_Init();
 129:Core/Src/main.c ****   MX_I2C2_Init();
 130:Core/Src/main.c ****   MX_SPI2_Init();
 131:Core/Src/main.c ****   MX_TSC_Init();
 132:Core/Src/main.c ****   MX_USB_PCD_Init();
 133:Core/Src/main.c **** 
 134:Core/Src/main.c ****   initUsart3();
 135:Core/Src/main.c ****   initLEDs();
 136:Core/Src/main.c ****   /* USER CODE BEGIN 2 */
 137:Core/Src/main.c **** 
 138:Core/Src/main.c ****   /* USER CODE END 2 */
 139:Core/Src/main.c **** 
 140:Core/Src/main.c ****   /* Init scheduler */
 141:Core/Src/main.c ****   osKernelInitialize();
 142:Core/Src/main.c **** 
 143:Core/Src/main.c ****   /* USER CODE BEGIN RTOS_MUTEX */
 144:Core/Src/main.c ****   /* add mutexes, ... */
 145:Core/Src/main.c ****   /* USER CODE END RTOS_MUTEX */
 146:Core/Src/main.c **** 
 147:Core/Src/main.c ****   /* USER CODE BEGIN RTOS_SEMAPHORES */
ARM GAS  /var/folders/kr/g9ry2bg56g773797gdtkvvkw0000gn/T//cc5EoDJi.s 			page 4


 148:Core/Src/main.c ****   /* add semaphores, ... */
 149:Core/Src/main.c ****   /* USER CODE END RTOS_SEMAPHORES */
 150:Core/Src/main.c **** 
 151:Core/Src/main.c ****   /* USER CODE BEGIN RTOS_TIMERS */
 152:Core/Src/main.c ****   /* start timers, add new ones, ... */
 153:Core/Src/main.c ****   /* USER CODE END RTOS_TIMERS */
 154:Core/Src/main.c **** 
 155:Core/Src/main.c ****   /* USER CODE BEGIN RTOS_QUEUES */
 156:Core/Src/main.c ****   /* add queues, ... */
 157:Core/Src/main.c ****   /* USER CODE END RTOS_QUEUES */
 158:Core/Src/main.c **** 
 159:Core/Src/main.c ****   /* Create the thread(s) */
 160:Core/Src/main.c ****   // comment thread temprariely.
 161:Core/Src/main.c ****   /* creation of routerTask */
 162:Core/Src/main.c ****   routerTaskHandle = osThreadNew(StartRouterTask, NULL, &routerTask_attributes);
 163:Core/Src/main.c ****   /* creation of LEDTask */
 164:Core/Src/main.c ****   LEDTaskHandle = osThreadNew(StartLEDTask, NULL, &LEDTask_attributes);
 165:Core/Src/main.c ****   /* creation of UARTTask */
 166:Core/Src/main.c ****   UARTTaskHandle = osThreadNew(StartParseUartTask, NULL, &UARTTask_attributes);
 167:Core/Src/main.c **** 
 168:Core/Src/main.c ****   /* USER CODE BEGIN RTOS_THREADS */
 169:Core/Src/main.c ****   /* add threads, ... */
 170:Core/Src/main.c ****   /* USER CODE END RTOS_THREADS */
 171:Core/Src/main.c **** 
 172:Core/Src/main.c ****   /* USER CODE BEGIN RTOS_EVENTS */
 173:Core/Src/main.c ****   /* add events, ... */
 174:Core/Src/main.c ****   /* USER CODE END RTOS_EVENTS */
 175:Core/Src/main.c **** 
 176:Core/Src/main.c ****   /* Start scheduler */
 177:Core/Src/main.c ****   osKernelStart();
 178:Core/Src/main.c **** 
 179:Core/Src/main.c ****   /* We should never get here as control is now taken by the scheduler */
 180:Core/Src/main.c **** 
 181:Core/Src/main.c ****   /* Infinite loop */
 182:Core/Src/main.c ****   /* USER CODE BEGIN WHILE */
 183:Core/Src/main.c ****   while (1)
 184:Core/Src/main.c ****   {
 185:Core/Src/main.c ****     /* USER CODE END WHILE */
 186:Core/Src/main.c **** 
 187:Core/Src/main.c ****     /* USER CODE BEGIN 3 */
 188:Core/Src/main.c ****   }
 189:Core/Src/main.c ****   /* USER CODE END 3 */
 190:Core/Src/main.c **** }
 191:Core/Src/main.c **** 
 192:Core/Src/main.c **** /**
 193:Core/Src/main.c ****   * @brief System Clock Configuration
 194:Core/Src/main.c ****   * @retval None
 195:Core/Src/main.c ****   */
 196:Core/Src/main.c **** void SystemClock_Config(void)
 197:Core/Src/main.c **** {
 198:Core/Src/main.c ****   RCC_OscInitTypeDef RCC_OscInitStruct = {0};
 199:Core/Src/main.c ****   RCC_ClkInitTypeDef RCC_ClkInitStruct = {0};
 200:Core/Src/main.c ****   RCC_PeriphCLKInitTypeDef PeriphClkInit = {0};
 201:Core/Src/main.c **** 
 202:Core/Src/main.c ****   /** Initializes the RCC Oscillators according to the specified parameters
 203:Core/Src/main.c ****   * in the RCC_OscInitTypeDef structure.
 204:Core/Src/main.c ****   */
ARM GAS  /var/folders/kr/g9ry2bg56g773797gdtkvvkw0000gn/T//cc5EoDJi.s 			page 5


 205:Core/Src/main.c ****   RCC_OscInitStruct.OscillatorType = RCC_OSCILLATORTYPE_HSI|RCC_OSCILLATORTYPE_HSI48;
 206:Core/Src/main.c ****   RCC_OscInitStruct.HSIState = RCC_HSI_ON;
 207:Core/Src/main.c ****   RCC_OscInitStruct.HSI48State = RCC_HSI48_ON;
 208:Core/Src/main.c ****   RCC_OscInitStruct.HSICalibrationValue = RCC_HSICALIBRATION_DEFAULT;
 209:Core/Src/main.c ****   RCC_OscInitStruct.PLL.PLLState = RCC_PLL_ON;
 210:Core/Src/main.c ****   RCC_OscInitStruct.PLL.PLLSource = RCC_PLLSOURCE_HSI;
 211:Core/Src/main.c ****   RCC_OscInitStruct.PLL.PLLMUL = RCC_PLL_MUL6;
 212:Core/Src/main.c ****   RCC_OscInitStruct.PLL.PREDIV = RCC_PREDIV_DIV1;
 213:Core/Src/main.c ****   if (HAL_RCC_OscConfig(&RCC_OscInitStruct) != HAL_OK)
 214:Core/Src/main.c ****   {
 215:Core/Src/main.c ****     Error_Handler();
 216:Core/Src/main.c ****   }
 217:Core/Src/main.c **** 
 218:Core/Src/main.c ****   /** Initializes the CPU, AHB and APB buses clocks
 219:Core/Src/main.c ****   */
 220:Core/Src/main.c ****   RCC_ClkInitStruct.ClockType = RCC_CLOCKTYPE_HCLK|RCC_CLOCKTYPE_SYSCLK
 221:Core/Src/main.c ****                               |RCC_CLOCKTYPE_PCLK1;
 222:Core/Src/main.c ****   RCC_ClkInitStruct.SYSCLKSource = RCC_SYSCLKSOURCE_PLLCLK;
 223:Core/Src/main.c ****   RCC_ClkInitStruct.AHBCLKDivider = RCC_SYSCLK_DIV1;
 224:Core/Src/main.c ****   RCC_ClkInitStruct.APB1CLKDivider = RCC_HCLK_DIV1;
 225:Core/Src/main.c **** 
 226:Core/Src/main.c ****   if (HAL_RCC_ClockConfig(&RCC_ClkInitStruct, FLASH_LATENCY_1) != HAL_OK)
 227:Core/Src/main.c ****   {
 228:Core/Src/main.c ****     Error_Handler();
 229:Core/Src/main.c ****   }
 230:Core/Src/main.c ****   PeriphClkInit.PeriphClockSelection = RCC_PERIPHCLK_USB;
 231:Core/Src/main.c ****   PeriphClkInit.UsbClockSelection = RCC_USBCLKSOURCE_HSI48;
 232:Core/Src/main.c **** 
 233:Core/Src/main.c ****   if (HAL_RCCEx_PeriphCLKConfig(&PeriphClkInit) != HAL_OK)
 234:Core/Src/main.c ****   {
 235:Core/Src/main.c ****     Error_Handler();
 236:Core/Src/main.c ****   }
 237:Core/Src/main.c **** }
 238:Core/Src/main.c **** 
 239:Core/Src/main.c **** /**
 240:Core/Src/main.c ****   * @brief I2C2 Initialization Function
 241:Core/Src/main.c ****   * @param None
 242:Core/Src/main.c ****   * @retval None
 243:Core/Src/main.c ****   */
 244:Core/Src/main.c **** static void MX_I2C2_Init(void)
 245:Core/Src/main.c **** {
 246:Core/Src/main.c **** 
 247:Core/Src/main.c ****   /* USER CODE BEGIN I2C2_Init 0 */
 248:Core/Src/main.c **** 
 249:Core/Src/main.c ****   /* USER CODE END I2C2_Init 0 */
 250:Core/Src/main.c **** 
 251:Core/Src/main.c ****   /* USER CODE BEGIN I2C2_Init 1 */
 252:Core/Src/main.c **** 
 253:Core/Src/main.c ****   /* USER CODE END I2C2_Init 1 */
 254:Core/Src/main.c ****   hi2c2.Instance = I2C2;
 255:Core/Src/main.c ****   hi2c2.Init.Timing = 0x20303E5D;
 256:Core/Src/main.c ****   hi2c2.Init.OwnAddress1 = 0;
 257:Core/Src/main.c ****   hi2c2.Init.AddressingMode = I2C_ADDRESSINGMODE_7BIT;
 258:Core/Src/main.c ****   hi2c2.Init.DualAddressMode = I2C_DUALADDRESS_DISABLE;
 259:Core/Src/main.c ****   hi2c2.Init.OwnAddress2 = 0;
 260:Core/Src/main.c ****   hi2c2.Init.OwnAddress2Masks = I2C_OA2_NOMASK;
 261:Core/Src/main.c ****   hi2c2.Init.GeneralCallMode = I2C_GENERALCALL_DISABLE;
ARM GAS  /var/folders/kr/g9ry2bg56g773797gdtkvvkw0000gn/T//cc5EoDJi.s 			page 6


 262:Core/Src/main.c ****   hi2c2.Init.NoStretchMode = I2C_NOSTRETCH_DISABLE;
 263:Core/Src/main.c ****   if (HAL_I2C_Init(&hi2c2) != HAL_OK)
 264:Core/Src/main.c ****   {
 265:Core/Src/main.c ****     Error_Handler();
 266:Core/Src/main.c ****   }
 267:Core/Src/main.c **** 
 268:Core/Src/main.c ****   /** Configure Analogue filter
 269:Core/Src/main.c ****   */
 270:Core/Src/main.c ****   if (HAL_I2CEx_ConfigAnalogFilter(&hi2c2, I2C_ANALOGFILTER_ENABLE) != HAL_OK)
 271:Core/Src/main.c ****   {
 272:Core/Src/main.c ****     Error_Handler();
 273:Core/Src/main.c ****   }
 274:Core/Src/main.c **** 
 275:Core/Src/main.c ****   /** Configure Digital filter
 276:Core/Src/main.c ****   */
 277:Core/Src/main.c ****   if (HAL_I2CEx_ConfigDigitalFilter(&hi2c2, 0) != HAL_OK)
 278:Core/Src/main.c ****   {
 279:Core/Src/main.c ****     Error_Handler();
 280:Core/Src/main.c ****   }
 281:Core/Src/main.c ****   /* USER CODE BEGIN I2C2_Init 2 */
 282:Core/Src/main.c **** 
 283:Core/Src/main.c ****   /* USER CODE END I2C2_Init 2 */
 284:Core/Src/main.c **** 
 285:Core/Src/main.c **** }
 286:Core/Src/main.c **** 
 287:Core/Src/main.c **** /**
 288:Core/Src/main.c ****   * @brief SPI2 Initialization Function
 289:Core/Src/main.c ****   * @param None
 290:Core/Src/main.c ****   * @retval None
 291:Core/Src/main.c ****   */
 292:Core/Src/main.c **** static void MX_SPI2_Init(void)
 293:Core/Src/main.c **** {
 294:Core/Src/main.c **** 
 295:Core/Src/main.c ****   /* USER CODE BEGIN SPI2_Init 0 */
 296:Core/Src/main.c **** 
 297:Core/Src/main.c ****   /* USER CODE END SPI2_Init 0 */
 298:Core/Src/main.c **** 
 299:Core/Src/main.c ****   /* USER CODE BEGIN SPI2_Init 1 */
 300:Core/Src/main.c **** 
 301:Core/Src/main.c ****   /* USER CODE END SPI2_Init 1 */
 302:Core/Src/main.c ****   /* SPI2 parameter configuration*/
 303:Core/Src/main.c ****   hspi2.Instance = SPI2;
 304:Core/Src/main.c ****   hspi2.Init.Mode = SPI_MODE_MASTER;
 305:Core/Src/main.c ****   hspi2.Init.Direction = SPI_DIRECTION_2LINES;
 306:Core/Src/main.c ****   hspi2.Init.DataSize = SPI_DATASIZE_4BIT;
 307:Core/Src/main.c ****   hspi2.Init.CLKPolarity = SPI_POLARITY_LOW;
 308:Core/Src/main.c ****   hspi2.Init.CLKPhase = SPI_PHASE_1EDGE;
 309:Core/Src/main.c ****   hspi2.Init.NSS = SPI_NSS_SOFT;
 310:Core/Src/main.c ****   hspi2.Init.BaudRatePrescaler = SPI_BAUDRATEPRESCALER_4;
 311:Core/Src/main.c ****   hspi2.Init.FirstBit = SPI_FIRSTBIT_MSB;
 312:Core/Src/main.c ****   hspi2.Init.TIMode = SPI_TIMODE_DISABLE;
 313:Core/Src/main.c ****   hspi2.Init.CRCCalculation = SPI_CRCCALCULATION_DISABLE;
 314:Core/Src/main.c ****   hspi2.Init.CRCPolynomial = 7;
 315:Core/Src/main.c ****   hspi2.Init.CRCLength = SPI_CRC_LENGTH_DATASIZE;
 316:Core/Src/main.c ****   hspi2.Init.NSSPMode = SPI_NSS_PULSE_ENABLE;
 317:Core/Src/main.c ****   if (HAL_SPI_Init(&hspi2) != HAL_OK)
 318:Core/Src/main.c ****   {
ARM GAS  /var/folders/kr/g9ry2bg56g773797gdtkvvkw0000gn/T//cc5EoDJi.s 			page 7


 319:Core/Src/main.c ****     Error_Handler();
 320:Core/Src/main.c ****   }
 321:Core/Src/main.c ****   /* USER CODE BEGIN SPI2_Init 2 */
 322:Core/Src/main.c **** 
 323:Core/Src/main.c ****   /* USER CODE END SPI2_Init 2 */
 324:Core/Src/main.c **** 
 325:Core/Src/main.c **** }
 326:Core/Src/main.c **** 
 327:Core/Src/main.c **** /**
 328:Core/Src/main.c ****   * @brief TSC Initialization Function
 329:Core/Src/main.c ****   * @param None
 330:Core/Src/main.c ****   * @retval None
 331:Core/Src/main.c ****   */
 332:Core/Src/main.c **** static void MX_TSC_Init(void)
 333:Core/Src/main.c **** {
 334:Core/Src/main.c **** 
 335:Core/Src/main.c ****   /* USER CODE BEGIN TSC_Init 0 */
 336:Core/Src/main.c **** 
 337:Core/Src/main.c ****   /* USER CODE END TSC_Init 0 */
 338:Core/Src/main.c **** 
 339:Core/Src/main.c ****   /* USER CODE BEGIN TSC_Init 1 */
 340:Core/Src/main.c **** 
 341:Core/Src/main.c ****   /* USER CODE END TSC_Init 1 */
 342:Core/Src/main.c **** 
 343:Core/Src/main.c ****   /** Configure the TSC peripheral
 344:Core/Src/main.c ****   */
 345:Core/Src/main.c ****   htsc.Instance = TSC;
 346:Core/Src/main.c ****   htsc.Init.CTPulseHighLength = TSC_CTPH_2CYCLES;
 347:Core/Src/main.c ****   htsc.Init.CTPulseLowLength = TSC_CTPL_2CYCLES;
 348:Core/Src/main.c ****   htsc.Init.SpreadSpectrum = DISABLE;
 349:Core/Src/main.c ****   htsc.Init.SpreadSpectrumDeviation = 1;
 350:Core/Src/main.c ****   htsc.Init.SpreadSpectrumPrescaler = TSC_SS_PRESC_DIV1;
 351:Core/Src/main.c ****   htsc.Init.PulseGeneratorPrescaler = TSC_PG_PRESC_DIV4;
 352:Core/Src/main.c ****   htsc.Init.MaxCountValue = TSC_MCV_8191;
 353:Core/Src/main.c ****   htsc.Init.IODefaultMode = TSC_IODEF_OUT_PP_LOW;
 354:Core/Src/main.c ****   htsc.Init.SynchroPinPolarity = TSC_SYNC_POLARITY_FALLING;
 355:Core/Src/main.c ****   htsc.Init.AcquisitionMode = TSC_ACQ_MODE_NORMAL;
 356:Core/Src/main.c ****   htsc.Init.MaxCountInterrupt = DISABLE;
 357:Core/Src/main.c ****   htsc.Init.ChannelIOs = TSC_GROUP1_IO3|TSC_GROUP2_IO3|TSC_GROUP3_IO2;
 358:Core/Src/main.c ****   htsc.Init.ShieldIOs = 0;
 359:Core/Src/main.c ****   htsc.Init.SamplingIOs = TSC_GROUP1_IO4|TSC_GROUP2_IO4|TSC_GROUP3_IO3;
 360:Core/Src/main.c ****   if (HAL_TSC_Init(&htsc) != HAL_OK)
 361:Core/Src/main.c ****   {
 362:Core/Src/main.c ****     Error_Handler();
 363:Core/Src/main.c ****   }
 364:Core/Src/main.c ****   /* USER CODE BEGIN TSC_Init 2 */
 365:Core/Src/main.c **** 
 366:Core/Src/main.c ****   /* USER CODE END TSC_Init 2 */
 367:Core/Src/main.c **** 
 368:Core/Src/main.c **** }
 369:Core/Src/main.c **** 
 370:Core/Src/main.c **** /**
 371:Core/Src/main.c ****   * @brief USB Initialization Function
 372:Core/Src/main.c ****   * @param None
 373:Core/Src/main.c ****   * @retval None
 374:Core/Src/main.c ****   */
 375:Core/Src/main.c **** static void MX_USB_PCD_Init(void)
ARM GAS  /var/folders/kr/g9ry2bg56g773797gdtkvvkw0000gn/T//cc5EoDJi.s 			page 8


 376:Core/Src/main.c **** {
 377:Core/Src/main.c **** 
 378:Core/Src/main.c ****   /* USER CODE BEGIN USB_Init 0 */
 379:Core/Src/main.c **** 
 380:Core/Src/main.c ****   /* USER CODE END USB_Init 0 */
 381:Core/Src/main.c **** 
 382:Core/Src/main.c ****   /* USER CODE BEGIN USB_Init 1 */
 383:Core/Src/main.c **** 
 384:Core/Src/main.c ****   /* USER CODE END USB_Init 1 */
 385:Core/Src/main.c ****   hpcd_USB_FS.Instance = USB;
 386:Core/Src/main.c ****   hpcd_USB_FS.Init.dev_endpoints = 8;
 387:Core/Src/main.c ****   hpcd_USB_FS.Init.speed = PCD_SPEED_FULL;
 388:Core/Src/main.c ****   hpcd_USB_FS.Init.phy_itface = PCD_PHY_EMBEDDED;
 389:Core/Src/main.c ****   hpcd_USB_FS.Init.low_power_enable = DISABLE;
 390:Core/Src/main.c ****   hpcd_USB_FS.Init.lpm_enable = DISABLE;
 391:Core/Src/main.c ****   hpcd_USB_FS.Init.battery_charging_enable = DISABLE;
 392:Core/Src/main.c ****   if (HAL_PCD_Init(&hpcd_USB_FS) != HAL_OK)
 393:Core/Src/main.c ****   {
 394:Core/Src/main.c ****     Error_Handler();
 395:Core/Src/main.c ****   }
 396:Core/Src/main.c ****   /* USER CODE BEGIN USB_Init 2 */
 397:Core/Src/main.c **** 
 398:Core/Src/main.c ****   /* USER CODE END USB_Init 2 */
 399:Core/Src/main.c **** 
 400:Core/Src/main.c **** }
 401:Core/Src/main.c **** 
 402:Core/Src/main.c **** /**
 403:Core/Src/main.c ****   * @brief GPIO Initialization Function
 404:Core/Src/main.c ****   * @param None
 405:Core/Src/main.c ****   * @retval None
 406:Core/Src/main.c ****   */
 407:Core/Src/main.c **** static void MX_GPIO_Init(void)
 408:Core/Src/main.c **** {
  26              		.loc 1 408 1 view -0
  27              		.cfi_startproc
  28              		@ args = 0, pretend = 0, frame = 32
  29              		@ frame_needed = 0, uses_anonymous_args = 0
  30 0000 F0B5     		push	{r4, r5, r6, r7, lr}
  31              	.LCFI0:
  32              		.cfi_def_cfa_offset 20
  33              		.cfi_offset 4, -20
  34              		.cfi_offset 5, -16
  35              		.cfi_offset 6, -12
  36              		.cfi_offset 7, -8
  37              		.cfi_offset 14, -4
  38 0002 89B0     		sub	sp, sp, #36
  39              	.LCFI1:
  40              		.cfi_def_cfa_offset 56
 409:Core/Src/main.c ****   GPIO_InitTypeDef GPIO_InitStruct = {0};
  41              		.loc 1 409 3 view .LVU1
  42              		.loc 1 409 20 is_stmt 0 view .LVU2
  43 0004 1422     		movs	r2, #20
  44 0006 0021     		movs	r1, #0
  45 0008 03A8     		add	r0, sp, #12
  46 000a FFF7FEFF 		bl	memset
  47              	.LVL0:
 410:Core/Src/main.c **** /* USER CODE BEGIN MX_GPIO_Init_1 */
ARM GAS  /var/folders/kr/g9ry2bg56g773797gdtkvvkw0000gn/T//cc5EoDJi.s 			page 9


 411:Core/Src/main.c **** /* USER CODE END MX_GPIO_Init_1 */
 412:Core/Src/main.c **** 
 413:Core/Src/main.c ****   /* GPIO Ports Clock Enable */
 414:Core/Src/main.c ****   __HAL_RCC_GPIOC_CLK_ENABLE();
  48              		.loc 1 414 3 is_stmt 1 view .LVU3
  49              	.LBB4:
  50              		.loc 1 414 3 view .LVU4
  51              		.loc 1 414 3 view .LVU5
  52 000e 204B     		ldr	r3, .L2
  53 0010 5A69     		ldr	r2, [r3, #20]
  54 0012 8021     		movs	r1, #128
  55 0014 0903     		lsls	r1, r1, #12
  56 0016 0A43     		orrs	r2, r1
  57 0018 5A61     		str	r2, [r3, #20]
  58              		.loc 1 414 3 view .LVU6
  59 001a 5A69     		ldr	r2, [r3, #20]
  60 001c 0A40     		ands	r2, r1
  61 001e 0092     		str	r2, [sp]
  62              		.loc 1 414 3 view .LVU7
  63 0020 009A     		ldr	r2, [sp]
  64              	.LBE4:
  65              		.loc 1 414 3 view .LVU8
 415:Core/Src/main.c ****   __HAL_RCC_GPIOA_CLK_ENABLE();
  66              		.loc 1 415 3 view .LVU9
  67              	.LBB5:
  68              		.loc 1 415 3 view .LVU10
  69              		.loc 1 415 3 view .LVU11
  70 0022 5A69     		ldr	r2, [r3, #20]
  71 0024 8021     		movs	r1, #128
  72 0026 8902     		lsls	r1, r1, #10
  73 0028 0A43     		orrs	r2, r1
  74 002a 5A61     		str	r2, [r3, #20]
  75              		.loc 1 415 3 view .LVU12
  76 002c 5A69     		ldr	r2, [r3, #20]
  77 002e 0A40     		ands	r2, r1
  78 0030 0192     		str	r2, [sp, #4]
  79              		.loc 1 415 3 view .LVU13
  80 0032 019A     		ldr	r2, [sp, #4]
  81              	.LBE5:
  82              		.loc 1 415 3 view .LVU14
 416:Core/Src/main.c ****   __HAL_RCC_GPIOB_CLK_ENABLE();
  83              		.loc 1 416 3 view .LVU15
  84              	.LBB6:
  85              		.loc 1 416 3 view .LVU16
  86              		.loc 1 416 3 view .LVU17
  87 0034 5A69     		ldr	r2, [r3, #20]
  88 0036 8021     		movs	r1, #128
  89 0038 C902     		lsls	r1, r1, #11
  90 003a 0A43     		orrs	r2, r1
  91 003c 5A61     		str	r2, [r3, #20]
  92              		.loc 1 416 3 view .LVU18
  93 003e 5B69     		ldr	r3, [r3, #20]
  94 0040 0B40     		ands	r3, r1
  95 0042 0293     		str	r3, [sp, #8]
  96              		.loc 1 416 3 view .LVU19
  97 0044 029B     		ldr	r3, [sp, #8]
  98              	.LBE6:
ARM GAS  /var/folders/kr/g9ry2bg56g773797gdtkvvkw0000gn/T//cc5EoDJi.s 			page 10


  99              		.loc 1 416 3 view .LVU20
 417:Core/Src/main.c **** 
 418:Core/Src/main.c ****   /*Configure GPIO pin Output Level */
 419:Core/Src/main.c ****   HAL_GPIO_WritePin(GPIOC, NCS_MEMS_SPI_Pin|EXT_RESET_Pin|LD3_Pin|LD6_Pin
 100              		.loc 1 419 3 view .LVU21
 101 0046 134C     		ldr	r4, .L2+4
 102 0048 134D     		ldr	r5, .L2+8
 103 004a 0022     		movs	r2, #0
 104 004c 2100     		movs	r1, r4
 105 004e 2800     		movs	r0, r5
 106 0050 FFF7FEFF 		bl	HAL_GPIO_WritePin
 107              	.LVL1:
 420:Core/Src/main.c ****                           |LD4_Pin|LD5_Pin, GPIO_PIN_RESET);
 421:Core/Src/main.c **** 
 422:Core/Src/main.c ****   /*Configure GPIO pins : NCS_MEMS_SPI_Pin EXT_RESET_Pin LD3_Pin LD6_Pin
 423:Core/Src/main.c ****                            LD4_Pin LD5_Pin */
 424:Core/Src/main.c ****   GPIO_InitStruct.Pin = NCS_MEMS_SPI_Pin|EXT_RESET_Pin|LD3_Pin|LD6_Pin
 108              		.loc 1 424 3 view .LVU22
 109              		.loc 1 424 23 is_stmt 0 view .LVU23
 110 0054 0394     		str	r4, [sp, #12]
 425:Core/Src/main.c ****                           |LD4_Pin|LD5_Pin;
 426:Core/Src/main.c ****   GPIO_InitStruct.Mode = GPIO_MODE_OUTPUT_PP;
 111              		.loc 1 426 3 is_stmt 1 view .LVU24
 112              		.loc 1 426 24 is_stmt 0 view .LVU25
 113 0056 0127     		movs	r7, #1
 114 0058 0497     		str	r7, [sp, #16]
 427:Core/Src/main.c ****   GPIO_InitStruct.Pull = GPIO_NOPULL;
 115              		.loc 1 427 3 is_stmt 1 view .LVU26
 116              		.loc 1 427 24 is_stmt 0 view .LVU27
 117 005a 0024     		movs	r4, #0
 118 005c 0594     		str	r4, [sp, #20]
 428:Core/Src/main.c ****   GPIO_InitStruct.Speed = GPIO_SPEED_FREQ_LOW;
 119              		.loc 1 428 3 is_stmt 1 view .LVU28
 120              		.loc 1 428 25 is_stmt 0 view .LVU29
 121 005e 0694     		str	r4, [sp, #24]
 429:Core/Src/main.c ****   HAL_GPIO_Init(GPIOC, &GPIO_InitStruct);
 122              		.loc 1 429 3 is_stmt 1 view .LVU30
 123 0060 03A9     		add	r1, sp, #12
 124 0062 2800     		movs	r0, r5
 125 0064 FFF7FEFF 		bl	HAL_GPIO_Init
 126              	.LVL2:
 430:Core/Src/main.c **** 
 431:Core/Src/main.c ****   /*Configure GPIO pins : MEMS_INT1_Pin MEMS_INT2_Pin */
 432:Core/Src/main.c ****   GPIO_InitStruct.Pin = MEMS_INT1_Pin|MEMS_INT2_Pin;
 127              		.loc 1 432 3 view .LVU31
 128              		.loc 1 432 23 is_stmt 0 view .LVU32
 129 0068 0623     		movs	r3, #6
 130 006a 0393     		str	r3, [sp, #12]
 433:Core/Src/main.c ****   GPIO_InitStruct.Mode = GPIO_MODE_EVT_RISING;
 131              		.loc 1 433 3 is_stmt 1 view .LVU33
 132              		.loc 1 433 24 is_stmt 0 view .LVU34
 133 006c 9026     		movs	r6, #144
 134 006e 7603     		lsls	r6, r6, #13
 135 0070 0496     		str	r6, [sp, #16]
 434:Core/Src/main.c ****   GPIO_InitStruct.Pull = GPIO_NOPULL;
 136              		.loc 1 434 3 is_stmt 1 view .LVU35
 137              		.loc 1 434 24 is_stmt 0 view .LVU36
ARM GAS  /var/folders/kr/g9ry2bg56g773797gdtkvvkw0000gn/T//cc5EoDJi.s 			page 11


 138 0072 0594     		str	r4, [sp, #20]
 435:Core/Src/main.c ****   HAL_GPIO_Init(GPIOC, &GPIO_InitStruct);
 139              		.loc 1 435 3 is_stmt 1 view .LVU37
 140 0074 03A9     		add	r1, sp, #12
 141 0076 2800     		movs	r0, r5
 142 0078 FFF7FEFF 		bl	HAL_GPIO_Init
 143              	.LVL3:
 436:Core/Src/main.c **** 
 437:Core/Src/main.c ****   /*Configure GPIO pin : B1_Pin */
 438:Core/Src/main.c ****   GPIO_InitStruct.Pin = B1_Pin;
 144              		.loc 1 438 3 view .LVU38
 145              		.loc 1 438 23 is_stmt 0 view .LVU39
 146 007c 0397     		str	r7, [sp, #12]
 439:Core/Src/main.c ****   GPIO_InitStruct.Mode = GPIO_MODE_EVT_RISING;
 147              		.loc 1 439 3 is_stmt 1 view .LVU40
 148              		.loc 1 439 24 is_stmt 0 view .LVU41
 149 007e 0496     		str	r6, [sp, #16]
 440:Core/Src/main.c ****   GPIO_InitStruct.Pull = GPIO_NOPULL;
 150              		.loc 1 440 3 is_stmt 1 view .LVU42
 151              		.loc 1 440 24 is_stmt 0 view .LVU43
 152 0080 0594     		str	r4, [sp, #20]
 441:Core/Src/main.c ****   HAL_GPIO_Init(B1_GPIO_Port, &GPIO_InitStruct);
 153              		.loc 1 441 3 is_stmt 1 view .LVU44
 154 0082 9020     		movs	r0, #144
 155 0084 03A9     		add	r1, sp, #12
 156 0086 C005     		lsls	r0, r0, #23
 157 0088 FFF7FEFF 		bl	HAL_GPIO_Init
 158              	.LVL4:
 442:Core/Src/main.c **** 
 443:Core/Src/main.c **** /* USER CODE BEGIN MX_GPIO_Init_2 */
 444:Core/Src/main.c **** /* USER CODE END MX_GPIO_Init_2 */
 445:Core/Src/main.c **** }
 159              		.loc 1 445 1 is_stmt 0 view .LVU45
 160 008c 09B0     		add	sp, sp, #36
 161              		@ sp needed
 162 008e F0BD     		pop	{r4, r5, r6, r7, pc}
 163              	.L3:
 164              		.align	2
 165              	.L2:
 166 0090 00100240 		.word	1073876992
 167 0094 E1030000 		.word	993
 168 0098 00080048 		.word	1207961600
 169              		.cfi_endproc
 170              	.LFE49:
 172              		.section	.text.StartRouterTask,"ax",%progbits
 173              		.align	1
 174              		.global	StartRouterTask
 175              		.syntax unified
 176              		.code	16
 177              		.thumb_func
 179              	StartRouterTask:
 180              	.LFB50:
 446:Core/Src/main.c **** 
 447:Core/Src/main.c **** /* USER CODE BEGIN 4 */
 448:Core/Src/main.c **** 
 449:Core/Src/main.c **** /* USER CODE END 4 */
 450:Core/Src/main.c **** 
ARM GAS  /var/folders/kr/g9ry2bg56g773797gdtkvvkw0000gn/T//cc5EoDJi.s 			page 12


 451:Core/Src/main.c **** //New branch
 452:Core/Src/main.c **** 
 453:Core/Src/main.c **** /* USER CODE BEGIN Header_StartRouterTask */
 454:Core/Src/main.c **** /**
 455:Core/Src/main.c ****   * @brief  Function implementing the routerTask thread.
 456:Core/Src/main.c ****   * @param  argument: Not used
 457:Core/Src/main.c ****   * @retval None
 458:Core/Src/main.c ****   */
 459:Core/Src/main.c **** /* USER CODE END Header_StartRouterTask */
 460:Core/Src/main.c **** void StartRouterTask(void *argument)
 461:Core/Src/main.c **** { 
 181              		.loc 1 461 1 is_stmt 1 view -0
 182              		.cfi_startproc
 183              		@ args = 0, pretend = 0, frame = 0
 184              		@ frame_needed = 0, uses_anonymous_args = 0
 185              	.LVL5:
 186              		.loc 1 461 1 is_stmt 0 view .LVU47
 187 0000 10B5     		push	{r4, lr}
 188              	.LCFI2:
 189              		.cfi_def_cfa_offset 8
 190              		.cfi_offset 4, -8
 191              		.cfi_offset 14, -4
 192 0002 01E0     		b	.L6
 193              	.LVL6:
 194              	.L7:
 462:Core/Src/main.c ****   //Global command queue
 463:Core/Src/main.c ****   extern Cmd_Queue * cmdQueue;
 464:Core/Src/main.c ****   //Global variables to pass command to worker threads
 465:Core/Src/main.c ****   extern volatile uint16_t commandLED;
 466:Core/Src/main.c ****   extern volatile uint16_t commandMotor;
 467:Core/Src/main.c ****   //Command popped from queue
 468:Core/Src/main.c ****   uint16_t commandIn = 0;
 469:Core/Src/main.c ****   /* Infinite loop */
 470:Core/Src/main.c ****   //uint16_t item = queuePop(cmdQueue);
 471:Core/Src/main.c ****   
 472:Core/Src/main.c ****   for(;;)
 473:Core/Src/main.c ****   {
 474:Core/Src/main.c ****     //If queue is not empty
 475:Core/Src/main.c ****     if (!isQueueEmpty(cmdQueue)) {
 476:Core/Src/main.c ****       //Placeholder for task priorities
 477:Core/Src/main.c ****       osDelay(1);
 478:Core/Src/main.c ****       //Retrieve command from queue
 479:Core/Src/main.c ****       commandIn = queuePop(cmdQueue);
 480:Core/Src/main.c ****       //Determine which worker task corresponds to command
 481:Core/Src/main.c ****         switch (commandIn & 0xF000) {
 482:Core/Src/main.c ****         //LED command
 483:Core/Src/main.c ****         case 0xA000:
 484:Core/Src/main.c ****           commandLED = commandIn;
 195              		.loc 1 484 11 is_stmt 1 view .LVU48
 196              		.loc 1 484 22 is_stmt 0 view .LVU49
 197 0004 0E4B     		ldr	r3, .L11
 198 0006 1880     		strh	r0, [r3]
 485:Core/Src/main.c ****           break;
 199              		.loc 1 485 11 is_stmt 1 view .LVU50
 200              	.LVL7:
 201              	.L6:
 472:Core/Src/main.c ****   {
ARM GAS  /var/folders/kr/g9ry2bg56g773797gdtkvvkw0000gn/T//cc5EoDJi.s 			page 13


 202              		.loc 1 472 3 view .LVU51
 475:Core/Src/main.c ****       //Placeholder for task priorities
 203              		.loc 1 475 5 view .LVU52
 475:Core/Src/main.c ****       //Placeholder for task priorities
 204              		.loc 1 475 10 is_stmt 0 view .LVU53
 205 0008 0E4B     		ldr	r3, .L11+4
 206 000a 1868     		ldr	r0, [r3]
 207 000c FFF7FEFF 		bl	isQueueEmpty
 208              	.LVL8:
 475:Core/Src/main.c ****       //Placeholder for task priorities
 209              		.loc 1 475 8 discriminator 1 view .LVU54
 210 0010 0028     		cmp	r0, #0
 211 0012 F9D1     		bne	.L6
 477:Core/Src/main.c ****       //Retrieve command from queue
 212              		.loc 1 477 7 is_stmt 1 view .LVU55
 213 0014 0130     		adds	r0, r0, #1
 214 0016 FFF7FEFF 		bl	osDelay
 215              	.LVL9:
 479:Core/Src/main.c ****       //Determine which worker task corresponds to command
 216              		.loc 1 479 7 view .LVU56
 479:Core/Src/main.c ****       //Determine which worker task corresponds to command
 217              		.loc 1 479 19 is_stmt 0 view .LVU57
 218 001a 0A4B     		ldr	r3, .L11+4
 219 001c 1868     		ldr	r0, [r3]
 220 001e FFF7FEFF 		bl	queuePop
 221              	.LVL10:
 481:Core/Src/main.c ****         //LED command
 222              		.loc 1 481 9 is_stmt 1 view .LVU58
 223 0022 030B     		lsrs	r3, r0, #12
 224 0024 1B03     		lsls	r3, r3, #12
 225 0026 9BB2     		uxth	r3, r3
 226 0028 A022     		movs	r2, #160
 227 002a 1202     		lsls	r2, r2, #8
 228 002c 9342     		cmp	r3, r2
 229 002e E9D0     		beq	.L7
 230 0030 B022     		movs	r2, #176
 231 0032 1202     		lsls	r2, r2, #8
 232 0034 9342     		cmp	r3, r2
 233 0036 E7D1     		bne	.L6
 486:Core/Src/main.c ****         //Motor command
 487:Core/Src/main.c ****         case 0xB000:
 488:Core/Src/main.c ****           commandMotor = commandIn;
 234              		.loc 1 488 11 view .LVU59
 235              		.loc 1 488 24 is_stmt 0 view .LVU60
 236 0038 034B     		ldr	r3, .L11+8
 237 003a 1880     		strh	r0, [r3]
 489:Core/Src/main.c ****           break;
 238              		.loc 1 489 11 is_stmt 1 view .LVU61
 239 003c E4E7     		b	.L6
 240              	.L12:
 241 003e C046     		.align	2
 242              	.L11:
 243 0040 00000000 		.word	commandLED
 244 0044 00000000 		.word	cmdQueue
 245 0048 00000000 		.word	commandMotor
 246              		.cfi_endproc
 247              	.LFE50:
ARM GAS  /var/folders/kr/g9ry2bg56g773797gdtkvvkw0000gn/T//cc5EoDJi.s 			page 14


 249              		.section	.text.StartLEDTask,"ax",%progbits
 250              		.align	1
 251              		.global	StartLEDTask
 252              		.syntax unified
 253              		.code	16
 254              		.thumb_func
 256              	StartLEDTask:
 257              	.LVL11:
 258              	.LFB52:
 490:Core/Src/main.c ****         default:
 491:Core/Src/main.c ****         break;
 492:Core/Src/main.c ****       }
 493:Core/Src/main.c ****     }
 494:Core/Src/main.c ****   }
 495:Core/Src/main.c **** }
 496:Core/Src/main.c ****   /* USER CODE END 5 */
 497:Core/Src/main.c **** 
 498:Core/Src/main.c **** void initLEDs(void) {
 499:Core/Src/main.c **** 	// red LED PC6, blue LED (PC7), green LED PC9, orange LED PC8
 500:Core/Src/main.c ****   RCC->AHBENR |= RCC_AHBENR_GPIOCEN; // Enable peripheral clock to PC
 501:Core/Src/main.c ****   // set the MODER, 01: General purpose output mode
 502:Core/Src/main.c **** 	// init PC6 MODER
 503:Core/Src/main.c **** 	GPIOC->MODER |= (1 << 12);
 504:Core/Src/main.c **** 	GPIOC->MODER &= ~(1 << 13);
 505:Core/Src/main.c ****     // init PC7 MODER
 506:Core/Src/main.c **** 	GPIOC->MODER |= (1 << 14);
 507:Core/Src/main.c **** 	GPIOC->MODER &= ~(1 << 15);
 508:Core/Src/main.c **** 	// init PC8 MODER
 509:Core/Src/main.c **** 	GPIOC->MODER |= (1 << 16);
 510:Core/Src/main.c **** 	GPIOC->MODER &= ~(1 << 17);
 511:Core/Src/main.c **** 	// init PC9 MODER
 512:Core/Src/main.c **** 	GPIOC->MODER |= (1 << 18);
 513:Core/Src/main.c **** 	GPIOC->MODER &= ~(1 << 19);
 514:Core/Src/main.c ****   // Set the pins to low speed in the OSPEEDR register
 515:Core/Src/main.c **** 	GPIOC->OSPEEDR &= ~((1 << 12) | (1 << 13));
 516:Core/Src/main.c **** 	GPIOC->OSPEEDR &= ~((1 << 14) | (1 << 15));
 517:Core/Src/main.c **** 	GPIOC->OSPEEDR &= ~((1 << 16) | (1 << 17));
 518:Core/Src/main.c **** 	GPIOC->OSPEEDR &= ~((1 << 18) | (1 << 19));
 519:Core/Src/main.c **** 
 520:Core/Src/main.c **** 	// Set LED to no pull-up/down resistors in the PUPDR register
 521:Core/Src/main.c **** 	// 00: No pull-up, pull-down
 522:Core/Src/main.c **** 	GPIOC->PUPDR &= ~((1 << 16) | (1 << 17) | (1 << 18) | (1 << 19));
 523:Core/Src/main.c **** 	GPIOC->PUPDR &= ~((1 << 12) | (1 << 13) | (1 << 14) | (1 << 15));
 524:Core/Src/main.c **** 	// set PC6-9 to 0
 525:Core/Src/main.c **** 	GPIOC->ODR &= ~(1 << 6);
 526:Core/Src/main.c **** 	GPIOC->ODR &= ~(1 << 7);
 527:Core/Src/main.c **** 	GPIOC->ODR &= ~(1 << 8);
 528:Core/Src/main.c **** 	GPIOC->ODR &= ~(1 << 9);
 529:Core/Src/main.c **** }
 530:Core/Src/main.c **** 
 531:Core/Src/main.c **** /* USER CODE BEGIN Header_StartLEDTask */
 532:Core/Src/main.c **** /**
 533:Core/Src/main.c ****   * @brief  Function implementing the LEDTask thread.
 534:Core/Src/main.c ****   * @param  argument: Not used
 535:Core/Src/main.c ****   * @retval None
 536:Core/Src/main.c ****   */
 537:Core/Src/main.c **** /* USER CODE END Header_StartLEDTask */
ARM GAS  /var/folders/kr/g9ry2bg56g773797gdtkvvkw0000gn/T//cc5EoDJi.s 			page 15


 538:Core/Src/main.c **** void StartLEDTask(void *argument)
 539:Core/Src/main.c **** {
 259              		.loc 1 539 1 view -0
 260              		.cfi_startproc
 261              		@ args = 0, pretend = 0, frame = 56
 262              		@ frame_needed = 0, uses_anonymous_args = 0
 263              		.loc 1 539 1 is_stmt 0 view .LVU63
 264 0000 70B5     		push	{r4, r5, r6, lr}
 265              	.LCFI3:
 266              		.cfi_def_cfa_offset 16
 267              		.cfi_offset 4, -16
 268              		.cfi_offset 5, -12
 269              		.cfi_offset 6, -8
 270              		.cfi_offset 14, -4
 271 0002 8EB0     		sub	sp, sp, #56
 272              	.LCFI4:
 273              		.cfi_def_cfa_offset 72
 540:Core/Src/main.c ****   binarySem03LEDWorkerHandle = osSemaphoreNew(1, 1, NULL);
 274              		.loc 1 540 3 is_stmt 1 view .LVU64
 275              		.loc 1 540 32 is_stmt 0 view .LVU65
 276 0004 0022     		movs	r2, #0
 277 0006 0121     		movs	r1, #1
 278 0008 0120     		movs	r0, #1
 279              	.LVL12:
 280              		.loc 1 540 32 view .LVU66
 281 000a FFF7FEFF 		bl	osSemaphoreNew
 282              	.LVL13:
 283              		.loc 1 540 30 discriminator 1 view .LVU67
 284 000e 784B     		ldr	r3, .L35
 285 0010 1860     		str	r0, [r3]
 541:Core/Src/main.c **** 
 542:Core/Src/main.c ****   extern volatile uint16_t commandLED;
 286              		.loc 1 542 3 is_stmt 1 view .LVU68
 543:Core/Src/main.c ****   volatile uint8_t LEDColor = 0, LEDAction = 0, LEDSpeed = 0;
 287              		.loc 1 543 3 view .LVU69
 288              		.loc 1 543 20 is_stmt 0 view .LVU70
 289 0012 0024     		movs	r4, #0
 290 0014 3723     		movs	r3, #55
 291 0016 6B44     		add	r3, r3, sp
 292 0018 1C70     		strb	r4, [r3]
 293              		.loc 1 543 34 view .LVU71
 294 001a 3623     		movs	r3, #54
 295 001c 6B44     		add	r3, r3, sp
 296 001e 1C70     		strb	r4, [r3]
 297              		.loc 1 543 49 view .LVU72
 298 0020 3523     		movs	r3, #53
 299 0022 6B44     		add	r3, r3, sp
 300 0024 1C70     		strb	r4, [r3]
 544:Core/Src/main.c ****   volatile uint32_t colorMask[5] = {GPIO_ODR_6, GPIO_ODR_9, GPIO_ODR_7, GPIO_ODR_8, GPIO_ODR_6 | GP
 301              		.loc 1 544 3 is_stmt 1 view .LVU73
 302              		.loc 1 544 21 is_stmt 0 view .LVU74
 303 0026 08A9     		add	r1, sp, #32
 304 0028 724B     		ldr	r3, .L35+4
 305 002a 0A00     		movs	r2, r1
 306 002c 61CB     		ldmia	r3!, {r0, r5, r6}
 307 002e 61C2     		stmia	r2!, {r0, r5, r6}
 308 0030 03CB     		ldmia	r3!, {r0, r1}
ARM GAS  /var/folders/kr/g9ry2bg56g773797gdtkvvkw0000gn/T//cc5EoDJi.s 			page 16


 309 0032 03C2     		stmia	r2!, {r0, r1}
 545:Core/Src/main.c ****   volatile uint8_t blink[4] = {0,0,0,0};
 310              		.loc 1 545 3 is_stmt 1 view .LVU75
 311              		.loc 1 545 20 is_stmt 0 view .LVU76
 312 0034 0794     		str	r4, [sp, #28]
 546:Core/Src/main.c ****   volatile uint8_t blinkTime[4] = {0,0,0,0};
 313              		.loc 1 546 3 is_stmt 1 view .LVU77
 314              		.loc 1 546 20 is_stmt 0 view .LVU78
 315 0036 0694     		str	r4, [sp, #24]
 547:Core/Src/main.c ****   volatile uint32_t startTime[4] = {0,0,0,0};
 316              		.loc 1 547 3 is_stmt 1 view .LVU79
 317              		.loc 1 547 21 is_stmt 0 view .LVU80
 318 0038 1022     		movs	r2, #16
 319 003a 0021     		movs	r1, #0
 320 003c 02A8     		add	r0, sp, #8
 321 003e FFF7FEFF 		bl	memset
 322              	.LVL14:
 548:Core/Src/main.c ****   volatile uint32_t currentTime = 0;
 323              		.loc 1 548 3 is_stmt 1 view .LVU81
 324              		.loc 1 548 21 is_stmt 0 view .LVU82
 325 0042 0194     		str	r4, [sp, #4]
 326 0044 9BE0     		b	.L29
 327              	.L15:
 328              	.LBB7:
 549:Core/Src/main.c **** 
 550:Core/Src/main.c ****   /* Infinite loop */
 551:Core/Src/main.c ****   for(;;)
 552:Core/Src/main.c ****   {
 553:Core/Src/main.c ****     osSemaphoreAcquire(binarySem03LEDWorkerHandle, osWaitForever);
 554:Core/Src/main.c **** 
 555:Core/Src/main.c ****     LEDColor = (commandLED & 0x0F00) >> 8;
 556:Core/Src/main.c ****     LEDAction = (commandLED & 0x00F0) >> 4;
 557:Core/Src/main.c **** 
 558:Core/Src/main.c ****     //LED action
 559:Core/Src/main.c ****     switch (LEDAction) {
 329              		.loc 1 559 5 view .LVU83
 330 0046 042A     		cmp	r2, #4
 331 0048 15D1     		bne	.L18
 560:Core/Src/main.c ****       //On
 561:Core/Src/main.c ****       case 1:
 562:Core/Src/main.c ****         GPIOC->ODR |= colorMask[LEDColor-1];
 563:Core/Src/main.c ****         if (LEDColor == 5) {
 564:Core/Src/main.c ****           blink[0] = 0;
 565:Core/Src/main.c ****           blink[1] = 0;
 566:Core/Src/main.c ****           blink[2] = 0;
 567:Core/Src/main.c ****           blink[3] = 0;
 568:Core/Src/main.c ****         }
 569:Core/Src/main.c ****         else
 570:Core/Src/main.c ****           blink[LEDColor-1] = 0;
 571:Core/Src/main.c ****         break;
 572:Core/Src/main.c ****       //Off
 573:Core/Src/main.c ****       case 2:
 574:Core/Src/main.c ****         GPIOC->ODR &= ~colorMask[LEDColor-1];
 575:Core/Src/main.c ****         if (LEDColor == 5) {
 576:Core/Src/main.c ****           blink[0] = 0;
 577:Core/Src/main.c ****           blink[1] = 0;
 578:Core/Src/main.c ****           blink[2] = 0;
ARM GAS  /var/folders/kr/g9ry2bg56g773797gdtkvvkw0000gn/T//cc5EoDJi.s 			page 17


 579:Core/Src/main.c ****           blink[3] = 0;
 580:Core/Src/main.c ****         }
 581:Core/Src/main.c ****         else
 582:Core/Src/main.c ****           blink[LEDColor-1] = 0;
 583:Core/Src/main.c ****         break;
 584:Core/Src/main.c ****       //Toggle
 585:Core/Src/main.c ****       case 3:
 586:Core/Src/main.c ****         GPIOC->ODR ^= colorMask[LEDColor-1];
 587:Core/Src/main.c ****         if (LEDColor == 5) {
 588:Core/Src/main.c ****           blink[0] = 0;
 589:Core/Src/main.c ****           blink[1] = 0;
 590:Core/Src/main.c ****           blink[2] = 0;
 591:Core/Src/main.c ****           blink[3] = 0;
 592:Core/Src/main.c ****         }
 593:Core/Src/main.c ****         else
 594:Core/Src/main.c ****           blink[LEDColor-1] = 0;
 595:Core/Src/main.c ****         break;
 596:Core/Src/main.c ****       //Blink
 597:Core/Src/main.c ****       case 4:
 598:Core/Src/main.c ****         if (LEDColor == 5) {
 332              		.loc 1 598 9 is_stmt 1 view .LVU84
 333              		.loc 1 598 22 is_stmt 0 view .LVU85
 334 004a 3723     		movs	r3, #55
 335 004c 6B44     		add	r3, r3, sp
 336 004e 1B78     		ldrb	r3, [r3]
 337              		.loc 1 598 12 view .LVU86
 338 0050 052B     		cmp	r3, #5
 339 0052 56D0     		beq	.L30
 599:Core/Src/main.c ****           blink[0] = 1;
 600:Core/Src/main.c ****           blinkTime[0] = commandLED & 0xF;
 601:Core/Src/main.c ****           blink[1] = 1;
 602:Core/Src/main.c ****           blinkTime[1] = commandLED & 0xF;
 603:Core/Src/main.c ****           blink[2] = 1;
 604:Core/Src/main.c ****           blinkTime[2] = commandLED & 0xF;
 605:Core/Src/main.c ****           blink[3] = 1;
 606:Core/Src/main.c ****           blinkTime[3] = commandLED & 0xF;
 607:Core/Src/main.c ****         }
 608:Core/Src/main.c ****         else
 609:Core/Src/main.c ****           blink[LEDColor-1] = 1;
 340              		.loc 1 609 11 is_stmt 1 view .LVU87
 341              		.loc 1 609 25 is_stmt 0 view .LVU88
 342 0054 3723     		movs	r3, #55
 343 0056 6B44     		add	r3, r3, sp
 344 0058 1B78     		ldrb	r3, [r3]
 345 005a 013B     		subs	r3, r3, #1
 346              		.loc 1 609 29 view .LVU89
 347 005c 07AA     		add	r2, sp, #28
 348 005e 0121     		movs	r1, #1
 349 0060 D154     		strb	r1, [r2, r3]
 350              	.L24:
 610:Core/Src/main.c ****           blinkTime[LEDColor-1] = commandLED & 0xF;
 351              		.loc 1 610 11 is_stmt 1 view .LVU90
 352              		.loc 1 610 46 is_stmt 0 view .LVU91
 353 0062 654B     		ldr	r3, .L35+8
 354 0064 1A88     		ldrh	r2, [r3]
 355              		.loc 1 610 29 view .LVU92
 356 0066 3723     		movs	r3, #55
ARM GAS  /var/folders/kr/g9ry2bg56g773797gdtkvvkw0000gn/T//cc5EoDJi.s 			page 18


 357 0068 6B44     		add	r3, r3, sp
 358 006a 1B78     		ldrb	r3, [r3]
 359 006c 013B     		subs	r3, r3, #1
 360              		.loc 1 610 46 view .LVU93
 361 006e 0F21     		movs	r1, #15
 362 0070 0A40     		ands	r2, r1
 363              		.loc 1 610 33 view .LVU94
 364 0072 06A9     		add	r1, sp, #24
 365 0074 CA54     		strb	r2, [r1, r3]
 611:Core/Src/main.c ****         break;
 366              		.loc 1 611 9 is_stmt 1 view .LVU95
 367              	.L18:
 612:Core/Src/main.c ****       default:
 613:Core/Src/main.c ****     }
 614:Core/Src/main.c **** 
 615:Core/Src/main.c ****     //Blinking
 616:Core/Src/main.c ****     currentTime = xTaskGetTickCount();
 368              		.loc 1 616 5 view .LVU96
 369              		.loc 1 616 19 is_stmt 0 view .LVU97
 370 0076 FFF7FEFF 		bl	xTaskGetTickCount
 371              	.LVL15:
 372              		.loc 1 616 17 discriminator 1 view .LVU98
 373 007a 0190     		str	r0, [sp, #4]
 617:Core/Src/main.c ****     for (int i = 0; i < 4; i++) {
 374              		.loc 1 617 5 is_stmt 1 view .LVU99
 375              	.LBB8:
 376              		.loc 1 617 10 view .LVU100
 377              	.LVL16:
 378              		.loc 1 617 14 is_stmt 0 view .LVU101
 379 007c 0023     		movs	r3, #0
 380              		.loc 1 617 5 view .LVU102
 381 007e 5BE0     		b	.L25
 382              	.LVL17:
 383              	.L16:
 384              		.loc 1 617 5 view .LVU103
 385              	.LBE8:
 562:Core/Src/main.c ****         if (LEDColor == 5) {
 386              		.loc 1 562 9 is_stmt 1 view .LVU104
 562:Core/Src/main.c ****         if (LEDColor == 5) {
 387              		.loc 1 562 41 is_stmt 0 view .LVU105
 388 0080 3722     		movs	r2, #55
 389 0082 6A44     		add	r2, r2, sp
 390 0084 1378     		ldrb	r3, [r2]
 391 0086 013B     		subs	r3, r3, #1
 562:Core/Src/main.c ****         if (LEDColor == 5) {
 392              		.loc 1 562 32 view .LVU106
 393 0088 9B00     		lsls	r3, r3, #2
 394 008a 08A9     		add	r1, sp, #32
 395 008c 5858     		ldr	r0, [r3, r1]
 562:Core/Src/main.c ****         if (LEDColor == 5) {
 396              		.loc 1 562 14 view .LVU107
 397 008e 5B49     		ldr	r1, .L35+12
 398 0090 4B69     		ldr	r3, [r1, #20]
 562:Core/Src/main.c ****         if (LEDColor == 5) {
 399              		.loc 1 562 20 view .LVU108
 400 0092 0343     		orrs	r3, r0
 401 0094 4B61     		str	r3, [r1, #20]
ARM GAS  /var/folders/kr/g9ry2bg56g773797gdtkvvkw0000gn/T//cc5EoDJi.s 			page 19


 563:Core/Src/main.c ****           blink[0] = 0;
 402              		.loc 1 563 9 is_stmt 1 view .LVU109
 563:Core/Src/main.c ****           blink[0] = 0;
 403              		.loc 1 563 22 is_stmt 0 view .LVU110
 404 0096 1378     		ldrb	r3, [r2]
 563:Core/Src/main.c ****           blink[0] = 0;
 405              		.loc 1 563 12 view .LVU111
 406 0098 052B     		cmp	r3, #5
 407 009a 07D0     		beq	.L31
 570:Core/Src/main.c ****         break;
 408              		.loc 1 570 11 is_stmt 1 view .LVU112
 570:Core/Src/main.c ****         break;
 409              		.loc 1 570 25 is_stmt 0 view .LVU113
 410 009c 3723     		movs	r3, #55
 411 009e 6B44     		add	r3, r3, sp
 412 00a0 1B78     		ldrb	r3, [r3]
 413 00a2 013B     		subs	r3, r3, #1
 570:Core/Src/main.c ****         break;
 414              		.loc 1 570 29 view .LVU114
 415 00a4 07AA     		add	r2, sp, #28
 416 00a6 0021     		movs	r1, #0
 417 00a8 D154     		strb	r1, [r2, r3]
 418 00aa E4E7     		b	.L18
 419              	.L31:
 564:Core/Src/main.c ****           blink[1] = 0;
 420              		.loc 1 564 11 is_stmt 1 view .LVU115
 564:Core/Src/main.c ****           blink[1] = 0;
 421              		.loc 1 564 20 is_stmt 0 view .LVU116
 422 00ac 07AB     		add	r3, sp, #28
 423 00ae 0022     		movs	r2, #0
 424 00b0 1A70     		strb	r2, [r3]
 565:Core/Src/main.c ****           blink[2] = 0;
 425              		.loc 1 565 11 is_stmt 1 view .LVU117
 565:Core/Src/main.c ****           blink[2] = 0;
 426              		.loc 1 565 20 is_stmt 0 view .LVU118
 427 00b2 5A70     		strb	r2, [r3, #1]
 566:Core/Src/main.c ****           blink[3] = 0;
 428              		.loc 1 566 11 is_stmt 1 view .LVU119
 566:Core/Src/main.c ****           blink[3] = 0;
 429              		.loc 1 566 20 is_stmt 0 view .LVU120
 430 00b4 9A70     		strb	r2, [r3, #2]
 567:Core/Src/main.c ****         }
 431              		.loc 1 567 11 is_stmt 1 view .LVU121
 567:Core/Src/main.c ****         }
 432              		.loc 1 567 20 is_stmt 0 view .LVU122
 433 00b6 DA70     		strb	r2, [r3, #3]
 434 00b8 DDE7     		b	.L18
 435              	.L34:
 576:Core/Src/main.c ****           blink[1] = 0;
 436              		.loc 1 576 11 is_stmt 1 view .LVU123
 576:Core/Src/main.c ****           blink[1] = 0;
 437              		.loc 1 576 20 is_stmt 0 view .LVU124
 438 00ba 07AB     		add	r3, sp, #28
 439 00bc 0022     		movs	r2, #0
 440 00be 1A70     		strb	r2, [r3]
 577:Core/Src/main.c ****           blink[2] = 0;
 441              		.loc 1 577 11 is_stmt 1 view .LVU125
ARM GAS  /var/folders/kr/g9ry2bg56g773797gdtkvvkw0000gn/T//cc5EoDJi.s 			page 20


 577:Core/Src/main.c ****           blink[2] = 0;
 442              		.loc 1 577 20 is_stmt 0 view .LVU126
 443 00c0 5A70     		strb	r2, [r3, #1]
 578:Core/Src/main.c ****           blink[3] = 0;
 444              		.loc 1 578 11 is_stmt 1 view .LVU127
 578:Core/Src/main.c ****           blink[3] = 0;
 445              		.loc 1 578 20 is_stmt 0 view .LVU128
 446 00c2 9A70     		strb	r2, [r3, #2]
 579:Core/Src/main.c ****         }
 447              		.loc 1 579 11 is_stmt 1 view .LVU129
 579:Core/Src/main.c ****         }
 448              		.loc 1 579 20 is_stmt 0 view .LVU130
 449 00c4 DA70     		strb	r2, [r3, #3]
 450 00c6 D6E7     		b	.L18
 451              	.L14:
 586:Core/Src/main.c ****         if (LEDColor == 5) {
 452              		.loc 1 586 9 is_stmt 1 view .LVU131
 586:Core/Src/main.c ****         if (LEDColor == 5) {
 453              		.loc 1 586 41 is_stmt 0 view .LVU132
 454 00c8 3722     		movs	r2, #55
 455 00ca 6A44     		add	r2, r2, sp
 456 00cc 1378     		ldrb	r3, [r2]
 457 00ce 013B     		subs	r3, r3, #1
 586:Core/Src/main.c ****         if (LEDColor == 5) {
 458              		.loc 1 586 32 view .LVU133
 459 00d0 9B00     		lsls	r3, r3, #2
 460 00d2 08A9     		add	r1, sp, #32
 461 00d4 5858     		ldr	r0, [r3, r1]
 586:Core/Src/main.c ****         if (LEDColor == 5) {
 462              		.loc 1 586 14 view .LVU134
 463 00d6 4949     		ldr	r1, .L35+12
 464 00d8 4B69     		ldr	r3, [r1, #20]
 586:Core/Src/main.c ****         if (LEDColor == 5) {
 465              		.loc 1 586 20 view .LVU135
 466 00da 4340     		eors	r3, r0
 467 00dc 4B61     		str	r3, [r1, #20]
 587:Core/Src/main.c ****           blink[0] = 0;
 468              		.loc 1 587 9 is_stmt 1 view .LVU136
 587:Core/Src/main.c ****           blink[0] = 0;
 469              		.loc 1 587 22 is_stmt 0 view .LVU137
 470 00de 1378     		ldrb	r3, [r2]
 587:Core/Src/main.c ****           blink[0] = 0;
 471              		.loc 1 587 12 view .LVU138
 472 00e0 052B     		cmp	r3, #5
 473 00e2 07D0     		beq	.L32
 594:Core/Src/main.c ****         break;
 474              		.loc 1 594 11 is_stmt 1 view .LVU139
 594:Core/Src/main.c ****         break;
 475              		.loc 1 594 25 is_stmt 0 view .LVU140
 476 00e4 3723     		movs	r3, #55
 477 00e6 6B44     		add	r3, r3, sp
 478 00e8 1B78     		ldrb	r3, [r3]
 479 00ea 013B     		subs	r3, r3, #1
 594:Core/Src/main.c ****         break;
 480              		.loc 1 594 29 view .LVU141
 481 00ec 07AA     		add	r2, sp, #28
 482 00ee 0021     		movs	r1, #0
ARM GAS  /var/folders/kr/g9ry2bg56g773797gdtkvvkw0000gn/T//cc5EoDJi.s 			page 21


 483 00f0 D154     		strb	r1, [r2, r3]
 484 00f2 C0E7     		b	.L18
 485              	.L32:
 588:Core/Src/main.c ****           blink[1] = 0;
 486              		.loc 1 588 11 is_stmt 1 view .LVU142
 588:Core/Src/main.c ****           blink[1] = 0;
 487              		.loc 1 588 20 is_stmt 0 view .LVU143
 488 00f4 07AB     		add	r3, sp, #28
 489 00f6 0022     		movs	r2, #0
 490 00f8 1A70     		strb	r2, [r3]
 589:Core/Src/main.c ****           blink[2] = 0;
 491              		.loc 1 589 11 is_stmt 1 view .LVU144
 589:Core/Src/main.c ****           blink[2] = 0;
 492              		.loc 1 589 20 is_stmt 0 view .LVU145
 493 00fa 5A70     		strb	r2, [r3, #1]
 590:Core/Src/main.c ****           blink[3] = 0;
 494              		.loc 1 590 11 is_stmt 1 view .LVU146
 590:Core/Src/main.c ****           blink[3] = 0;
 495              		.loc 1 590 20 is_stmt 0 view .LVU147
 496 00fc 9A70     		strb	r2, [r3, #2]
 591:Core/Src/main.c ****         }
 497              		.loc 1 591 11 is_stmt 1 view .LVU148
 591:Core/Src/main.c ****         }
 498              		.loc 1 591 20 is_stmt 0 view .LVU149
 499 00fe DA70     		strb	r2, [r3, #3]
 500 0100 B9E7     		b	.L18
 501              	.L30:
 599:Core/Src/main.c ****           blinkTime[0] = commandLED & 0xF;
 502              		.loc 1 599 11 is_stmt 1 view .LVU150
 599:Core/Src/main.c ****           blinkTime[0] = commandLED & 0xF;
 503              		.loc 1 599 20 is_stmt 0 view .LVU151
 504 0102 07A8     		add	r0, sp, #28
 505 0104 0124     		movs	r4, #1
 506 0106 0470     		strb	r4, [r0]
 600:Core/Src/main.c ****           blink[1] = 1;
 507              		.loc 1 600 11 is_stmt 1 view .LVU152
 600:Core/Src/main.c ****           blink[1] = 1;
 508              		.loc 1 600 37 is_stmt 0 view .LVU153
 509 0108 3B49     		ldr	r1, .L35+8
 510 010a 0D88     		ldrh	r5, [r1]
 511 010c 0F22     		movs	r2, #15
 512 010e 1540     		ands	r5, r2
 600:Core/Src/main.c ****           blink[1] = 1;
 513              		.loc 1 600 24 view .LVU154
 514 0110 06AB     		add	r3, sp, #24
 515 0112 1D70     		strb	r5, [r3]
 601:Core/Src/main.c ****           blinkTime[1] = commandLED & 0xF;
 516              		.loc 1 601 11 is_stmt 1 view .LVU155
 601:Core/Src/main.c ****           blinkTime[1] = commandLED & 0xF;
 517              		.loc 1 601 20 is_stmt 0 view .LVU156
 518 0114 4470     		strb	r4, [r0, #1]
 602:Core/Src/main.c ****           blink[2] = 1;
 519              		.loc 1 602 11 is_stmt 1 view .LVU157
 602:Core/Src/main.c ****           blink[2] = 1;
 520              		.loc 1 602 37 is_stmt 0 view .LVU158
 521 0116 0D88     		ldrh	r5, [r1]
 522 0118 1540     		ands	r5, r2
ARM GAS  /var/folders/kr/g9ry2bg56g773797gdtkvvkw0000gn/T//cc5EoDJi.s 			page 22


 602:Core/Src/main.c ****           blink[2] = 1;
 523              		.loc 1 602 24 view .LVU159
 524 011a 5D70     		strb	r5, [r3, #1]
 603:Core/Src/main.c ****           blinkTime[2] = commandLED & 0xF;
 525              		.loc 1 603 11 is_stmt 1 view .LVU160
 603:Core/Src/main.c ****           blinkTime[2] = commandLED & 0xF;
 526              		.loc 1 603 20 is_stmt 0 view .LVU161
 527 011c 8470     		strb	r4, [r0, #2]
 604:Core/Src/main.c ****           blink[3] = 1;
 528              		.loc 1 604 11 is_stmt 1 view .LVU162
 604:Core/Src/main.c ****           blink[3] = 1;
 529              		.loc 1 604 37 is_stmt 0 view .LVU163
 530 011e 0D88     		ldrh	r5, [r1]
 531 0120 1540     		ands	r5, r2
 604:Core/Src/main.c ****           blink[3] = 1;
 532              		.loc 1 604 24 view .LVU164
 533 0122 9D70     		strb	r5, [r3, #2]
 605:Core/Src/main.c ****           blinkTime[3] = commandLED & 0xF;
 534              		.loc 1 605 11 is_stmt 1 view .LVU165
 605:Core/Src/main.c ****           blinkTime[3] = commandLED & 0xF;
 535              		.loc 1 605 20 is_stmt 0 view .LVU166
 536 0124 C470     		strb	r4, [r0, #3]
 606:Core/Src/main.c ****         }
 537              		.loc 1 606 11 is_stmt 1 view .LVU167
 606:Core/Src/main.c ****         }
 538              		.loc 1 606 37 is_stmt 0 view .LVU168
 539 0126 0988     		ldrh	r1, [r1]
 540 0128 0A40     		ands	r2, r1
 606:Core/Src/main.c ****         }
 541              		.loc 1 606 24 view .LVU169
 542 012a DA70     		strb	r2, [r3, #3]
 543 012c 99E7     		b	.L24
 544              	.LVL18:
 545              	.L26:
 546              	.LBB9:
 618:Core/Src/main.c ****       if (blink[i]) {
 619:Core/Src/main.c ****         if (currentTime - startTime[i] > blinkTime[i]*100) {
 620:Core/Src/main.c ****           GPIOC->ODR ^= colorMask[i];
 621:Core/Src/main.c ****           startTime[i] = currentTime;
 622:Core/Src/main.c ****         }
 623:Core/Src/main.c ****       }
 624:Core/Src/main.c ****       else
 625:Core/Src/main.c ****         startTime[i] = currentTime;
 547              		.loc 1 625 9 is_stmt 1 view .LVU170
 548              		.loc 1 625 22 is_stmt 0 view .LVU171
 549 012e 0198     		ldr	r0, [sp, #4]
 550 0130 9A00     		lsls	r2, r3, #2
 551 0132 02A9     		add	r1, sp, #8
 552 0134 5050     		str	r0, [r2, r1]
 553              	.L27:
 617:Core/Src/main.c ****       if (blink[i]) {
 554              		.loc 1 617 29 is_stmt 1 discriminator 2 view .LVU172
 555 0136 0133     		adds	r3, r3, #1
 556              	.LVL19:
 557              	.L25:
 617:Core/Src/main.c ****       if (blink[i]) {
 558              		.loc 1 617 23 discriminator 1 view .LVU173
ARM GAS  /var/folders/kr/g9ry2bg56g773797gdtkvvkw0000gn/T//cc5EoDJi.s 			page 23


 559 0138 032B     		cmp	r3, #3
 560 013a 19DC     		bgt	.L33
 618:Core/Src/main.c ****       if (blink[i]) {
 561              		.loc 1 618 7 view .LVU174
 618:Core/Src/main.c ****       if (blink[i]) {
 562              		.loc 1 618 16 is_stmt 0 view .LVU175
 563 013c 07AA     		add	r2, sp, #28
 564 013e D25C     		ldrb	r2, [r2, r3]
 618:Core/Src/main.c ****       if (blink[i]) {
 565              		.loc 1 618 10 view .LVU176
 566 0140 002A     		cmp	r2, #0
 567 0142 F4D0     		beq	.L26
 619:Core/Src/main.c ****           GPIOC->ODR ^= colorMask[i];
 568              		.loc 1 619 9 is_stmt 1 view .LVU177
 619:Core/Src/main.c ****           GPIOC->ODR ^= colorMask[i];
 569              		.loc 1 619 25 is_stmt 0 view .LVU178
 570 0144 0199     		ldr	r1, [sp, #4]
 619:Core/Src/main.c ****           GPIOC->ODR ^= colorMask[i];
 571              		.loc 1 619 36 view .LVU179
 572 0146 9A00     		lsls	r2, r3, #2
 573 0148 02A8     		add	r0, sp, #8
 574 014a 1258     		ldr	r2, [r2, r0]
 619:Core/Src/main.c ****           GPIOC->ODR ^= colorMask[i];
 575              		.loc 1 619 25 view .LVU180
 576 014c 891A     		subs	r1, r1, r2
 619:Core/Src/main.c ****           GPIOC->ODR ^= colorMask[i];
 577              		.loc 1 619 51 view .LVU181
 578 014e 06AA     		add	r2, sp, #24
 579 0150 D25C     		ldrb	r2, [r2, r3]
 619:Core/Src/main.c ****           GPIOC->ODR ^= colorMask[i];
 580              		.loc 1 619 54 view .LVU182
 581 0152 6420     		movs	r0, #100
 582 0154 4243     		muls	r2, r0
 619:Core/Src/main.c ****           GPIOC->ODR ^= colorMask[i];
 583              		.loc 1 619 12 view .LVU183
 584 0156 9142     		cmp	r1, r2
 585 0158 EDD9     		bls	.L27
 620:Core/Src/main.c ****           startTime[i] = currentTime;
 586              		.loc 1 620 11 is_stmt 1 view .LVU184
 620:Core/Src/main.c ****           startTime[i] = currentTime;
 587              		.loc 1 620 34 is_stmt 0 view .LVU185
 588 015a 9A00     		lsls	r2, r3, #2
 589 015c 08A9     		add	r1, sp, #32
 590 015e 5458     		ldr	r4, [r2, r1]
 620:Core/Src/main.c ****           startTime[i] = currentTime;
 591              		.loc 1 620 16 view .LVU186
 592 0160 2648     		ldr	r0, .L35+12
 593 0162 4169     		ldr	r1, [r0, #20]
 620:Core/Src/main.c ****           startTime[i] = currentTime;
 594              		.loc 1 620 22 view .LVU187
 595 0164 6140     		eors	r1, r4
 596 0166 4161     		str	r1, [r0, #20]
 621:Core/Src/main.c ****         }
 597              		.loc 1 621 11 is_stmt 1 view .LVU188
 621:Core/Src/main.c ****         }
 598              		.loc 1 621 24 is_stmt 0 view .LVU189
 599 0168 0198     		ldr	r0, [sp, #4]
ARM GAS  /var/folders/kr/g9ry2bg56g773797gdtkvvkw0000gn/T//cc5EoDJi.s 			page 24


 600 016a 02A9     		add	r1, sp, #8
 601 016c 5050     		str	r0, [r2, r1]
 602 016e E2E7     		b	.L27
 603              	.L33:
 604              	.LBE9:
 626:Core/Src/main.c ****     }
 627:Core/Src/main.c **** 
 628:Core/Src/main.c ****     commandLED = 0;
 605              		.loc 1 628 5 is_stmt 1 view .LVU190
 606              		.loc 1 628 16 is_stmt 0 view .LVU191
 607 0170 214B     		ldr	r3, .L35+8
 608              	.LVL20:
 609              		.loc 1 628 16 view .LVU192
 610 0172 0022     		movs	r2, #0
 611 0174 1A80     		strh	r2, [r3]
 629:Core/Src/main.c **** 
 630:Core/Src/main.c ****     osSemaphoreRelease(binarySem03LEDWorkerHandle);
 612              		.loc 1 630 5 is_stmt 1 view .LVU193
 613 0176 1E4B     		ldr	r3, .L35
 614 0178 1868     		ldr	r0, [r3]
 615 017a FFF7FEFF 		bl	osSemaphoreRelease
 616              	.LVL21:
 617              	.LBE7:
 551:Core/Src/main.c ****   {
 618              		.loc 1 551 3 view .LVU194
 619              	.L29:
 551:Core/Src/main.c ****   {
 620              		.loc 1 551 3 view .LVU195
 621              	.LBB10:
 553:Core/Src/main.c **** 
 622              		.loc 1 553 5 view .LVU196
 623 017e 0121     		movs	r1, #1
 624 0180 1B4B     		ldr	r3, .L35
 625 0182 1868     		ldr	r0, [r3]
 626 0184 4942     		rsbs	r1, r1, #0
 627 0186 FFF7FEFF 		bl	osSemaphoreAcquire
 628              	.LVL22:
 555:Core/Src/main.c ****     LEDAction = (commandLED & 0x00F0) >> 4;
 629              		.loc 1 555 5 view .LVU197
 555:Core/Src/main.c ****     LEDAction = (commandLED & 0x00F0) >> 4;
 630              		.loc 1 555 38 is_stmt 0 view .LVU198
 631 018a 1B49     		ldr	r1, .L35+8
 632 018c 0B88     		ldrh	r3, [r1]
 633 018e 1B0A     		lsrs	r3, r3, #8
 634 0190 0F22     		movs	r2, #15
 635 0192 1340     		ands	r3, r2
 555:Core/Src/main.c ****     LEDAction = (commandLED & 0x00F0) >> 4;
 636              		.loc 1 555 14 view .LVU199
 637 0194 3720     		movs	r0, #55
 638 0196 6844     		add	r0, r0, sp
 639 0198 0370     		strb	r3, [r0]
 556:Core/Src/main.c **** 
 640              		.loc 1 556 5 is_stmt 1 view .LVU200
 556:Core/Src/main.c **** 
 641              		.loc 1 556 39 is_stmt 0 view .LVU201
 642 019a 0B88     		ldrh	r3, [r1]
 643 019c 1B09     		lsrs	r3, r3, #4
ARM GAS  /var/folders/kr/g9ry2bg56g773797gdtkvvkw0000gn/T//cc5EoDJi.s 			page 25


 644 019e 1A40     		ands	r2, r3
 556:Core/Src/main.c **** 
 645              		.loc 1 556 15 view .LVU202
 646 01a0 3623     		movs	r3, #54
 647 01a2 6B44     		add	r3, r3, sp
 648 01a4 1A70     		strb	r2, [r3]
 559:Core/Src/main.c ****       //On
 649              		.loc 1 559 5 is_stmt 1 view .LVU203
 650 01a6 1B78     		ldrb	r3, [r3]
 651 01a8 DAB2     		uxtb	r2, r3
 652 01aa 032B     		cmp	r3, #3
 653 01ac 8CD0     		beq	.L14
 654 01ae 032A     		cmp	r2, #3
 655 01b0 00D9     		bls	.LCB562
 656 01b2 48E7     		b	.L15	@long jump
 657              	.LCB562:
 658 01b4 012A     		cmp	r2, #1
 659 01b6 00D1     		bne	.LCB564
 660 01b8 62E7     		b	.L16	@long jump
 661              	.LCB564:
 662 01ba 022A     		cmp	r2, #2
 663 01bc 00D0     		beq	.LCB566
 664 01be 5AE7     		b	.L18	@long jump
 665              	.LCB566:
 574:Core/Src/main.c ****         if (LEDColor == 5) {
 666              		.loc 1 574 9 view .LVU204
 574:Core/Src/main.c ****         if (LEDColor == 5) {
 667              		.loc 1 574 42 is_stmt 0 view .LVU205
 668 01c0 3722     		movs	r2, #55
 669 01c2 6A44     		add	r2, r2, sp
 670 01c4 1378     		ldrb	r3, [r2]
 671 01c6 013B     		subs	r3, r3, #1
 574:Core/Src/main.c ****         if (LEDColor == 5) {
 672              		.loc 1 574 33 view .LVU206
 673 01c8 9B00     		lsls	r3, r3, #2
 674 01ca 08A9     		add	r1, sp, #32
 675 01cc 5858     		ldr	r0, [r3, r1]
 574:Core/Src/main.c ****         if (LEDColor == 5) {
 676              		.loc 1 574 14 view .LVU207
 677 01ce 0B49     		ldr	r1, .L35+12
 678 01d0 4B69     		ldr	r3, [r1, #20]
 574:Core/Src/main.c ****         if (LEDColor == 5) {
 679              		.loc 1 574 20 view .LVU208
 680 01d2 8343     		bics	r3, r0
 681 01d4 4B61     		str	r3, [r1, #20]
 575:Core/Src/main.c ****           blink[0] = 0;
 682              		.loc 1 575 9 is_stmt 1 view .LVU209
 575:Core/Src/main.c ****           blink[0] = 0;
 683              		.loc 1 575 22 is_stmt 0 view .LVU210
 684 01d6 1378     		ldrb	r3, [r2]
 575:Core/Src/main.c ****           blink[0] = 0;
 685              		.loc 1 575 12 view .LVU211
 686 01d8 052B     		cmp	r3, #5
 687 01da 00D1     		bne	.LCB585
 688 01dc 6DE7     		b	.L34	@long jump
 689              	.LCB585:
 582:Core/Src/main.c ****         break;
ARM GAS  /var/folders/kr/g9ry2bg56g773797gdtkvvkw0000gn/T//cc5EoDJi.s 			page 26


 690              		.loc 1 582 11 is_stmt 1 view .LVU212
 582:Core/Src/main.c ****         break;
 691              		.loc 1 582 25 is_stmt 0 view .LVU213
 692 01de 3723     		movs	r3, #55
 693 01e0 6B44     		add	r3, r3, sp
 694 01e2 1B78     		ldrb	r3, [r3]
 695 01e4 013B     		subs	r3, r3, #1
 582:Core/Src/main.c ****         break;
 696              		.loc 1 582 29 view .LVU214
 697 01e6 07AA     		add	r2, sp, #28
 698 01e8 0021     		movs	r1, #0
 699 01ea D154     		strb	r1, [r2, r3]
 700 01ec 43E7     		b	.L18
 701              	.L36:
 702 01ee C046     		.align	2
 703              	.L35:
 704 01f0 00000000 		.word	binarySem03LEDWorkerHandle
 705 01f4 00000000 		.word	.LANCHOR0
 706 01f8 00000000 		.word	commandLED
 707 01fc 00080048 		.word	1207961600
 708              	.LBE10:
 709              		.cfi_endproc
 710              	.LFE52:
 712              		.section	.text.initLEDs,"ax",%progbits
 713              		.align	1
 714              		.global	initLEDs
 715              		.syntax unified
 716              		.code	16
 717              		.thumb_func
 719              	initLEDs:
 720              	.LFB51:
 498:Core/Src/main.c **** 	// red LED PC6, blue LED (PC7), green LED PC9, orange LED PC8
 721              		.loc 1 498 21 is_stmt 1 view -0
 722              		.cfi_startproc
 723              		@ args = 0, pretend = 0, frame = 0
 724              		@ frame_needed = 0, uses_anonymous_args = 0
 725              		@ link register save eliminated.
 500:Core/Src/main.c ****   // set the MODER, 01: General purpose output mode
 726              		.loc 1 500 3 view .LVU216
 500:Core/Src/main.c ****   // set the MODER, 01: General purpose output mode
 727              		.loc 1 500 6 is_stmt 0 view .LVU217
 728 0000 294A     		ldr	r2, .L38
 729 0002 5169     		ldr	r1, [r2, #20]
 500:Core/Src/main.c ****   // set the MODER, 01: General purpose output mode
 730              		.loc 1 500 15 view .LVU218
 731 0004 8023     		movs	r3, #128
 732 0006 1B03     		lsls	r3, r3, #12
 733 0008 0B43     		orrs	r3, r1
 734 000a 5361     		str	r3, [r2, #20]
 503:Core/Src/main.c **** 	GPIOC->MODER &= ~(1 << 13);
 735              		.loc 1 503 2 is_stmt 1 view .LVU219
 503:Core/Src/main.c **** 	GPIOC->MODER &= ~(1 << 13);
 736              		.loc 1 503 7 is_stmt 0 view .LVU220
 737 000c 274B     		ldr	r3, .L38+4
 738 000e 1968     		ldr	r1, [r3]
 503:Core/Src/main.c **** 	GPIOC->MODER &= ~(1 << 13);
 739              		.loc 1 503 15 view .LVU221
ARM GAS  /var/folders/kr/g9ry2bg56g773797gdtkvvkw0000gn/T//cc5EoDJi.s 			page 27


 740 0010 8022     		movs	r2, #128
 741 0012 5201     		lsls	r2, r2, #5
 742 0014 0A43     		orrs	r2, r1
 743 0016 1A60     		str	r2, [r3]
 504:Core/Src/main.c ****     // init PC7 MODER
 744              		.loc 1 504 2 is_stmt 1 view .LVU222
 504:Core/Src/main.c ****     // init PC7 MODER
 745              		.loc 1 504 7 is_stmt 0 view .LVU223
 746 0018 1A68     		ldr	r2, [r3]
 504:Core/Src/main.c ****     // init PC7 MODER
 747              		.loc 1 504 15 view .LVU224
 748 001a 2549     		ldr	r1, .L38+8
 749 001c 0A40     		ands	r2, r1
 750 001e 1A60     		str	r2, [r3]
 506:Core/Src/main.c **** 	GPIOC->MODER &= ~(1 << 15);
 751              		.loc 1 506 2 is_stmt 1 view .LVU225
 506:Core/Src/main.c **** 	GPIOC->MODER &= ~(1 << 15);
 752              		.loc 1 506 7 is_stmt 0 view .LVU226
 753 0020 1968     		ldr	r1, [r3]
 506:Core/Src/main.c **** 	GPIOC->MODER &= ~(1 << 15);
 754              		.loc 1 506 15 view .LVU227
 755 0022 8022     		movs	r2, #128
 756 0024 D201     		lsls	r2, r2, #7
 757 0026 0A43     		orrs	r2, r1
 758 0028 1A60     		str	r2, [r3]
 507:Core/Src/main.c **** 	// init PC8 MODER
 759              		.loc 1 507 2 is_stmt 1 view .LVU228
 507:Core/Src/main.c **** 	// init PC8 MODER
 760              		.loc 1 507 7 is_stmt 0 view .LVU229
 761 002a 1A68     		ldr	r2, [r3]
 507:Core/Src/main.c **** 	// init PC8 MODER
 762              		.loc 1 507 15 view .LVU230
 763 002c 2149     		ldr	r1, .L38+12
 764 002e 0A40     		ands	r2, r1
 765 0030 1A60     		str	r2, [r3]
 509:Core/Src/main.c **** 	GPIOC->MODER &= ~(1 << 17);
 766              		.loc 1 509 2 is_stmt 1 view .LVU231
 509:Core/Src/main.c **** 	GPIOC->MODER &= ~(1 << 17);
 767              		.loc 1 509 7 is_stmt 0 view .LVU232
 768 0032 1968     		ldr	r1, [r3]
 509:Core/Src/main.c **** 	GPIOC->MODER &= ~(1 << 17);
 769              		.loc 1 509 15 view .LVU233
 770 0034 8022     		movs	r2, #128
 771 0036 5202     		lsls	r2, r2, #9
 772 0038 0A43     		orrs	r2, r1
 773 003a 1A60     		str	r2, [r3]
 510:Core/Src/main.c **** 	// init PC9 MODER
 774              		.loc 1 510 2 is_stmt 1 view .LVU234
 510:Core/Src/main.c **** 	// init PC9 MODER
 775              		.loc 1 510 7 is_stmt 0 view .LVU235
 776 003c 1A68     		ldr	r2, [r3]
 510:Core/Src/main.c **** 	// init PC9 MODER
 777              		.loc 1 510 15 view .LVU236
 778 003e 1E49     		ldr	r1, .L38+16
 779 0040 0A40     		ands	r2, r1
 780 0042 1A60     		str	r2, [r3]
 512:Core/Src/main.c **** 	GPIOC->MODER &= ~(1 << 19);
ARM GAS  /var/folders/kr/g9ry2bg56g773797gdtkvvkw0000gn/T//cc5EoDJi.s 			page 28


 781              		.loc 1 512 2 is_stmt 1 view .LVU237
 512:Core/Src/main.c **** 	GPIOC->MODER &= ~(1 << 19);
 782              		.loc 1 512 7 is_stmt 0 view .LVU238
 783 0044 1968     		ldr	r1, [r3]
 512:Core/Src/main.c **** 	GPIOC->MODER &= ~(1 << 19);
 784              		.loc 1 512 15 view .LVU239
 785 0046 8022     		movs	r2, #128
 786 0048 D202     		lsls	r2, r2, #11
 787 004a 0A43     		orrs	r2, r1
 788 004c 1A60     		str	r2, [r3]
 513:Core/Src/main.c ****   // Set the pins to low speed in the OSPEEDR register
 789              		.loc 1 513 2 is_stmt 1 view .LVU240
 513:Core/Src/main.c ****   // Set the pins to low speed in the OSPEEDR register
 790              		.loc 1 513 7 is_stmt 0 view .LVU241
 791 004e 1A68     		ldr	r2, [r3]
 513:Core/Src/main.c ****   // Set the pins to low speed in the OSPEEDR register
 792              		.loc 1 513 15 view .LVU242
 793 0050 1A49     		ldr	r1, .L38+20
 794 0052 0A40     		ands	r2, r1
 795 0054 1A60     		str	r2, [r3]
 515:Core/Src/main.c **** 	GPIOC->OSPEEDR &= ~((1 << 14) | (1 << 15));
 796              		.loc 1 515 2 is_stmt 1 view .LVU243
 515:Core/Src/main.c **** 	GPIOC->OSPEEDR &= ~((1 << 14) | (1 << 15));
 797              		.loc 1 515 7 is_stmt 0 view .LVU244
 798 0056 9A68     		ldr	r2, [r3, #8]
 515:Core/Src/main.c **** 	GPIOC->OSPEEDR &= ~((1 << 14) | (1 << 15));
 799              		.loc 1 515 17 view .LVU245
 800 0058 1949     		ldr	r1, .L38+24
 801 005a 0A40     		ands	r2, r1
 802 005c 9A60     		str	r2, [r3, #8]
 516:Core/Src/main.c **** 	GPIOC->OSPEEDR &= ~((1 << 16) | (1 << 17));
 803              		.loc 1 516 2 is_stmt 1 view .LVU246
 516:Core/Src/main.c **** 	GPIOC->OSPEEDR &= ~((1 << 16) | (1 << 17));
 804              		.loc 1 516 7 is_stmt 0 view .LVU247
 805 005e 9A68     		ldr	r2, [r3, #8]
 516:Core/Src/main.c **** 	GPIOC->OSPEEDR &= ~((1 << 16) | (1 << 17));
 806              		.loc 1 516 17 view .LVU248
 807 0060 1849     		ldr	r1, .L38+28
 808 0062 0A40     		ands	r2, r1
 809 0064 9A60     		str	r2, [r3, #8]
 517:Core/Src/main.c **** 	GPIOC->OSPEEDR &= ~((1 << 18) | (1 << 19));
 810              		.loc 1 517 2 is_stmt 1 view .LVU249
 517:Core/Src/main.c **** 	GPIOC->OSPEEDR &= ~((1 << 18) | (1 << 19));
 811              		.loc 1 517 7 is_stmt 0 view .LVU250
 812 0066 9A68     		ldr	r2, [r3, #8]
 517:Core/Src/main.c **** 	GPIOC->OSPEEDR &= ~((1 << 18) | (1 << 19));
 813              		.loc 1 517 17 view .LVU251
 814 0068 1749     		ldr	r1, .L38+32
 815 006a 0A40     		ands	r2, r1
 816 006c 9A60     		str	r2, [r3, #8]
 518:Core/Src/main.c **** 
 817              		.loc 1 518 2 is_stmt 1 view .LVU252
 518:Core/Src/main.c **** 
 818              		.loc 1 518 7 is_stmt 0 view .LVU253
 819 006e 9A68     		ldr	r2, [r3, #8]
 518:Core/Src/main.c **** 
 820              		.loc 1 518 17 view .LVU254
ARM GAS  /var/folders/kr/g9ry2bg56g773797gdtkvvkw0000gn/T//cc5EoDJi.s 			page 29


 821 0070 1649     		ldr	r1, .L38+36
 822 0072 0A40     		ands	r2, r1
 823 0074 9A60     		str	r2, [r3, #8]
 522:Core/Src/main.c **** 	GPIOC->PUPDR &= ~((1 << 12) | (1 << 13) | (1 << 14) | (1 << 15));
 824              		.loc 1 522 2 is_stmt 1 view .LVU255
 522:Core/Src/main.c **** 	GPIOC->PUPDR &= ~((1 << 12) | (1 << 13) | (1 << 14) | (1 << 15));
 825              		.loc 1 522 7 is_stmt 0 view .LVU256
 826 0076 DA68     		ldr	r2, [r3, #12]
 522:Core/Src/main.c **** 	GPIOC->PUPDR &= ~((1 << 12) | (1 << 13) | (1 << 14) | (1 << 15));
 827              		.loc 1 522 15 view .LVU257
 828 0078 1549     		ldr	r1, .L38+40
 829 007a 0A40     		ands	r2, r1
 830 007c DA60     		str	r2, [r3, #12]
 523:Core/Src/main.c **** 	// set PC6-9 to 0
 831              		.loc 1 523 2 is_stmt 1 view .LVU258
 523:Core/Src/main.c **** 	// set PC6-9 to 0
 832              		.loc 1 523 7 is_stmt 0 view .LVU259
 833 007e DA68     		ldr	r2, [r3, #12]
 523:Core/Src/main.c **** 	// set PC6-9 to 0
 834              		.loc 1 523 15 view .LVU260
 835 0080 1449     		ldr	r1, .L38+44
 836 0082 0A40     		ands	r2, r1
 837 0084 DA60     		str	r2, [r3, #12]
 525:Core/Src/main.c **** 	GPIOC->ODR &= ~(1 << 7);
 838              		.loc 1 525 2 is_stmt 1 view .LVU261
 525:Core/Src/main.c **** 	GPIOC->ODR &= ~(1 << 7);
 839              		.loc 1 525 7 is_stmt 0 view .LVU262
 840 0086 5A69     		ldr	r2, [r3, #20]
 525:Core/Src/main.c **** 	GPIOC->ODR &= ~(1 << 7);
 841              		.loc 1 525 13 view .LVU263
 842 0088 4021     		movs	r1, #64
 843 008a 8A43     		bics	r2, r1
 844 008c 5A61     		str	r2, [r3, #20]
 526:Core/Src/main.c **** 	GPIOC->ODR &= ~(1 << 8);
 845              		.loc 1 526 2 is_stmt 1 view .LVU264
 526:Core/Src/main.c **** 	GPIOC->ODR &= ~(1 << 8);
 846              		.loc 1 526 7 is_stmt 0 view .LVU265
 847 008e 5A69     		ldr	r2, [r3, #20]
 526:Core/Src/main.c **** 	GPIOC->ODR &= ~(1 << 8);
 848              		.loc 1 526 13 view .LVU266
 849 0090 4031     		adds	r1, r1, #64
 850 0092 8A43     		bics	r2, r1
 851 0094 5A61     		str	r2, [r3, #20]
 527:Core/Src/main.c **** 	GPIOC->ODR &= ~(1 << 9);
 852              		.loc 1 527 2 is_stmt 1 view .LVU267
 527:Core/Src/main.c **** 	GPIOC->ODR &= ~(1 << 9);
 853              		.loc 1 527 7 is_stmt 0 view .LVU268
 854 0096 5A69     		ldr	r2, [r3, #20]
 527:Core/Src/main.c **** 	GPIOC->ODR &= ~(1 << 9);
 855              		.loc 1 527 13 view .LVU269
 856 0098 0F49     		ldr	r1, .L38+48
 857 009a 0A40     		ands	r2, r1
 858 009c 5A61     		str	r2, [r3, #20]
 528:Core/Src/main.c **** }
 859              		.loc 1 528 2 is_stmt 1 view .LVU270
 528:Core/Src/main.c **** }
 860              		.loc 1 528 7 is_stmt 0 view .LVU271
ARM GAS  /var/folders/kr/g9ry2bg56g773797gdtkvvkw0000gn/T//cc5EoDJi.s 			page 30


 861 009e 5A69     		ldr	r2, [r3, #20]
 528:Core/Src/main.c **** }
 862              		.loc 1 528 13 view .LVU272
 863 00a0 0E49     		ldr	r1, .L38+52
 864 00a2 0A40     		ands	r2, r1
 865 00a4 5A61     		str	r2, [r3, #20]
 529:Core/Src/main.c **** 
 866              		.loc 1 529 1 view .LVU273
 867              		@ sp needed
 868 00a6 7047     		bx	lr
 869              	.L39:
 870              		.align	2
 871              	.L38:
 872 00a8 00100240 		.word	1073876992
 873 00ac 00080048 		.word	1207961600
 874 00b0 FFDFFFFF 		.word	-8193
 875 00b4 FF7FFFFF 		.word	-32769
 876 00b8 FFFFFDFF 		.word	-131073
 877 00bc FFFFF7FF 		.word	-524289
 878 00c0 FFCFFFFF 		.word	-12289
 879 00c4 FF3FFFFF 		.word	-49153
 880 00c8 FFFFFCFF 		.word	-196609
 881 00cc FFFFF3FF 		.word	-786433
 882 00d0 FFFFF0FF 		.word	-983041
 883 00d4 FF0FFFFF 		.word	-61441
 884 00d8 FFFEFFFF 		.word	-257
 885 00dc FFFDFFFF 		.word	-513
 886              		.cfi_endproc
 887              	.LFE51:
 889              		.section	.text.HAL_TIM_PeriodElapsedCallback,"ax",%progbits
 890              		.align	1
 891              		.global	HAL_TIM_PeriodElapsedCallback
 892              		.syntax unified
 893              		.code	16
 894              		.thumb_func
 896              	HAL_TIM_PeriodElapsedCallback:
 897              	.LVL23:
 898              	.LFB53:
 631:Core/Src/main.c ****   }
 632:Core/Src/main.c **** }
 633:Core/Src/main.c **** 
 634:Core/Src/main.c **** /**
 635:Core/Src/main.c ****   * @brief  Period elapsed callback in non blocking mode
 636:Core/Src/main.c ****   * @note   This function is called  when TIM6 interrupt took place, inside
 637:Core/Src/main.c ****   * HAL_TIM_IRQHandler(). It makes a direct call to HAL_IncTick() to increment
 638:Core/Src/main.c ****   * a global variable "uwTick" used as application time base.
 639:Core/Src/main.c ****   * @param  htim : TIM handle
 640:Core/Src/main.c ****   * @retval None
 641:Core/Src/main.c ****   */
 642:Core/Src/main.c **** void HAL_TIM_PeriodElapsedCallback(TIM_HandleTypeDef *htim)
 643:Core/Src/main.c **** {
 899              		.loc 1 643 1 is_stmt 1 view -0
 900              		.cfi_startproc
 901              		@ args = 0, pretend = 0, frame = 0
 902              		@ frame_needed = 0, uses_anonymous_args = 0
 903              		.loc 1 643 1 is_stmt 0 view .LVU275
 904 0000 10B5     		push	{r4, lr}
ARM GAS  /var/folders/kr/g9ry2bg56g773797gdtkvvkw0000gn/T//cc5EoDJi.s 			page 31


 905              	.LCFI5:
 906              		.cfi_def_cfa_offset 8
 907              		.cfi_offset 4, -8
 908              		.cfi_offset 14, -4
 644:Core/Src/main.c ****   /* USER CODE BEGIN Callback 0 */
 645:Core/Src/main.c **** 
 646:Core/Src/main.c ****   /* USER CODE END Callback 0 */
 647:Core/Src/main.c ****   if (htim->Instance == TIM6) {
 909              		.loc 1 647 3 is_stmt 1 view .LVU276
 910              		.loc 1 647 11 is_stmt 0 view .LVU277
 911 0002 0268     		ldr	r2, [r0]
 912              		.loc 1 647 6 view .LVU278
 913 0004 034B     		ldr	r3, .L43
 914 0006 9A42     		cmp	r2, r3
 915 0008 00D0     		beq	.L42
 916              	.LVL24:
 917              	.L40:
 648:Core/Src/main.c ****     HAL_IncTick();
 649:Core/Src/main.c ****   }
 650:Core/Src/main.c ****   /* USER CODE BEGIN Callback 1 */
 651:Core/Src/main.c **** 
 652:Core/Src/main.c ****   /* USER CODE END Callback 1 */
 653:Core/Src/main.c **** }
 918              		.loc 1 653 1 view .LVU279
 919              		@ sp needed
 920 000a 10BD     		pop	{r4, pc}
 921              	.LVL25:
 922              	.L42:
 648:Core/Src/main.c ****     HAL_IncTick();
 923              		.loc 1 648 5 is_stmt 1 view .LVU280
 924 000c FFF7FEFF 		bl	HAL_IncTick
 925              	.LVL26:
 926              		.loc 1 653 1 is_stmt 0 view .LVU281
 927 0010 FBE7     		b	.L40
 928              	.L44:
 929 0012 C046     		.align	2
 930              	.L43:
 931 0014 00100040 		.word	1073745920
 932              		.cfi_endproc
 933              	.LFE53:
 935              		.section	.text.Error_Handler,"ax",%progbits
 936              		.align	1
 937              		.global	Error_Handler
 938              		.syntax unified
 939              		.code	16
 940              		.thumb_func
 942              	Error_Handler:
 943              	.LFB54:
 654:Core/Src/main.c **** 
 655:Core/Src/main.c **** /**
 656:Core/Src/main.c ****   * @brief  This function is executed in case of error occurrence.
 657:Core/Src/main.c ****   * @retval None
 658:Core/Src/main.c ****   */
 659:Core/Src/main.c **** void Error_Handler(void)
 660:Core/Src/main.c **** {
 944              		.loc 1 660 1 is_stmt 1 view -0
 945              		.cfi_startproc
ARM GAS  /var/folders/kr/g9ry2bg56g773797gdtkvvkw0000gn/T//cc5EoDJi.s 			page 32


 946              		@ Volatile: function does not return.
 947              		@ args = 0, pretend = 0, frame = 0
 948              		@ frame_needed = 0, uses_anonymous_args = 0
 949              		@ link register save eliminated.
 661:Core/Src/main.c ****   /* USER CODE BEGIN Error_Handler_Debug */
 662:Core/Src/main.c ****   /* User can add his own implementation to report the HAL error return state */
 663:Core/Src/main.c ****   __disable_irq();
 950              		.loc 1 663 3 view .LVU283
 951              	.LBB11:
 952              	.LBI11:
 953              		.file 2 "Drivers/CMSIS/Include/cmsis_gcc.h"
   1:Drivers/CMSIS/Include/cmsis_gcc.h **** /**************************************************************************//**
   2:Drivers/CMSIS/Include/cmsis_gcc.h ****  * @file     cmsis_gcc.h
   3:Drivers/CMSIS/Include/cmsis_gcc.h ****  * @brief    CMSIS compiler GCC header file
   4:Drivers/CMSIS/Include/cmsis_gcc.h ****  * @version  V5.0.4
   5:Drivers/CMSIS/Include/cmsis_gcc.h ****  * @date     09. April 2018
   6:Drivers/CMSIS/Include/cmsis_gcc.h ****  ******************************************************************************/
   7:Drivers/CMSIS/Include/cmsis_gcc.h **** /*
   8:Drivers/CMSIS/Include/cmsis_gcc.h ****  * Copyright (c) 2009-2018 Arm Limited. All rights reserved.
   9:Drivers/CMSIS/Include/cmsis_gcc.h ****  *
  10:Drivers/CMSIS/Include/cmsis_gcc.h ****  * SPDX-License-Identifier: Apache-2.0
  11:Drivers/CMSIS/Include/cmsis_gcc.h ****  *
  12:Drivers/CMSIS/Include/cmsis_gcc.h ****  * Licensed under the Apache License, Version 2.0 (the License); you may
  13:Drivers/CMSIS/Include/cmsis_gcc.h ****  * not use this file except in compliance with the License.
  14:Drivers/CMSIS/Include/cmsis_gcc.h ****  * You may obtain a copy of the License at
  15:Drivers/CMSIS/Include/cmsis_gcc.h ****  *
  16:Drivers/CMSIS/Include/cmsis_gcc.h ****  * www.apache.org/licenses/LICENSE-2.0
  17:Drivers/CMSIS/Include/cmsis_gcc.h ****  *
  18:Drivers/CMSIS/Include/cmsis_gcc.h ****  * Unless required by applicable law or agreed to in writing, software
  19:Drivers/CMSIS/Include/cmsis_gcc.h ****  * distributed under the License is distributed on an AS IS BASIS, WITHOUT
  20:Drivers/CMSIS/Include/cmsis_gcc.h ****  * WARRANTIES OR CONDITIONS OF ANY KIND, either express or implied.
  21:Drivers/CMSIS/Include/cmsis_gcc.h ****  * See the License for the specific language governing permissions and
  22:Drivers/CMSIS/Include/cmsis_gcc.h ****  * limitations under the License.
  23:Drivers/CMSIS/Include/cmsis_gcc.h ****  */
  24:Drivers/CMSIS/Include/cmsis_gcc.h **** 
  25:Drivers/CMSIS/Include/cmsis_gcc.h **** #ifndef __CMSIS_GCC_H
  26:Drivers/CMSIS/Include/cmsis_gcc.h **** #define __CMSIS_GCC_H
  27:Drivers/CMSIS/Include/cmsis_gcc.h **** 
  28:Drivers/CMSIS/Include/cmsis_gcc.h **** /* ignore some GCC warnings */
  29:Drivers/CMSIS/Include/cmsis_gcc.h **** #pragma GCC diagnostic push
  30:Drivers/CMSIS/Include/cmsis_gcc.h **** #pragma GCC diagnostic ignored "-Wsign-conversion"
  31:Drivers/CMSIS/Include/cmsis_gcc.h **** #pragma GCC diagnostic ignored "-Wconversion"
  32:Drivers/CMSIS/Include/cmsis_gcc.h **** #pragma GCC diagnostic ignored "-Wunused-parameter"
  33:Drivers/CMSIS/Include/cmsis_gcc.h **** 
  34:Drivers/CMSIS/Include/cmsis_gcc.h **** /* Fallback for __has_builtin */
  35:Drivers/CMSIS/Include/cmsis_gcc.h **** #ifndef __has_builtin
  36:Drivers/CMSIS/Include/cmsis_gcc.h ****   #define __has_builtin(x) (0)
  37:Drivers/CMSIS/Include/cmsis_gcc.h **** #endif
  38:Drivers/CMSIS/Include/cmsis_gcc.h **** 
  39:Drivers/CMSIS/Include/cmsis_gcc.h **** /* CMSIS compiler specific defines */
  40:Drivers/CMSIS/Include/cmsis_gcc.h **** #ifndef   __ASM
  41:Drivers/CMSIS/Include/cmsis_gcc.h ****   #define __ASM                                  __asm
  42:Drivers/CMSIS/Include/cmsis_gcc.h **** #endif
  43:Drivers/CMSIS/Include/cmsis_gcc.h **** #ifndef   __INLINE
  44:Drivers/CMSIS/Include/cmsis_gcc.h ****   #define __INLINE                               inline
  45:Drivers/CMSIS/Include/cmsis_gcc.h **** #endif
  46:Drivers/CMSIS/Include/cmsis_gcc.h **** #ifndef   __STATIC_INLINE
ARM GAS  /var/folders/kr/g9ry2bg56g773797gdtkvvkw0000gn/T//cc5EoDJi.s 			page 33


  47:Drivers/CMSIS/Include/cmsis_gcc.h ****   #define __STATIC_INLINE                        static inline
  48:Drivers/CMSIS/Include/cmsis_gcc.h **** #endif
  49:Drivers/CMSIS/Include/cmsis_gcc.h **** #ifndef   __STATIC_FORCEINLINE                 
  50:Drivers/CMSIS/Include/cmsis_gcc.h ****   #define __STATIC_FORCEINLINE                   __attribute__((always_inline)) static inline
  51:Drivers/CMSIS/Include/cmsis_gcc.h **** #endif                                           
  52:Drivers/CMSIS/Include/cmsis_gcc.h **** #ifndef   __NO_RETURN
  53:Drivers/CMSIS/Include/cmsis_gcc.h ****   #define __NO_RETURN                            __attribute__((__noreturn__))
  54:Drivers/CMSIS/Include/cmsis_gcc.h **** #endif
  55:Drivers/CMSIS/Include/cmsis_gcc.h **** #ifndef   __USED
  56:Drivers/CMSIS/Include/cmsis_gcc.h ****   #define __USED                                 __attribute__((used))
  57:Drivers/CMSIS/Include/cmsis_gcc.h **** #endif
  58:Drivers/CMSIS/Include/cmsis_gcc.h **** #ifndef   __WEAK
  59:Drivers/CMSIS/Include/cmsis_gcc.h ****   #define __WEAK                                 __attribute__((weak))
  60:Drivers/CMSIS/Include/cmsis_gcc.h **** #endif
  61:Drivers/CMSIS/Include/cmsis_gcc.h **** #ifndef   __PACKED
  62:Drivers/CMSIS/Include/cmsis_gcc.h ****   #define __PACKED                               __attribute__((packed, aligned(1)))
  63:Drivers/CMSIS/Include/cmsis_gcc.h **** #endif
  64:Drivers/CMSIS/Include/cmsis_gcc.h **** #ifndef   __PACKED_STRUCT
  65:Drivers/CMSIS/Include/cmsis_gcc.h ****   #define __PACKED_STRUCT                        struct __attribute__((packed, aligned(1)))
  66:Drivers/CMSIS/Include/cmsis_gcc.h **** #endif
  67:Drivers/CMSIS/Include/cmsis_gcc.h **** #ifndef   __PACKED_UNION
  68:Drivers/CMSIS/Include/cmsis_gcc.h ****   #define __PACKED_UNION                         union __attribute__((packed, aligned(1)))
  69:Drivers/CMSIS/Include/cmsis_gcc.h **** #endif
  70:Drivers/CMSIS/Include/cmsis_gcc.h **** #ifndef   __UNALIGNED_UINT32        /* deprecated */
  71:Drivers/CMSIS/Include/cmsis_gcc.h ****   #pragma GCC diagnostic push
  72:Drivers/CMSIS/Include/cmsis_gcc.h ****   #pragma GCC diagnostic ignored "-Wpacked"
  73:Drivers/CMSIS/Include/cmsis_gcc.h ****   #pragma GCC diagnostic ignored "-Wattributes"
  74:Drivers/CMSIS/Include/cmsis_gcc.h ****   struct __attribute__((packed)) T_UINT32 { uint32_t v; };
  75:Drivers/CMSIS/Include/cmsis_gcc.h ****   #pragma GCC diagnostic pop
  76:Drivers/CMSIS/Include/cmsis_gcc.h ****   #define __UNALIGNED_UINT32(x)                  (((struct T_UINT32 *)(x))->v)
  77:Drivers/CMSIS/Include/cmsis_gcc.h **** #endif
  78:Drivers/CMSIS/Include/cmsis_gcc.h **** #ifndef   __UNALIGNED_UINT16_WRITE
  79:Drivers/CMSIS/Include/cmsis_gcc.h ****   #pragma GCC diagnostic push
  80:Drivers/CMSIS/Include/cmsis_gcc.h ****   #pragma GCC diagnostic ignored "-Wpacked"
  81:Drivers/CMSIS/Include/cmsis_gcc.h ****   #pragma GCC diagnostic ignored "-Wattributes"
  82:Drivers/CMSIS/Include/cmsis_gcc.h ****   __PACKED_STRUCT T_UINT16_WRITE { uint16_t v; };
  83:Drivers/CMSIS/Include/cmsis_gcc.h ****   #pragma GCC diagnostic pop
  84:Drivers/CMSIS/Include/cmsis_gcc.h ****   #define __UNALIGNED_UINT16_WRITE(addr, val)    (void)((((struct T_UINT16_WRITE *)(void *)(addr))-
  85:Drivers/CMSIS/Include/cmsis_gcc.h **** #endif
  86:Drivers/CMSIS/Include/cmsis_gcc.h **** #ifndef   __UNALIGNED_UINT16_READ
  87:Drivers/CMSIS/Include/cmsis_gcc.h ****   #pragma GCC diagnostic push
  88:Drivers/CMSIS/Include/cmsis_gcc.h ****   #pragma GCC diagnostic ignored "-Wpacked"
  89:Drivers/CMSIS/Include/cmsis_gcc.h ****   #pragma GCC diagnostic ignored "-Wattributes"
  90:Drivers/CMSIS/Include/cmsis_gcc.h ****   __PACKED_STRUCT T_UINT16_READ { uint16_t v; };
  91:Drivers/CMSIS/Include/cmsis_gcc.h ****   #pragma GCC diagnostic pop
  92:Drivers/CMSIS/Include/cmsis_gcc.h ****   #define __UNALIGNED_UINT16_READ(addr)          (((const struct T_UINT16_READ *)(const void *)(add
  93:Drivers/CMSIS/Include/cmsis_gcc.h **** #endif
  94:Drivers/CMSIS/Include/cmsis_gcc.h **** #ifndef   __UNALIGNED_UINT32_WRITE
  95:Drivers/CMSIS/Include/cmsis_gcc.h ****   #pragma GCC diagnostic push
  96:Drivers/CMSIS/Include/cmsis_gcc.h ****   #pragma GCC diagnostic ignored "-Wpacked"
  97:Drivers/CMSIS/Include/cmsis_gcc.h ****   #pragma GCC diagnostic ignored "-Wattributes"
  98:Drivers/CMSIS/Include/cmsis_gcc.h ****   __PACKED_STRUCT T_UINT32_WRITE { uint32_t v; };
  99:Drivers/CMSIS/Include/cmsis_gcc.h ****   #pragma GCC diagnostic pop
 100:Drivers/CMSIS/Include/cmsis_gcc.h ****   #define __UNALIGNED_UINT32_WRITE(addr, val)    (void)((((struct T_UINT32_WRITE *)(void *)(addr))-
 101:Drivers/CMSIS/Include/cmsis_gcc.h **** #endif
 102:Drivers/CMSIS/Include/cmsis_gcc.h **** #ifndef   __UNALIGNED_UINT32_READ
 103:Drivers/CMSIS/Include/cmsis_gcc.h ****   #pragma GCC diagnostic push
ARM GAS  /var/folders/kr/g9ry2bg56g773797gdtkvvkw0000gn/T//cc5EoDJi.s 			page 34


 104:Drivers/CMSIS/Include/cmsis_gcc.h ****   #pragma GCC diagnostic ignored "-Wpacked"
 105:Drivers/CMSIS/Include/cmsis_gcc.h ****   #pragma GCC diagnostic ignored "-Wattributes"
 106:Drivers/CMSIS/Include/cmsis_gcc.h ****   __PACKED_STRUCT T_UINT32_READ { uint32_t v; };
 107:Drivers/CMSIS/Include/cmsis_gcc.h ****   #pragma GCC diagnostic pop
 108:Drivers/CMSIS/Include/cmsis_gcc.h ****   #define __UNALIGNED_UINT32_READ(addr)          (((const struct T_UINT32_READ *)(const void *)(add
 109:Drivers/CMSIS/Include/cmsis_gcc.h **** #endif
 110:Drivers/CMSIS/Include/cmsis_gcc.h **** #ifndef   __ALIGNED
 111:Drivers/CMSIS/Include/cmsis_gcc.h ****   #define __ALIGNED(x)                           __attribute__((aligned(x)))
 112:Drivers/CMSIS/Include/cmsis_gcc.h **** #endif
 113:Drivers/CMSIS/Include/cmsis_gcc.h **** #ifndef   __RESTRICT
 114:Drivers/CMSIS/Include/cmsis_gcc.h ****   #define __RESTRICT                             __restrict
 115:Drivers/CMSIS/Include/cmsis_gcc.h **** #endif
 116:Drivers/CMSIS/Include/cmsis_gcc.h **** 
 117:Drivers/CMSIS/Include/cmsis_gcc.h **** 
 118:Drivers/CMSIS/Include/cmsis_gcc.h **** /* ###########################  Core Function Access  ########################### */
 119:Drivers/CMSIS/Include/cmsis_gcc.h **** /** \ingroup  CMSIS_Core_FunctionInterface
 120:Drivers/CMSIS/Include/cmsis_gcc.h ****     \defgroup CMSIS_Core_RegAccFunctions CMSIS Core Register Access Functions
 121:Drivers/CMSIS/Include/cmsis_gcc.h ****   @{
 122:Drivers/CMSIS/Include/cmsis_gcc.h ****  */
 123:Drivers/CMSIS/Include/cmsis_gcc.h **** 
 124:Drivers/CMSIS/Include/cmsis_gcc.h **** /**
 125:Drivers/CMSIS/Include/cmsis_gcc.h ****   \brief   Enable IRQ Interrupts
 126:Drivers/CMSIS/Include/cmsis_gcc.h ****   \details Enables IRQ interrupts by clearing the I-bit in the CPSR.
 127:Drivers/CMSIS/Include/cmsis_gcc.h ****            Can only be executed in Privileged modes.
 128:Drivers/CMSIS/Include/cmsis_gcc.h ****  */
 129:Drivers/CMSIS/Include/cmsis_gcc.h **** __STATIC_FORCEINLINE void __enable_irq(void)
 130:Drivers/CMSIS/Include/cmsis_gcc.h **** {
 131:Drivers/CMSIS/Include/cmsis_gcc.h ****   __ASM volatile ("cpsie i" : : : "memory");
 132:Drivers/CMSIS/Include/cmsis_gcc.h **** }
 133:Drivers/CMSIS/Include/cmsis_gcc.h **** 
 134:Drivers/CMSIS/Include/cmsis_gcc.h **** 
 135:Drivers/CMSIS/Include/cmsis_gcc.h **** /**
 136:Drivers/CMSIS/Include/cmsis_gcc.h ****   \brief   Disable IRQ Interrupts
 137:Drivers/CMSIS/Include/cmsis_gcc.h ****   \details Disables IRQ interrupts by setting the I-bit in the CPSR.
 138:Drivers/CMSIS/Include/cmsis_gcc.h ****            Can only be executed in Privileged modes.
 139:Drivers/CMSIS/Include/cmsis_gcc.h ****  */
 140:Drivers/CMSIS/Include/cmsis_gcc.h **** __STATIC_FORCEINLINE void __disable_irq(void)
 954              		.loc 2 140 27 view .LVU284
 955              	.LBB12:
 141:Drivers/CMSIS/Include/cmsis_gcc.h **** {
 142:Drivers/CMSIS/Include/cmsis_gcc.h ****   __ASM volatile ("cpsid i" : : : "memory");
 956              		.loc 2 142 3 view .LVU285
 957              		.syntax divided
 958              	@ 142 "Drivers/CMSIS/Include/cmsis_gcc.h" 1
 959 0000 72B6     		cpsid i
 960              	@ 0 "" 2
 961              		.thumb
 962              		.syntax unified
 963              	.L46:
 964              	.LBE12:
 965              	.LBE11:
 664:Core/Src/main.c ****   while (1)
 966              		.loc 1 664 3 view .LVU286
 665:Core/Src/main.c ****   {
 666:Core/Src/main.c ****   }
 967              		.loc 1 666 3 view .LVU287
 664:Core/Src/main.c ****   while (1)
ARM GAS  /var/folders/kr/g9ry2bg56g773797gdtkvvkw0000gn/T//cc5EoDJi.s 			page 35


 968              		.loc 1 664 9 view .LVU288
 969 0002 FEE7     		b	.L46
 970              		.cfi_endproc
 971              	.LFE54:
 973              		.section	.text.MX_I2C2_Init,"ax",%progbits
 974              		.align	1
 975              		.syntax unified
 976              		.code	16
 977              		.thumb_func
 979              	MX_I2C2_Init:
 980              	.LFB45:
 245:Core/Src/main.c **** 
 981              		.loc 1 245 1 view -0
 982              		.cfi_startproc
 983              		@ args = 0, pretend = 0, frame = 0
 984              		@ frame_needed = 0, uses_anonymous_args = 0
 985 0000 10B5     		push	{r4, lr}
 986              	.LCFI6:
 987              		.cfi_def_cfa_offset 8
 988              		.cfi_offset 4, -8
 989              		.cfi_offset 14, -4
 254:Core/Src/main.c ****   hi2c2.Init.Timing = 0x20303E5D;
 990              		.loc 1 254 3 view .LVU290
 254:Core/Src/main.c ****   hi2c2.Init.Timing = 0x20303E5D;
 991              		.loc 1 254 18 is_stmt 0 view .LVU291
 992 0002 1248     		ldr	r0, .L54
 993 0004 124B     		ldr	r3, .L54+4
 994 0006 0360     		str	r3, [r0]
 255:Core/Src/main.c ****   hi2c2.Init.OwnAddress1 = 0;
 995              		.loc 1 255 3 is_stmt 1 view .LVU292
 255:Core/Src/main.c ****   hi2c2.Init.OwnAddress1 = 0;
 996              		.loc 1 255 21 is_stmt 0 view .LVU293
 997 0008 124B     		ldr	r3, .L54+8
 998 000a 4360     		str	r3, [r0, #4]
 256:Core/Src/main.c ****   hi2c2.Init.AddressingMode = I2C_ADDRESSINGMODE_7BIT;
 999              		.loc 1 256 3 is_stmt 1 view .LVU294
 256:Core/Src/main.c ****   hi2c2.Init.AddressingMode = I2C_ADDRESSINGMODE_7BIT;
 1000              		.loc 1 256 26 is_stmt 0 view .LVU295
 1001 000c 0023     		movs	r3, #0
 1002 000e 8360     		str	r3, [r0, #8]
 257:Core/Src/main.c ****   hi2c2.Init.DualAddressMode = I2C_DUALADDRESS_DISABLE;
 1003              		.loc 1 257 3 is_stmt 1 view .LVU296
 257:Core/Src/main.c ****   hi2c2.Init.DualAddressMode = I2C_DUALADDRESS_DISABLE;
 1004              		.loc 1 257 29 is_stmt 0 view .LVU297
 1005 0010 0122     		movs	r2, #1
 1006 0012 C260     		str	r2, [r0, #12]
 258:Core/Src/main.c ****   hi2c2.Init.OwnAddress2 = 0;
 1007              		.loc 1 258 3 is_stmt 1 view .LVU298
 258:Core/Src/main.c ****   hi2c2.Init.OwnAddress2 = 0;
 1008              		.loc 1 258 30 is_stmt 0 view .LVU299
 1009 0014 0361     		str	r3, [r0, #16]
 259:Core/Src/main.c ****   hi2c2.Init.OwnAddress2Masks = I2C_OA2_NOMASK;
 1010              		.loc 1 259 3 is_stmt 1 view .LVU300
 259:Core/Src/main.c ****   hi2c2.Init.OwnAddress2Masks = I2C_OA2_NOMASK;
 1011              		.loc 1 259 26 is_stmt 0 view .LVU301
 1012 0016 4361     		str	r3, [r0, #20]
 260:Core/Src/main.c ****   hi2c2.Init.GeneralCallMode = I2C_GENERALCALL_DISABLE;
ARM GAS  /var/folders/kr/g9ry2bg56g773797gdtkvvkw0000gn/T//cc5EoDJi.s 			page 36


 1013              		.loc 1 260 3 is_stmt 1 view .LVU302
 260:Core/Src/main.c ****   hi2c2.Init.GeneralCallMode = I2C_GENERALCALL_DISABLE;
 1014              		.loc 1 260 31 is_stmt 0 view .LVU303
 1015 0018 8361     		str	r3, [r0, #24]
 261:Core/Src/main.c ****   hi2c2.Init.NoStretchMode = I2C_NOSTRETCH_DISABLE;
 1016              		.loc 1 261 3 is_stmt 1 view .LVU304
 261:Core/Src/main.c ****   hi2c2.Init.NoStretchMode = I2C_NOSTRETCH_DISABLE;
 1017              		.loc 1 261 30 is_stmt 0 view .LVU305
 1018 001a C361     		str	r3, [r0, #28]
 262:Core/Src/main.c ****   if (HAL_I2C_Init(&hi2c2) != HAL_OK)
 1019              		.loc 1 262 3 is_stmt 1 view .LVU306
 262:Core/Src/main.c ****   if (HAL_I2C_Init(&hi2c2) != HAL_OK)
 1020              		.loc 1 262 28 is_stmt 0 view .LVU307
 1021 001c 0362     		str	r3, [r0, #32]
 263:Core/Src/main.c ****   {
 1022              		.loc 1 263 3 is_stmt 1 view .LVU308
 263:Core/Src/main.c ****   {
 1023              		.loc 1 263 7 is_stmt 0 view .LVU309
 1024 001e FFF7FEFF 		bl	HAL_I2C_Init
 1025              	.LVL27:
 263:Core/Src/main.c ****   {
 1026              		.loc 1 263 6 discriminator 1 view .LVU310
 1027 0022 0028     		cmp	r0, #0
 1028 0024 0CD1     		bne	.L51
 270:Core/Src/main.c ****   {
 1029              		.loc 1 270 3 is_stmt 1 view .LVU311
 270:Core/Src/main.c ****   {
 1030              		.loc 1 270 7 is_stmt 0 view .LVU312
 1031 0026 0948     		ldr	r0, .L54
 1032 0028 0021     		movs	r1, #0
 1033 002a FFF7FEFF 		bl	HAL_I2CEx_ConfigAnalogFilter
 1034              	.LVL28:
 270:Core/Src/main.c ****   {
 1035              		.loc 1 270 6 discriminator 1 view .LVU313
 1036 002e 0028     		cmp	r0, #0
 1037 0030 08D1     		bne	.L52
 277:Core/Src/main.c ****   {
 1038              		.loc 1 277 3 is_stmt 1 view .LVU314
 277:Core/Src/main.c ****   {
 1039              		.loc 1 277 7 is_stmt 0 view .LVU315
 1040 0032 0648     		ldr	r0, .L54
 1041 0034 0021     		movs	r1, #0
 1042 0036 FFF7FEFF 		bl	HAL_I2CEx_ConfigDigitalFilter
 1043              	.LVL29:
 277:Core/Src/main.c ****   {
 1044              		.loc 1 277 6 discriminator 1 view .LVU316
 1045 003a 0028     		cmp	r0, #0
 1046 003c 04D1     		bne	.L53
 285:Core/Src/main.c **** 
 1047              		.loc 1 285 1 view .LVU317
 1048              		@ sp needed
 1049 003e 10BD     		pop	{r4, pc}
 1050              	.L51:
 265:Core/Src/main.c ****   }
 1051              		.loc 1 265 5 is_stmt 1 view .LVU318
 1052 0040 FFF7FEFF 		bl	Error_Handler
 1053              	.LVL30:
ARM GAS  /var/folders/kr/g9ry2bg56g773797gdtkvvkw0000gn/T//cc5EoDJi.s 			page 37


 1054              	.L52:
 272:Core/Src/main.c ****   }
 1055              		.loc 1 272 5 view .LVU319
 1056 0044 FFF7FEFF 		bl	Error_Handler
 1057              	.LVL31:
 1058              	.L53:
 279:Core/Src/main.c ****   }
 1059              		.loc 1 279 5 view .LVU320
 1060 0048 FFF7FEFF 		bl	Error_Handler
 1061              	.LVL32:
 1062              	.L55:
 1063              		.align	2
 1064              	.L54:
 1065 004c 00000000 		.word	hi2c2
 1066 0050 00580040 		.word	1073764352
 1067 0054 5D3E3020 		.word	540032605
 1068              		.cfi_endproc
 1069              	.LFE45:
 1071              		.section	.text.MX_SPI2_Init,"ax",%progbits
 1072              		.align	1
 1073              		.syntax unified
 1074              		.code	16
 1075              		.thumb_func
 1077              	MX_SPI2_Init:
 1078              	.LFB46:
 293:Core/Src/main.c **** 
 1079              		.loc 1 293 1 view -0
 1080              		.cfi_startproc
 1081              		@ args = 0, pretend = 0, frame = 0
 1082              		@ frame_needed = 0, uses_anonymous_args = 0
 1083 0000 10B5     		push	{r4, lr}
 1084              	.LCFI7:
 1085              		.cfi_def_cfa_offset 8
 1086              		.cfi_offset 4, -8
 1087              		.cfi_offset 14, -4
 303:Core/Src/main.c ****   hspi2.Init.Mode = SPI_MODE_MASTER;
 1088              		.loc 1 303 3 view .LVU322
 303:Core/Src/main.c ****   hspi2.Init.Mode = SPI_MODE_MASTER;
 1089              		.loc 1 303 18 is_stmt 0 view .LVU323
 1090 0002 1048     		ldr	r0, .L59
 1091 0004 104B     		ldr	r3, .L59+4
 1092 0006 0360     		str	r3, [r0]
 304:Core/Src/main.c ****   hspi2.Init.Direction = SPI_DIRECTION_2LINES;
 1093              		.loc 1 304 3 is_stmt 1 view .LVU324
 304:Core/Src/main.c ****   hspi2.Init.Direction = SPI_DIRECTION_2LINES;
 1094              		.loc 1 304 19 is_stmt 0 view .LVU325
 1095 0008 8223     		movs	r3, #130
 1096 000a 5B00     		lsls	r3, r3, #1
 1097 000c 4360     		str	r3, [r0, #4]
 305:Core/Src/main.c ****   hspi2.Init.DataSize = SPI_DATASIZE_4BIT;
 1098              		.loc 1 305 3 is_stmt 1 view .LVU326
 305:Core/Src/main.c ****   hspi2.Init.DataSize = SPI_DATASIZE_4BIT;
 1099              		.loc 1 305 24 is_stmt 0 view .LVU327
 1100 000e 0023     		movs	r3, #0
 1101 0010 8360     		str	r3, [r0, #8]
 306:Core/Src/main.c ****   hspi2.Init.CLKPolarity = SPI_POLARITY_LOW;
 1102              		.loc 1 306 3 is_stmt 1 view .LVU328
ARM GAS  /var/folders/kr/g9ry2bg56g773797gdtkvvkw0000gn/T//cc5EoDJi.s 			page 38


 306:Core/Src/main.c ****   hspi2.Init.CLKPolarity = SPI_POLARITY_LOW;
 1103              		.loc 1 306 23 is_stmt 0 view .LVU329
 1104 0012 C022     		movs	r2, #192
 1105 0014 9200     		lsls	r2, r2, #2
 1106 0016 C260     		str	r2, [r0, #12]
 307:Core/Src/main.c ****   hspi2.Init.CLKPhase = SPI_PHASE_1EDGE;
 1107              		.loc 1 307 3 is_stmt 1 view .LVU330
 307:Core/Src/main.c ****   hspi2.Init.CLKPhase = SPI_PHASE_1EDGE;
 1108              		.loc 1 307 26 is_stmt 0 view .LVU331
 1109 0018 0361     		str	r3, [r0, #16]
 308:Core/Src/main.c ****   hspi2.Init.NSS = SPI_NSS_SOFT;
 1110              		.loc 1 308 3 is_stmt 1 view .LVU332
 308:Core/Src/main.c ****   hspi2.Init.NSS = SPI_NSS_SOFT;
 1111              		.loc 1 308 23 is_stmt 0 view .LVU333
 1112 001a 4361     		str	r3, [r0, #20]
 309:Core/Src/main.c ****   hspi2.Init.BaudRatePrescaler = SPI_BAUDRATEPRESCALER_4;
 1113              		.loc 1 309 3 is_stmt 1 view .LVU334
 309:Core/Src/main.c ****   hspi2.Init.BaudRatePrescaler = SPI_BAUDRATEPRESCALER_4;
 1114              		.loc 1 309 18 is_stmt 0 view .LVU335
 1115 001c 013A     		subs	r2, r2, #1
 1116 001e FF3A     		subs	r2, r2, #255
 1117 0020 8261     		str	r2, [r0, #24]
 310:Core/Src/main.c ****   hspi2.Init.FirstBit = SPI_FIRSTBIT_MSB;
 1118              		.loc 1 310 3 is_stmt 1 view .LVU336
 310:Core/Src/main.c ****   hspi2.Init.FirstBit = SPI_FIRSTBIT_MSB;
 1119              		.loc 1 310 32 is_stmt 0 view .LVU337
 1120 0022 F93A     		subs	r2, r2, #249
 1121 0024 FF3A     		subs	r2, r2, #255
 1122 0026 C261     		str	r2, [r0, #28]
 311:Core/Src/main.c ****   hspi2.Init.TIMode = SPI_TIMODE_DISABLE;
 1123              		.loc 1 311 3 is_stmt 1 view .LVU338
 311:Core/Src/main.c ****   hspi2.Init.TIMode = SPI_TIMODE_DISABLE;
 1124              		.loc 1 311 23 is_stmt 0 view .LVU339
 1125 0028 0362     		str	r3, [r0, #32]
 312:Core/Src/main.c ****   hspi2.Init.CRCCalculation = SPI_CRCCALCULATION_DISABLE;
 1126              		.loc 1 312 3 is_stmt 1 view .LVU340
 312:Core/Src/main.c ****   hspi2.Init.CRCCalculation = SPI_CRCCALCULATION_DISABLE;
 1127              		.loc 1 312 21 is_stmt 0 view .LVU341
 1128 002a 4362     		str	r3, [r0, #36]
 313:Core/Src/main.c ****   hspi2.Init.CRCPolynomial = 7;
 1129              		.loc 1 313 3 is_stmt 1 view .LVU342
 313:Core/Src/main.c ****   hspi2.Init.CRCPolynomial = 7;
 1130              		.loc 1 313 29 is_stmt 0 view .LVU343
 1131 002c 8362     		str	r3, [r0, #40]
 314:Core/Src/main.c ****   hspi2.Init.CRCLength = SPI_CRC_LENGTH_DATASIZE;
 1132              		.loc 1 314 3 is_stmt 1 view .LVU344
 314:Core/Src/main.c ****   hspi2.Init.CRCLength = SPI_CRC_LENGTH_DATASIZE;
 1133              		.loc 1 314 28 is_stmt 0 view .LVU345
 1134 002e 0721     		movs	r1, #7
 1135 0030 C162     		str	r1, [r0, #44]
 315:Core/Src/main.c ****   hspi2.Init.NSSPMode = SPI_NSS_PULSE_ENABLE;
 1136              		.loc 1 315 3 is_stmt 1 view .LVU346
 315:Core/Src/main.c ****   hspi2.Init.NSSPMode = SPI_NSS_PULSE_ENABLE;
 1137              		.loc 1 315 24 is_stmt 0 view .LVU347
 1138 0032 0363     		str	r3, [r0, #48]
 316:Core/Src/main.c ****   if (HAL_SPI_Init(&hspi2) != HAL_OK)
 1139              		.loc 1 316 3 is_stmt 1 view .LVU348
ARM GAS  /var/folders/kr/g9ry2bg56g773797gdtkvvkw0000gn/T//cc5EoDJi.s 			page 39


 316:Core/Src/main.c ****   if (HAL_SPI_Init(&hspi2) != HAL_OK)
 1140              		.loc 1 316 23 is_stmt 0 view .LVU349
 1141 0034 4263     		str	r2, [r0, #52]
 317:Core/Src/main.c ****   {
 1142              		.loc 1 317 3 is_stmt 1 view .LVU350
 317:Core/Src/main.c ****   {
 1143              		.loc 1 317 7 is_stmt 0 view .LVU351
 1144 0036 FFF7FEFF 		bl	HAL_SPI_Init
 1145              	.LVL33:
 317:Core/Src/main.c ****   {
 1146              		.loc 1 317 6 discriminator 1 view .LVU352
 1147 003a 0028     		cmp	r0, #0
 1148 003c 00D1     		bne	.L58
 325:Core/Src/main.c **** 
 1149              		.loc 1 325 1 view .LVU353
 1150              		@ sp needed
 1151 003e 10BD     		pop	{r4, pc}
 1152              	.L58:
 319:Core/Src/main.c ****   }
 1153              		.loc 1 319 5 is_stmt 1 view .LVU354
 1154 0040 FFF7FEFF 		bl	Error_Handler
 1155              	.LVL34:
 1156              	.L60:
 1157              		.align	2
 1158              	.L59:
 1159 0044 00000000 		.word	hspi2
 1160 0048 00380040 		.word	1073756160
 1161              		.cfi_endproc
 1162              	.LFE46:
 1164              		.section	.text.MX_TSC_Init,"ax",%progbits
 1165              		.align	1
 1166              		.syntax unified
 1167              		.code	16
 1168              		.thumb_func
 1170              	MX_TSC_Init:
 1171              	.LFB47:
 333:Core/Src/main.c **** 
 1172              		.loc 1 333 1 view -0
 1173              		.cfi_startproc
 1174              		@ args = 0, pretend = 0, frame = 0
 1175              		@ frame_needed = 0, uses_anonymous_args = 0
 1176 0000 10B5     		push	{r4, lr}
 1177              	.LCFI8:
 1178              		.cfi_def_cfa_offset 8
 1179              		.cfi_offset 4, -8
 1180              		.cfi_offset 14, -4
 345:Core/Src/main.c ****   htsc.Init.CTPulseHighLength = TSC_CTPH_2CYCLES;
 1181              		.loc 1 345 3 view .LVU356
 345:Core/Src/main.c ****   htsc.Init.CTPulseHighLength = TSC_CTPH_2CYCLES;
 1182              		.loc 1 345 17 is_stmt 0 view .LVU357
 1183 0002 1348     		ldr	r0, .L64
 1184 0004 134B     		ldr	r3, .L64+4
 1185 0006 0360     		str	r3, [r0]
 346:Core/Src/main.c ****   htsc.Init.CTPulseLowLength = TSC_CTPL_2CYCLES;
 1186              		.loc 1 346 3 is_stmt 1 view .LVU358
 346:Core/Src/main.c ****   htsc.Init.CTPulseLowLength = TSC_CTPL_2CYCLES;
 1187              		.loc 1 346 31 is_stmt 0 view .LVU359
ARM GAS  /var/folders/kr/g9ry2bg56g773797gdtkvvkw0000gn/T//cc5EoDJi.s 			page 40


 1188 0008 8023     		movs	r3, #128
 1189 000a 5B05     		lsls	r3, r3, #21
 1190 000c 4360     		str	r3, [r0, #4]
 347:Core/Src/main.c ****   htsc.Init.SpreadSpectrum = DISABLE;
 1191              		.loc 1 347 3 is_stmt 1 view .LVU360
 347:Core/Src/main.c ****   htsc.Init.SpreadSpectrum = DISABLE;
 1192              		.loc 1 347 30 is_stmt 0 view .LVU361
 1193 000e 8023     		movs	r3, #128
 1194 0010 5B04     		lsls	r3, r3, #17
 1195 0012 8360     		str	r3, [r0, #8]
 348:Core/Src/main.c ****   htsc.Init.SpreadSpectrumDeviation = 1;
 1196              		.loc 1 348 3 is_stmt 1 view .LVU362
 348:Core/Src/main.c ****   htsc.Init.SpreadSpectrumDeviation = 1;
 1197              		.loc 1 348 28 is_stmt 0 view .LVU363
 1198 0014 0023     		movs	r3, #0
 1199 0016 0373     		strb	r3, [r0, #12]
 349:Core/Src/main.c ****   htsc.Init.SpreadSpectrumPrescaler = TSC_SS_PRESC_DIV1;
 1200              		.loc 1 349 3 is_stmt 1 view .LVU364
 349:Core/Src/main.c ****   htsc.Init.SpreadSpectrumPrescaler = TSC_SS_PRESC_DIV1;
 1201              		.loc 1 349 37 is_stmt 0 view .LVU365
 1202 0018 0122     		movs	r2, #1
 1203 001a 0261     		str	r2, [r0, #16]
 350:Core/Src/main.c ****   htsc.Init.PulseGeneratorPrescaler = TSC_PG_PRESC_DIV4;
 1204              		.loc 1 350 3 is_stmt 1 view .LVU366
 350:Core/Src/main.c ****   htsc.Init.PulseGeneratorPrescaler = TSC_PG_PRESC_DIV4;
 1205              		.loc 1 350 37 is_stmt 0 view .LVU367
 1206 001c 4361     		str	r3, [r0, #20]
 351:Core/Src/main.c ****   htsc.Init.MaxCountValue = TSC_MCV_8191;
 1207              		.loc 1 351 3 is_stmt 1 view .LVU368
 351:Core/Src/main.c ****   htsc.Init.MaxCountValue = TSC_MCV_8191;
 1208              		.loc 1 351 37 is_stmt 0 view .LVU369
 1209 001e 8022     		movs	r2, #128
 1210 0020 9201     		lsls	r2, r2, #6
 1211 0022 8261     		str	r2, [r0, #24]
 352:Core/Src/main.c ****   htsc.Init.IODefaultMode = TSC_IODEF_OUT_PP_LOW;
 1212              		.loc 1 352 3 is_stmt 1 view .LVU370
 352:Core/Src/main.c ****   htsc.Init.IODefaultMode = TSC_IODEF_OUT_PP_LOW;
 1213              		.loc 1 352 27 is_stmt 0 view .LVU371
 1214 0024 A022     		movs	r2, #160
 1215 0026 C261     		str	r2, [r0, #28]
 353:Core/Src/main.c ****   htsc.Init.SynchroPinPolarity = TSC_SYNC_POLARITY_FALLING;
 1216              		.loc 1 353 3 is_stmt 1 view .LVU372
 353:Core/Src/main.c ****   htsc.Init.SynchroPinPolarity = TSC_SYNC_POLARITY_FALLING;
 1217              		.loc 1 353 27 is_stmt 0 view .LVU373
 1218 0028 0362     		str	r3, [r0, #32]
 354:Core/Src/main.c ****   htsc.Init.AcquisitionMode = TSC_ACQ_MODE_NORMAL;
 1219              		.loc 1 354 3 is_stmt 1 view .LVU374
 354:Core/Src/main.c ****   htsc.Init.AcquisitionMode = TSC_ACQ_MODE_NORMAL;
 1220              		.loc 1 354 32 is_stmt 0 view .LVU375
 1221 002a 4362     		str	r3, [r0, #36]
 355:Core/Src/main.c ****   htsc.Init.MaxCountInterrupt = DISABLE;
 1222              		.loc 1 355 3 is_stmt 1 view .LVU376
 355:Core/Src/main.c ****   htsc.Init.MaxCountInterrupt = DISABLE;
 1223              		.loc 1 355 29 is_stmt 0 view .LVU377
 1224 002c 8362     		str	r3, [r0, #40]
 356:Core/Src/main.c ****   htsc.Init.ChannelIOs = TSC_GROUP1_IO3|TSC_GROUP2_IO3|TSC_GROUP3_IO2;
 1225              		.loc 1 356 3 is_stmt 1 view .LVU378
ARM GAS  /var/folders/kr/g9ry2bg56g773797gdtkvvkw0000gn/T//cc5EoDJi.s 			page 41


 356:Core/Src/main.c ****   htsc.Init.ChannelIOs = TSC_GROUP1_IO3|TSC_GROUP2_IO3|TSC_GROUP3_IO2;
 1226              		.loc 1 356 31 is_stmt 0 view .LVU379
 1227 002e 743A     		subs	r2, r2, #116
 1228 0030 8354     		strb	r3, [r0, r2]
 357:Core/Src/main.c ****   htsc.Init.ShieldIOs = 0;
 1229              		.loc 1 357 3 is_stmt 1 view .LVU380
 357:Core/Src/main.c ****   htsc.Init.ShieldIOs = 0;
 1230              		.loc 1 357 24 is_stmt 0 view .LVU381
 1231 0032 9122     		movs	r2, #145
 1232 0034 9200     		lsls	r2, r2, #2
 1233 0036 0263     		str	r2, [r0, #48]
 358:Core/Src/main.c ****   htsc.Init.SamplingIOs = TSC_GROUP1_IO4|TSC_GROUP2_IO4|TSC_GROUP3_IO3;
 1234              		.loc 1 358 3 is_stmt 1 view .LVU382
 358:Core/Src/main.c ****   htsc.Init.SamplingIOs = TSC_GROUP1_IO4|TSC_GROUP2_IO4|TSC_GROUP3_IO3;
 1235              		.loc 1 358 23 is_stmt 0 view .LVU383
 1236 0038 4363     		str	r3, [r0, #52]
 359:Core/Src/main.c ****   if (HAL_TSC_Init(&htsc) != HAL_OK)
 1237              		.loc 1 359 3 is_stmt 1 view .LVU384
 359:Core/Src/main.c ****   if (HAL_TSC_Init(&htsc) != HAL_OK)
 1238              		.loc 1 359 25 is_stmt 0 view .LVU385
 1239 003a 9123     		movs	r3, #145
 1240 003c DB00     		lsls	r3, r3, #3
 1241 003e 8363     		str	r3, [r0, #56]
 360:Core/Src/main.c ****   {
 1242              		.loc 1 360 3 is_stmt 1 view .LVU386
 360:Core/Src/main.c ****   {
 1243              		.loc 1 360 7 is_stmt 0 view .LVU387
 1244 0040 FFF7FEFF 		bl	HAL_TSC_Init
 1245              	.LVL35:
 360:Core/Src/main.c ****   {
 1246              		.loc 1 360 6 discriminator 1 view .LVU388
 1247 0044 0028     		cmp	r0, #0
 1248 0046 00D1     		bne	.L63
 368:Core/Src/main.c **** 
 1249              		.loc 1 368 1 view .LVU389
 1250              		@ sp needed
 1251 0048 10BD     		pop	{r4, pc}
 1252              	.L63:
 362:Core/Src/main.c ****   }
 1253              		.loc 1 362 5 is_stmt 1 view .LVU390
 1254 004a FFF7FEFF 		bl	Error_Handler
 1255              	.LVL36:
 1256              	.L65:
 1257 004e C046     		.align	2
 1258              	.L64:
 1259 0050 00000000 		.word	htsc
 1260 0054 00400240 		.word	1073889280
 1261              		.cfi_endproc
 1262              	.LFE47:
 1264              		.section	.text.MX_USB_PCD_Init,"ax",%progbits
 1265              		.align	1
 1266              		.syntax unified
 1267              		.code	16
 1268              		.thumb_func
 1270              	MX_USB_PCD_Init:
 1271              	.LFB48:
 376:Core/Src/main.c **** 
ARM GAS  /var/folders/kr/g9ry2bg56g773797gdtkvvkw0000gn/T//cc5EoDJi.s 			page 42


 1272              		.loc 1 376 1 view -0
 1273              		.cfi_startproc
 1274              		@ args = 0, pretend = 0, frame = 0
 1275              		@ frame_needed = 0, uses_anonymous_args = 0
 1276 0000 10B5     		push	{r4, lr}
 1277              	.LCFI9:
 1278              		.cfi_def_cfa_offset 8
 1279              		.cfi_offset 4, -8
 1280              		.cfi_offset 14, -4
 385:Core/Src/main.c ****   hpcd_USB_FS.Init.dev_endpoints = 8;
 1281              		.loc 1 385 3 view .LVU392
 385:Core/Src/main.c ****   hpcd_USB_FS.Init.dev_endpoints = 8;
 1282              		.loc 1 385 24 is_stmt 0 view .LVU393
 1283 0002 0948     		ldr	r0, .L69
 1284 0004 094B     		ldr	r3, .L69+4
 1285 0006 0360     		str	r3, [r0]
 386:Core/Src/main.c ****   hpcd_USB_FS.Init.speed = PCD_SPEED_FULL;
 1286              		.loc 1 386 3 is_stmt 1 view .LVU394
 386:Core/Src/main.c ****   hpcd_USB_FS.Init.speed = PCD_SPEED_FULL;
 1287              		.loc 1 386 34 is_stmt 0 view .LVU395
 1288 0008 0823     		movs	r3, #8
 1289 000a 4360     		str	r3, [r0, #4]
 387:Core/Src/main.c ****   hpcd_USB_FS.Init.phy_itface = PCD_PHY_EMBEDDED;
 1290              		.loc 1 387 3 is_stmt 1 view .LVU396
 387:Core/Src/main.c ****   hpcd_USB_FS.Init.phy_itface = PCD_PHY_EMBEDDED;
 1291              		.loc 1 387 26 is_stmt 0 view .LVU397
 1292 000c 063B     		subs	r3, r3, #6
 1293 000e 8360     		str	r3, [r0, #8]
 388:Core/Src/main.c ****   hpcd_USB_FS.Init.low_power_enable = DISABLE;
 1294              		.loc 1 388 3 is_stmt 1 view .LVU398
 388:Core/Src/main.c ****   hpcd_USB_FS.Init.low_power_enable = DISABLE;
 1295              		.loc 1 388 31 is_stmt 0 view .LVU399
 1296 0010 0361     		str	r3, [r0, #16]
 389:Core/Src/main.c ****   hpcd_USB_FS.Init.lpm_enable = DISABLE;
 1297              		.loc 1 389 3 is_stmt 1 view .LVU400
 389:Core/Src/main.c ****   hpcd_USB_FS.Init.lpm_enable = DISABLE;
 1298              		.loc 1 389 37 is_stmt 0 view .LVU401
 1299 0012 0023     		movs	r3, #0
 1300 0014 8361     		str	r3, [r0, #24]
 390:Core/Src/main.c ****   hpcd_USB_FS.Init.battery_charging_enable = DISABLE;
 1301              		.loc 1 390 3 is_stmt 1 view .LVU402
 390:Core/Src/main.c ****   hpcd_USB_FS.Init.battery_charging_enable = DISABLE;
 1302              		.loc 1 390 31 is_stmt 0 view .LVU403
 1303 0016 C361     		str	r3, [r0, #28]
 391:Core/Src/main.c ****   if (HAL_PCD_Init(&hpcd_USB_FS) != HAL_OK)
 1304              		.loc 1 391 3 is_stmt 1 view .LVU404
 391:Core/Src/main.c ****   if (HAL_PCD_Init(&hpcd_USB_FS) != HAL_OK)
 1305              		.loc 1 391 44 is_stmt 0 view .LVU405
 1306 0018 0362     		str	r3, [r0, #32]
 392:Core/Src/main.c ****   {
 1307              		.loc 1 392 3 is_stmt 1 view .LVU406
 392:Core/Src/main.c ****   {
 1308              		.loc 1 392 7 is_stmt 0 view .LVU407
 1309 001a FFF7FEFF 		bl	HAL_PCD_Init
 1310              	.LVL37:
 392:Core/Src/main.c ****   {
 1311              		.loc 1 392 6 discriminator 1 view .LVU408
ARM GAS  /var/folders/kr/g9ry2bg56g773797gdtkvvkw0000gn/T//cc5EoDJi.s 			page 43


 1312 001e 0028     		cmp	r0, #0
 1313 0020 00D1     		bne	.L68
 400:Core/Src/main.c **** 
 1314              		.loc 1 400 1 view .LVU409
 1315              		@ sp needed
 1316 0022 10BD     		pop	{r4, pc}
 1317              	.L68:
 394:Core/Src/main.c ****   }
 1318              		.loc 1 394 5 is_stmt 1 view .LVU410
 1319 0024 FFF7FEFF 		bl	Error_Handler
 1320              	.LVL38:
 1321              	.L70:
 1322              		.align	2
 1323              	.L69:
 1324 0028 00000000 		.word	hpcd_USB_FS
 1325 002c 005C0040 		.word	1073765376
 1326              		.cfi_endproc
 1327              	.LFE48:
 1329              		.section	.text.SystemClock_Config,"ax",%progbits
 1330              		.align	1
 1331              		.global	SystemClock_Config
 1332              		.syntax unified
 1333              		.code	16
 1334              		.thumb_func
 1336              	SystemClock_Config:
 1337              	.LFB44:
 197:Core/Src/main.c ****   RCC_OscInitTypeDef RCC_OscInitStruct = {0};
 1338              		.loc 1 197 1 view -0
 1339              		.cfi_startproc
 1340              		@ args = 0, pretend = 0, frame = 96
 1341              		@ frame_needed = 0, uses_anonymous_args = 0
 1342 0000 00B5     		push	{lr}
 1343              	.LCFI10:
 1344              		.cfi_def_cfa_offset 4
 1345              		.cfi_offset 14, -4
 1346 0002 99B0     		sub	sp, sp, #100
 1347              	.LCFI11:
 1348              		.cfi_def_cfa_offset 104
 198:Core/Src/main.c ****   RCC_ClkInitTypeDef RCC_ClkInitStruct = {0};
 1349              		.loc 1 198 3 view .LVU412
 198:Core/Src/main.c ****   RCC_ClkInitTypeDef RCC_ClkInitStruct = {0};
 1350              		.loc 1 198 22 is_stmt 0 view .LVU413
 1351 0004 3422     		movs	r2, #52
 1352 0006 0021     		movs	r1, #0
 1353 0008 0BA8     		add	r0, sp, #44
 1354 000a FFF7FEFF 		bl	memset
 1355              	.LVL39:
 199:Core/Src/main.c ****   RCC_PeriphCLKInitTypeDef PeriphClkInit = {0};
 1356              		.loc 1 199 3 is_stmt 1 view .LVU414
 199:Core/Src/main.c ****   RCC_PeriphCLKInitTypeDef PeriphClkInit = {0};
 1357              		.loc 1 199 22 is_stmt 0 view .LVU415
 1358 000e 1022     		movs	r2, #16
 1359 0010 0021     		movs	r1, #0
 1360 0012 07A8     		add	r0, sp, #28
 1361 0014 FFF7FEFF 		bl	memset
 1362              	.LVL40:
 200:Core/Src/main.c **** 
ARM GAS  /var/folders/kr/g9ry2bg56g773797gdtkvvkw0000gn/T//cc5EoDJi.s 			page 44


 1363              		.loc 1 200 3 is_stmt 1 view .LVU416
 200:Core/Src/main.c **** 
 1364              		.loc 1 200 28 is_stmt 0 view .LVU417
 1365 0018 1C22     		movs	r2, #28
 1366 001a 0021     		movs	r1, #0
 1367 001c 6846     		mov	r0, sp
 1368 001e FFF7FEFF 		bl	memset
 1369              	.LVL41:
 205:Core/Src/main.c ****   RCC_OscInitStruct.HSIState = RCC_HSI_ON;
 1370              		.loc 1 205 3 is_stmt 1 view .LVU418
 205:Core/Src/main.c ****   RCC_OscInitStruct.HSIState = RCC_HSI_ON;
 1371              		.loc 1 205 36 is_stmt 0 view .LVU419
 1372 0022 2223     		movs	r3, #34
 1373 0024 0B93     		str	r3, [sp, #44]
 206:Core/Src/main.c ****   RCC_OscInitStruct.HSI48State = RCC_HSI48_ON;
 1374              		.loc 1 206 3 is_stmt 1 view .LVU420
 206:Core/Src/main.c ****   RCC_OscInitStruct.HSI48State = RCC_HSI48_ON;
 1375              		.loc 1 206 30 is_stmt 0 view .LVU421
 1376 0026 213B     		subs	r3, r3, #33
 1377 0028 0E93     		str	r3, [sp, #56]
 207:Core/Src/main.c ****   RCC_OscInitStruct.HSICalibrationValue = RCC_HSICALIBRATION_DEFAULT;
 1378              		.loc 1 207 3 is_stmt 1 view .LVU422
 207:Core/Src/main.c ****   RCC_OscInitStruct.HSICalibrationValue = RCC_HSICALIBRATION_DEFAULT;
 1379              		.loc 1 207 32 is_stmt 0 view .LVU423
 1380 002a 1393     		str	r3, [sp, #76]
 208:Core/Src/main.c ****   RCC_OscInitStruct.PLL.PLLState = RCC_PLL_ON;
 1381              		.loc 1 208 3 is_stmt 1 view .LVU424
 208:Core/Src/main.c ****   RCC_OscInitStruct.PLL.PLLState = RCC_PLL_ON;
 1382              		.loc 1 208 41 is_stmt 0 view .LVU425
 1383 002c 0F33     		adds	r3, r3, #15
 1384 002e 0F93     		str	r3, [sp, #60]
 209:Core/Src/main.c ****   RCC_OscInitStruct.PLL.PLLSource = RCC_PLLSOURCE_HSI;
 1385              		.loc 1 209 3 is_stmt 1 view .LVU426
 209:Core/Src/main.c ****   RCC_OscInitStruct.PLL.PLLSource = RCC_PLLSOURCE_HSI;
 1386              		.loc 1 209 34 is_stmt 0 view .LVU427
 1387 0030 0E3B     		subs	r3, r3, #14
 1388 0032 1493     		str	r3, [sp, #80]
 210:Core/Src/main.c ****   RCC_OscInitStruct.PLL.PLLMUL = RCC_PLL_MUL6;
 1389              		.loc 1 210 3 is_stmt 1 view .LVU428
 210:Core/Src/main.c ****   RCC_OscInitStruct.PLL.PLLMUL = RCC_PLL_MUL6;
 1390              		.loc 1 210 35 is_stmt 0 view .LVU429
 1391 0034 8023     		movs	r3, #128
 1392 0036 1B02     		lsls	r3, r3, #8
 1393 0038 1593     		str	r3, [sp, #84]
 211:Core/Src/main.c ****   RCC_OscInitStruct.PLL.PREDIV = RCC_PREDIV_DIV1;
 1394              		.loc 1 211 3 is_stmt 1 view .LVU430
 211:Core/Src/main.c ****   RCC_OscInitStruct.PLL.PREDIV = RCC_PREDIV_DIV1;
 1395              		.loc 1 211 32 is_stmt 0 view .LVU431
 1396 003a 8023     		movs	r3, #128
 1397 003c 5B03     		lsls	r3, r3, #13
 1398 003e 1693     		str	r3, [sp, #88]
 212:Core/Src/main.c ****   if (HAL_RCC_OscConfig(&RCC_OscInitStruct) != HAL_OK)
 1399              		.loc 1 212 3 is_stmt 1 view .LVU432
 213:Core/Src/main.c ****   {
 1400              		.loc 1 213 3 view .LVU433
 213:Core/Src/main.c ****   {
 1401              		.loc 1 213 7 is_stmt 0 view .LVU434
ARM GAS  /var/folders/kr/g9ry2bg56g773797gdtkvvkw0000gn/T//cc5EoDJi.s 			page 45


 1402 0040 0BA8     		add	r0, sp, #44
 1403 0042 FFF7FEFF 		bl	HAL_RCC_OscConfig
 1404              	.LVL42:
 213:Core/Src/main.c ****   {
 1405              		.loc 1 213 6 discriminator 1 view .LVU435
 1406 0046 0028     		cmp	r0, #0
 1407 0048 18D1     		bne	.L75
 220:Core/Src/main.c ****                               |RCC_CLOCKTYPE_PCLK1;
 1408              		.loc 1 220 3 is_stmt 1 view .LVU436
 220:Core/Src/main.c ****                               |RCC_CLOCKTYPE_PCLK1;
 1409              		.loc 1 220 31 is_stmt 0 view .LVU437
 1410 004a 0723     		movs	r3, #7
 1411 004c 0793     		str	r3, [sp, #28]
 222:Core/Src/main.c ****   RCC_ClkInitStruct.AHBCLKDivider = RCC_SYSCLK_DIV1;
 1412              		.loc 1 222 3 is_stmt 1 view .LVU438
 222:Core/Src/main.c ****   RCC_ClkInitStruct.AHBCLKDivider = RCC_SYSCLK_DIV1;
 1413              		.loc 1 222 34 is_stmt 0 view .LVU439
 1414 004e 053B     		subs	r3, r3, #5
 1415 0050 0893     		str	r3, [sp, #32]
 223:Core/Src/main.c ****   RCC_ClkInitStruct.APB1CLKDivider = RCC_HCLK_DIV1;
 1416              		.loc 1 223 3 is_stmt 1 view .LVU440
 223:Core/Src/main.c ****   RCC_ClkInitStruct.APB1CLKDivider = RCC_HCLK_DIV1;
 1417              		.loc 1 223 35 is_stmt 0 view .LVU441
 1418 0052 0023     		movs	r3, #0
 1419 0054 0993     		str	r3, [sp, #36]
 224:Core/Src/main.c **** 
 1420              		.loc 1 224 3 is_stmt 1 view .LVU442
 224:Core/Src/main.c **** 
 1421              		.loc 1 224 36 is_stmt 0 view .LVU443
 1422 0056 0A93     		str	r3, [sp, #40]
 226:Core/Src/main.c ****   {
 1423              		.loc 1 226 3 is_stmt 1 view .LVU444
 226:Core/Src/main.c ****   {
 1424              		.loc 1 226 7 is_stmt 0 view .LVU445
 1425 0058 0121     		movs	r1, #1
 1426 005a 07A8     		add	r0, sp, #28
 1427 005c FFF7FEFF 		bl	HAL_RCC_ClockConfig
 1428              	.LVL43:
 226:Core/Src/main.c ****   {
 1429              		.loc 1 226 6 discriminator 1 view .LVU446
 1430 0060 0028     		cmp	r0, #0
 1431 0062 0DD1     		bne	.L76
 230:Core/Src/main.c ****   PeriphClkInit.UsbClockSelection = RCC_USBCLKSOURCE_HSI48;
 1432              		.loc 1 230 3 is_stmt 1 view .LVU447
 230:Core/Src/main.c ****   PeriphClkInit.UsbClockSelection = RCC_USBCLKSOURCE_HSI48;
 1433              		.loc 1 230 38 is_stmt 0 view .LVU448
 1434 0064 8023     		movs	r3, #128
 1435 0066 9B02     		lsls	r3, r3, #10
 1436 0068 0093     		str	r3, [sp]
 231:Core/Src/main.c **** 
 1437              		.loc 1 231 3 is_stmt 1 view .LVU449
 231:Core/Src/main.c **** 
 1438              		.loc 1 231 35 is_stmt 0 view .LVU450
 1439 006a 0023     		movs	r3, #0
 1440 006c 0693     		str	r3, [sp, #24]
 233:Core/Src/main.c ****   {
 1441              		.loc 1 233 3 is_stmt 1 view .LVU451
ARM GAS  /var/folders/kr/g9ry2bg56g773797gdtkvvkw0000gn/T//cc5EoDJi.s 			page 46


 233:Core/Src/main.c ****   {
 1442              		.loc 1 233 7 is_stmt 0 view .LVU452
 1443 006e 6846     		mov	r0, sp
 1444 0070 FFF7FEFF 		bl	HAL_RCCEx_PeriphCLKConfig
 1445              	.LVL44:
 233:Core/Src/main.c ****   {
 1446              		.loc 1 233 6 discriminator 1 view .LVU453
 1447 0074 0028     		cmp	r0, #0
 1448 0076 05D1     		bne	.L77
 237:Core/Src/main.c **** 
 1449              		.loc 1 237 1 view .LVU454
 1450 0078 19B0     		add	sp, sp, #100
 1451              		@ sp needed
 1452 007a 00BD     		pop	{pc}
 1453              	.L75:
 215:Core/Src/main.c ****   }
 1454              		.loc 1 215 5 is_stmt 1 view .LVU455
 1455 007c FFF7FEFF 		bl	Error_Handler
 1456              	.LVL45:
 1457              	.L76:
 228:Core/Src/main.c ****   }
 1458              		.loc 1 228 5 view .LVU456
 1459 0080 FFF7FEFF 		bl	Error_Handler
 1460              	.LVL46:
 1461              	.L77:
 235:Core/Src/main.c ****   }
 1462              		.loc 1 235 5 view .LVU457
 1463 0084 FFF7FEFF 		bl	Error_Handler
 1464              	.LVL47:
 1465              		.cfi_endproc
 1466              	.LFE44:
 1468              		.section	.text.main,"ax",%progbits
 1469              		.align	1
 1470              		.global	main
 1471              		.syntax unified
 1472              		.code	16
 1473              		.thumb_func
 1475              	main:
 1476              	.LFB43:
 105:Core/Src/main.c **** 
 1477              		.loc 1 105 1 view -0
 1478              		.cfi_startproc
 1479              		@ Volatile: function does not return.
 1480              		@ args = 0, pretend = 0, frame = 0
 1481              		@ frame_needed = 0, uses_anonymous_args = 0
 1482 0000 10B5     		push	{r4, lr}
 1483              	.LCFI12:
 1484              		.cfi_def_cfa_offset 8
 1485              		.cfi_offset 4, -8
 1486              		.cfi_offset 14, -4
 114:Core/Src/main.c **** 
 1487              		.loc 1 114 3 view .LVU459
 1488 0002 FFF7FEFF 		bl	HAL_Init
 1489              	.LVL48:
 121:Core/Src/main.c **** 
 1490              		.loc 1 121 3 view .LVU460
 1491 0006 FFF7FEFF 		bl	SystemClock_Config
ARM GAS  /var/folders/kr/g9ry2bg56g773797gdtkvvkw0000gn/T//cc5EoDJi.s 			page 47


 1492              	.LVL49:
 128:Core/Src/main.c ****   MX_I2C2_Init();
 1493              		.loc 1 128 3 view .LVU461
 1494 000a FFF7FEFF 		bl	MX_GPIO_Init
 1495              	.LVL50:
 129:Core/Src/main.c ****   MX_SPI2_Init();
 1496              		.loc 1 129 3 view .LVU462
 1497 000e FFF7FEFF 		bl	MX_I2C2_Init
 1498              	.LVL51:
 130:Core/Src/main.c ****   MX_TSC_Init();
 1499              		.loc 1 130 3 view .LVU463
 1500 0012 FFF7FEFF 		bl	MX_SPI2_Init
 1501              	.LVL52:
 131:Core/Src/main.c ****   MX_USB_PCD_Init();
 1502              		.loc 1 131 3 view .LVU464
 1503 0016 FFF7FEFF 		bl	MX_TSC_Init
 1504              	.LVL53:
 132:Core/Src/main.c **** 
 1505              		.loc 1 132 3 view .LVU465
 1506 001a FFF7FEFF 		bl	MX_USB_PCD_Init
 1507              	.LVL54:
 134:Core/Src/main.c ****   initLEDs();
 1508              		.loc 1 134 3 view .LVU466
 1509 001e FFF7FEFF 		bl	initUsart3
 1510              	.LVL55:
 135:Core/Src/main.c ****   /* USER CODE BEGIN 2 */
 1511              		.loc 1 135 3 view .LVU467
 1512 0022 FFF7FEFF 		bl	initLEDs
 1513              	.LVL56:
 141:Core/Src/main.c **** 
 1514              		.loc 1 141 3 view .LVU468
 1515 0026 FFF7FEFF 		bl	osKernelInitialize
 1516              	.LVL57:
 162:Core/Src/main.c ****   /* creation of LEDTask */
 1517              		.loc 1 162 3 view .LVU469
 162:Core/Src/main.c ****   /* creation of LEDTask */
 1518              		.loc 1 162 22 is_stmt 0 view .LVU470
 1519 002a 0C4A     		ldr	r2, .L80
 1520 002c 0C48     		ldr	r0, .L80+4
 1521 002e 0021     		movs	r1, #0
 1522 0030 FFF7FEFF 		bl	osThreadNew
 1523              	.LVL58:
 162:Core/Src/main.c ****   /* creation of LEDTask */
 1524              		.loc 1 162 20 discriminator 1 view .LVU471
 1525 0034 0B4B     		ldr	r3, .L80+8
 1526 0036 1860     		str	r0, [r3]
 164:Core/Src/main.c ****   /* creation of UARTTask */
 1527              		.loc 1 164 3 is_stmt 1 view .LVU472
 164:Core/Src/main.c ****   /* creation of UARTTask */
 1528              		.loc 1 164 19 is_stmt 0 view .LVU473
 1529 0038 0B4A     		ldr	r2, .L80+12
 1530 003a 0C48     		ldr	r0, .L80+16
 1531 003c 0021     		movs	r1, #0
 1532 003e FFF7FEFF 		bl	osThreadNew
 1533              	.LVL59:
 164:Core/Src/main.c ****   /* creation of UARTTask */
 1534              		.loc 1 164 17 discriminator 1 view .LVU474
ARM GAS  /var/folders/kr/g9ry2bg56g773797gdtkvvkw0000gn/T//cc5EoDJi.s 			page 48


 1535 0042 0B4B     		ldr	r3, .L80+20
 1536 0044 1860     		str	r0, [r3]
 166:Core/Src/main.c **** 
 1537              		.loc 1 166 3 is_stmt 1 view .LVU475
 166:Core/Src/main.c **** 
 1538              		.loc 1 166 20 is_stmt 0 view .LVU476
 1539 0046 0B4A     		ldr	r2, .L80+24
 1540 0048 0B48     		ldr	r0, .L80+28
 1541 004a 0021     		movs	r1, #0
 1542 004c FFF7FEFF 		bl	osThreadNew
 1543              	.LVL60:
 166:Core/Src/main.c **** 
 1544              		.loc 1 166 18 discriminator 1 view .LVU477
 1545 0050 0A4B     		ldr	r3, .L80+32
 1546 0052 1860     		str	r0, [r3]
 177:Core/Src/main.c **** 
 1547              		.loc 1 177 3 is_stmt 1 view .LVU478
 1548 0054 FFF7FEFF 		bl	osKernelStart
 1549              	.LVL61:
 1550              	.L79:
 183:Core/Src/main.c ****   {
 1551              		.loc 1 183 3 view .LVU479
 188:Core/Src/main.c ****   /* USER CODE END 3 */
 1552              		.loc 1 188 3 view .LVU480
 183:Core/Src/main.c ****   {
 1553              		.loc 1 183 9 view .LVU481
 1554 0058 FEE7     		b	.L79
 1555              	.L81:
 1556 005a C046     		.align	2
 1557              	.L80:
 1558 005c 00000000 		.word	routerTask_attributes
 1559 0060 00000000 		.word	StartRouterTask
 1560 0064 00000000 		.word	routerTaskHandle
 1561 0068 00000000 		.word	LEDTask_attributes
 1562 006c 00000000 		.word	StartLEDTask
 1563 0070 00000000 		.word	LEDTaskHandle
 1564 0074 00000000 		.word	UARTTask_attributes
 1565 0078 00000000 		.word	StartParseUartTask
 1566 007c 00000000 		.word	UARTTaskHandle
 1567              		.cfi_endproc
 1568              	.LFE43:
 1570              		.global	LEDTask_attributes
 1571              		.section	.rodata.str1.4,"aMS",%progbits,1
 1572              		.align	2
 1573              	.LC20:
 1574 0000 4C454454 		.ascii	"LEDTask\000"
 1574      61736B00 
 1575              		.section	.rodata.LEDTask_attributes,"a"
 1576              		.align	2
 1579              	LEDTask_attributes:
 1580 0000 00000000 		.word	.LC20
 1581 0004 00000000 		.space	16
 1581      00000000 
 1581      00000000 
 1581      00000000 
 1582 0014 00020000 		.word	512
 1583 0018 18000000 		.word	24
ARM GAS  /var/folders/kr/g9ry2bg56g773797gdtkvvkw0000gn/T//cc5EoDJi.s 			page 49


 1584 001c 00000000 		.space	8
 1584      00000000 
 1585              		.global	LEDTaskHandle
 1586              		.section	.bss.LEDTaskHandle,"aw",%nobits
 1587              		.align	2
 1590              	LEDTaskHandle:
 1591 0000 00000000 		.space	4
 1592              		.global	routerTask_attributes
 1593              		.section	.rodata.str1.4
 1594              		.align	2
 1595              	.LC21:
 1596 0008 726F7574 		.ascii	"routerTask\000"
 1596      65725461 
 1596      736B00
 1597              		.section	.rodata.routerTask_attributes,"a"
 1598              		.align	2
 1601              	routerTask_attributes:
 1602 0000 08000000 		.word	.LC21
 1603 0004 00000000 		.space	16
 1603      00000000 
 1603      00000000 
 1603      00000000 
 1604 0014 00020000 		.word	512
 1605 0018 18000000 		.word	24
 1606 001c 00000000 		.space	8
 1606      00000000 
 1607              		.global	routerTaskHandle
 1608              		.section	.bss.routerTaskHandle,"aw",%nobits
 1609              		.align	2
 1612              	routerTaskHandle:
 1613 0000 00000000 		.space	4
 1614              		.global	hpcd_USB_FS
 1615              		.section	.bss.hpcd_USB_FS,"aw",%nobits
 1616              		.align	2
 1619              	hpcd_USB_FS:
 1620 0000 00000000 		.space	756
 1620      00000000 
 1620      00000000 
 1620      00000000 
 1620      00000000 
 1621              		.global	htsc
 1622              		.section	.bss.htsc,"aw",%nobits
 1623              		.align	2
 1626              	htsc:
 1627 0000 00000000 		.space	68
 1627      00000000 
 1627      00000000 
 1627      00000000 
 1627      00000000 
 1628              		.global	hspi2
 1629              		.section	.bss.hspi2,"aw",%nobits
 1630              		.align	2
 1633              	hspi2:
 1634 0000 00000000 		.space	100
 1634      00000000 
 1634      00000000 
 1634      00000000 
ARM GAS  /var/folders/kr/g9ry2bg56g773797gdtkvvkw0000gn/T//cc5EoDJi.s 			page 50


 1634      00000000 
 1635              		.global	hi2c2
 1636              		.section	.bss.hi2c2,"aw",%nobits
 1637              		.align	2
 1640              	hi2c2:
 1641 0000 00000000 		.space	84
 1641      00000000 
 1641      00000000 
 1641      00000000 
 1641      00000000 
 1642              		.global	binarySem04MotorWorkerHandle
 1643              		.section	.bss.binarySem04MotorWorkerHandle,"aw",%nobits
 1644              		.align	2
 1647              	binarySem04MotorWorkerHandle:
 1648 0000 00000000 		.space	4
 1649              		.global	binarySem03LEDWorkerHandle
 1650              		.section	.bss.binarySem03LEDWorkerHandle,"aw",%nobits
 1651              		.align	2
 1654              	binarySem03LEDWorkerHandle:
 1655 0000 00000000 		.space	4
 1656              		.global	commandMotor
 1657              		.section	.bss.commandMotor,"aw",%nobits
 1658              		.align	1
 1661              	commandMotor:
 1662 0000 0000     		.space	2
 1663              		.global	commandLED
 1664              		.section	.bss.commandLED,"aw",%nobits
 1665              		.align	1
 1668              	commandLED:
 1669 0000 0000     		.space	2
 1670              		.section	.rodata
 1671              		.align	2
 1672              		.set	.LANCHOR0,. + 0
 1673              	.LC0:
 1674 0000 40000000 		.word	64
 1675 0004 00020000 		.word	512
 1676 0008 80000000 		.word	128
 1677 000c 00010000 		.word	256
 1678 0010 C0030000 		.word	960
 1679              		.text
 1680              	.Letext0:
 1681              		.file 3 "/Applications/ArmGNUToolchain/13.2.Rel1/arm-none-eabi/arm-none-eabi/include/machine/_defa
 1682              		.file 4 "/Applications/ArmGNUToolchain/13.2.Rel1/arm-none-eabi/arm-none-eabi/include/sys/_stdint.h
 1683              		.file 5 "Drivers/CMSIS/Device/ST/STM32F0xx/Include/stm32f072xb.h"
 1684              		.file 6 "Drivers/CMSIS/Device/ST/STM32F0xx/Include/stm32f0xx.h"
 1685              		.file 7 "Drivers/STM32F0xx_HAL_Driver/Inc/stm32f0xx_hal_def.h"
 1686              		.file 8 "Drivers/STM32F0xx_HAL_Driver/Inc/stm32f0xx_hal_rcc.h"
 1687              		.file 9 "Drivers/STM32F0xx_HAL_Driver/Inc/stm32f0xx_hal_rcc_ex.h"
 1688              		.file 10 "Drivers/STM32F0xx_HAL_Driver/Inc/stm32f0xx_hal_gpio.h"
 1689              		.file 11 "Drivers/STM32F0xx_HAL_Driver/Inc/stm32f0xx_hal_dma.h"
 1690              		.file 12 "Drivers/STM32F0xx_HAL_Driver/Inc/stm32f0xx_hal_i2c.h"
 1691              		.file 13 "Drivers/STM32F0xx_HAL_Driver/Inc/stm32f0xx_ll_usb.h"
 1692              		.file 14 "Drivers/STM32F0xx_HAL_Driver/Inc/stm32f0xx_hal_pcd.h"
 1693              		.file 15 "Drivers/STM32F0xx_HAL_Driver/Inc/stm32f0xx_hal_spi.h"
 1694              		.file 16 "Drivers/STM32F0xx_HAL_Driver/Inc/stm32f0xx_hal_tim.h"
 1695              		.file 17 "Drivers/STM32F0xx_HAL_Driver/Inc/stm32f0xx_hal_tsc.h"
 1696              		.file 18 "Middlewares/Third_Party/FreeRTOS/Source/CMSIS_RTOS_V2/cmsis_os2.h"
ARM GAS  /var/folders/kr/g9ry2bg56g773797gdtkvvkw0000gn/T//cc5EoDJi.s 			page 51


 1697              		.file 19 "Core/Inc/cmdQueue.h"
 1698              		.file 20 "Core/Inc/uartParser.h"
 1699              		.file 21 "Core/Inc/main.h"
 1700              		.file 22 "Drivers/STM32F0xx_HAL_Driver/Inc/stm32f0xx_hal_i2c_ex.h"
 1701              		.file 23 "Drivers/STM32F0xx_HAL_Driver/Inc/stm32f0xx_hal.h"
 1702              		.file 24 "<built-in>"
ARM GAS  /var/folders/kr/g9ry2bg56g773797gdtkvvkw0000gn/T//cc5EoDJi.s 			page 52


DEFINED SYMBOLS
                            *ABS*:00000000 main.c
/var/folders/kr/g9ry2bg56g773797gdtkvvkw0000gn/T//cc5EoDJi.s:19     .text.MX_GPIO_Init:00000000 $t
/var/folders/kr/g9ry2bg56g773797gdtkvvkw0000gn/T//cc5EoDJi.s:24     .text.MX_GPIO_Init:00000000 MX_GPIO_Init
/var/folders/kr/g9ry2bg56g773797gdtkvvkw0000gn/T//cc5EoDJi.s:166    .text.MX_GPIO_Init:00000090 $d
/var/folders/kr/g9ry2bg56g773797gdtkvvkw0000gn/T//cc5EoDJi.s:173    .text.StartRouterTask:00000000 $t
/var/folders/kr/g9ry2bg56g773797gdtkvvkw0000gn/T//cc5EoDJi.s:179    .text.StartRouterTask:00000000 StartRouterTask
/var/folders/kr/g9ry2bg56g773797gdtkvvkw0000gn/T//cc5EoDJi.s:243    .text.StartRouterTask:00000040 $d
/var/folders/kr/g9ry2bg56g773797gdtkvvkw0000gn/T//cc5EoDJi.s:1668   .bss.commandLED:00000000 commandLED
/var/folders/kr/g9ry2bg56g773797gdtkvvkw0000gn/T//cc5EoDJi.s:1661   .bss.commandMotor:00000000 commandMotor
/var/folders/kr/g9ry2bg56g773797gdtkvvkw0000gn/T//cc5EoDJi.s:250    .text.StartLEDTask:00000000 $t
/var/folders/kr/g9ry2bg56g773797gdtkvvkw0000gn/T//cc5EoDJi.s:256    .text.StartLEDTask:00000000 StartLEDTask
/var/folders/kr/g9ry2bg56g773797gdtkvvkw0000gn/T//cc5EoDJi.s:704    .text.StartLEDTask:000001f0 $d
/var/folders/kr/g9ry2bg56g773797gdtkvvkw0000gn/T//cc5EoDJi.s:1654   .bss.binarySem03LEDWorkerHandle:00000000 binarySem03LEDWorkerHandle
/var/folders/kr/g9ry2bg56g773797gdtkvvkw0000gn/T//cc5EoDJi.s:713    .text.initLEDs:00000000 $t
/var/folders/kr/g9ry2bg56g773797gdtkvvkw0000gn/T//cc5EoDJi.s:719    .text.initLEDs:00000000 initLEDs
/var/folders/kr/g9ry2bg56g773797gdtkvvkw0000gn/T//cc5EoDJi.s:872    .text.initLEDs:000000a8 $d
/var/folders/kr/g9ry2bg56g773797gdtkvvkw0000gn/T//cc5EoDJi.s:890    .text.HAL_TIM_PeriodElapsedCallback:00000000 $t
/var/folders/kr/g9ry2bg56g773797gdtkvvkw0000gn/T//cc5EoDJi.s:896    .text.HAL_TIM_PeriodElapsedCallback:00000000 HAL_TIM_PeriodElapsedCallback
/var/folders/kr/g9ry2bg56g773797gdtkvvkw0000gn/T//cc5EoDJi.s:931    .text.HAL_TIM_PeriodElapsedCallback:00000014 $d
/var/folders/kr/g9ry2bg56g773797gdtkvvkw0000gn/T//cc5EoDJi.s:936    .text.Error_Handler:00000000 $t
/var/folders/kr/g9ry2bg56g773797gdtkvvkw0000gn/T//cc5EoDJi.s:942    .text.Error_Handler:00000000 Error_Handler
/var/folders/kr/g9ry2bg56g773797gdtkvvkw0000gn/T//cc5EoDJi.s:974    .text.MX_I2C2_Init:00000000 $t
/var/folders/kr/g9ry2bg56g773797gdtkvvkw0000gn/T//cc5EoDJi.s:979    .text.MX_I2C2_Init:00000000 MX_I2C2_Init
/var/folders/kr/g9ry2bg56g773797gdtkvvkw0000gn/T//cc5EoDJi.s:1065   .text.MX_I2C2_Init:0000004c $d
/var/folders/kr/g9ry2bg56g773797gdtkvvkw0000gn/T//cc5EoDJi.s:1640   .bss.hi2c2:00000000 hi2c2
/var/folders/kr/g9ry2bg56g773797gdtkvvkw0000gn/T//cc5EoDJi.s:1072   .text.MX_SPI2_Init:00000000 $t
/var/folders/kr/g9ry2bg56g773797gdtkvvkw0000gn/T//cc5EoDJi.s:1077   .text.MX_SPI2_Init:00000000 MX_SPI2_Init
/var/folders/kr/g9ry2bg56g773797gdtkvvkw0000gn/T//cc5EoDJi.s:1159   .text.MX_SPI2_Init:00000044 $d
/var/folders/kr/g9ry2bg56g773797gdtkvvkw0000gn/T//cc5EoDJi.s:1633   .bss.hspi2:00000000 hspi2
/var/folders/kr/g9ry2bg56g773797gdtkvvkw0000gn/T//cc5EoDJi.s:1165   .text.MX_TSC_Init:00000000 $t
/var/folders/kr/g9ry2bg56g773797gdtkvvkw0000gn/T//cc5EoDJi.s:1170   .text.MX_TSC_Init:00000000 MX_TSC_Init
/var/folders/kr/g9ry2bg56g773797gdtkvvkw0000gn/T//cc5EoDJi.s:1259   .text.MX_TSC_Init:00000050 $d
/var/folders/kr/g9ry2bg56g773797gdtkvvkw0000gn/T//cc5EoDJi.s:1626   .bss.htsc:00000000 htsc
/var/folders/kr/g9ry2bg56g773797gdtkvvkw0000gn/T//cc5EoDJi.s:1265   .text.MX_USB_PCD_Init:00000000 $t
/var/folders/kr/g9ry2bg56g773797gdtkvvkw0000gn/T//cc5EoDJi.s:1270   .text.MX_USB_PCD_Init:00000000 MX_USB_PCD_Init
/var/folders/kr/g9ry2bg56g773797gdtkvvkw0000gn/T//cc5EoDJi.s:1324   .text.MX_USB_PCD_Init:00000028 $d
/var/folders/kr/g9ry2bg56g773797gdtkvvkw0000gn/T//cc5EoDJi.s:1619   .bss.hpcd_USB_FS:00000000 hpcd_USB_FS
/var/folders/kr/g9ry2bg56g773797gdtkvvkw0000gn/T//cc5EoDJi.s:1330   .text.SystemClock_Config:00000000 $t
/var/folders/kr/g9ry2bg56g773797gdtkvvkw0000gn/T//cc5EoDJi.s:1336   .text.SystemClock_Config:00000000 SystemClock_Config
/var/folders/kr/g9ry2bg56g773797gdtkvvkw0000gn/T//cc5EoDJi.s:1469   .text.main:00000000 $t
/var/folders/kr/g9ry2bg56g773797gdtkvvkw0000gn/T//cc5EoDJi.s:1475   .text.main:00000000 main
/var/folders/kr/g9ry2bg56g773797gdtkvvkw0000gn/T//cc5EoDJi.s:1558   .text.main:0000005c $d
/var/folders/kr/g9ry2bg56g773797gdtkvvkw0000gn/T//cc5EoDJi.s:1601   .rodata.routerTask_attributes:00000000 routerTask_attributes
/var/folders/kr/g9ry2bg56g773797gdtkvvkw0000gn/T//cc5EoDJi.s:1612   .bss.routerTaskHandle:00000000 routerTaskHandle
/var/folders/kr/g9ry2bg56g773797gdtkvvkw0000gn/T//cc5EoDJi.s:1579   .rodata.LEDTask_attributes:00000000 LEDTask_attributes
/var/folders/kr/g9ry2bg56g773797gdtkvvkw0000gn/T//cc5EoDJi.s:1590   .bss.LEDTaskHandle:00000000 LEDTaskHandle
/var/folders/kr/g9ry2bg56g773797gdtkvvkw0000gn/T//cc5EoDJi.s:1572   .rodata.str1.4:00000000 $d
/var/folders/kr/g9ry2bg56g773797gdtkvvkw0000gn/T//cc5EoDJi.s:1576   .rodata.LEDTask_attributes:00000000 $d
/var/folders/kr/g9ry2bg56g773797gdtkvvkw0000gn/T//cc5EoDJi.s:1587   .bss.LEDTaskHandle:00000000 $d
/var/folders/kr/g9ry2bg56g773797gdtkvvkw0000gn/T//cc5EoDJi.s:1598   .rodata.routerTask_attributes:00000000 $d
/var/folders/kr/g9ry2bg56g773797gdtkvvkw0000gn/T//cc5EoDJi.s:1609   .bss.routerTaskHandle:00000000 $d
/var/folders/kr/g9ry2bg56g773797gdtkvvkw0000gn/T//cc5EoDJi.s:1616   .bss.hpcd_USB_FS:00000000 $d
/var/folders/kr/g9ry2bg56g773797gdtkvvkw0000gn/T//cc5EoDJi.s:1623   .bss.htsc:00000000 $d
/var/folders/kr/g9ry2bg56g773797gdtkvvkw0000gn/T//cc5EoDJi.s:1630   .bss.hspi2:00000000 $d
/var/folders/kr/g9ry2bg56g773797gdtkvvkw0000gn/T//cc5EoDJi.s:1637   .bss.hi2c2:00000000 $d
/var/folders/kr/g9ry2bg56g773797gdtkvvkw0000gn/T//cc5EoDJi.s:1647   .bss.binarySem04MotorWorkerHandle:00000000 binarySem04MotorWorkerHandle
ARM GAS  /var/folders/kr/g9ry2bg56g773797gdtkvvkw0000gn/T//cc5EoDJi.s 			page 53


/var/folders/kr/g9ry2bg56g773797gdtkvvkw0000gn/T//cc5EoDJi.s:1644   .bss.binarySem04MotorWorkerHandle:00000000 $d
/var/folders/kr/g9ry2bg56g773797gdtkvvkw0000gn/T//cc5EoDJi.s:1651   .bss.binarySem03LEDWorkerHandle:00000000 $d
/var/folders/kr/g9ry2bg56g773797gdtkvvkw0000gn/T//cc5EoDJi.s:1658   .bss.commandMotor:00000000 $d
/var/folders/kr/g9ry2bg56g773797gdtkvvkw0000gn/T//cc5EoDJi.s:1665   .bss.commandLED:00000000 $d
/var/folders/kr/g9ry2bg56g773797gdtkvvkw0000gn/T//cc5EoDJi.s:1671   .rodata:00000000 $d

UNDEFINED SYMBOLS
memset
HAL_GPIO_WritePin
HAL_GPIO_Init
isQueueEmpty
osDelay
queuePop
cmdQueue
osSemaphoreNew
xTaskGetTickCount
osSemaphoreRelease
osSemaphoreAcquire
HAL_IncTick
HAL_I2C_Init
HAL_I2CEx_ConfigAnalogFilter
HAL_I2CEx_ConfigDigitalFilter
HAL_SPI_Init
HAL_TSC_Init
HAL_PCD_Init
HAL_RCC_OscConfig
HAL_RCC_ClockConfig
HAL_RCCEx_PeriphCLKConfig
HAL_Init
initUsart3
osKernelInitialize
osThreadNew
osKernelStart
UARTTask_attributes
StartParseUartTask
UARTTaskHandle
