ARM GAS  /var/folders/kr/g9ry2bg56g773797gdtkvvkw0000gn/T//cc7eQgtd.s 			page 1


   1              		.cpu cortex-m0
   2              		.arch armv6s-m
   3              		.fpu softvfp
   4              		.eabi_attribute 20, 1
   5              		.eabi_attribute 21, 1
   6              		.eabi_attribute 23, 3
   7              		.eabi_attribute 24, 1
   8              		.eabi_attribute 25, 1
   9              		.eabi_attribute 26, 1
  10              		.eabi_attribute 30, 1
  11              		.eabi_attribute 34, 0
  12              		.eabi_attribute 18, 4
  13              		.file	"stm32f0xx_ll_usb.c"
  14              		.text
  15              	.Ltext0:
  16              		.cfi_sections	.debug_frame
  17              		.file 1 "Drivers/STM32F0xx_HAL_Driver/Src/stm32f0xx_ll_usb.c"
  18              		.section	.text.USB_CoreInit,"ax",%progbits
  19              		.align	1
  20              		.global	USB_CoreInit
  21              		.syntax unified
  22              		.code	16
  23              		.thumb_func
  25              	USB_CoreInit:
  26              	.LVL0:
  27              	.LFB40:
   1:Drivers/STM32F0xx_HAL_Driver/Src/stm32f0xx_ll_usb.c **** /**
   2:Drivers/STM32F0xx_HAL_Driver/Src/stm32f0xx_ll_usb.c ****   ******************************************************************************
   3:Drivers/STM32F0xx_HAL_Driver/Src/stm32f0xx_ll_usb.c ****   * @file    stm32f0xx_ll_usb.c
   4:Drivers/STM32F0xx_HAL_Driver/Src/stm32f0xx_ll_usb.c ****   * @author  MCD Application Team
   5:Drivers/STM32F0xx_HAL_Driver/Src/stm32f0xx_ll_usb.c ****   * @brief   USB Low Layer HAL module driver.
   6:Drivers/STM32F0xx_HAL_Driver/Src/stm32f0xx_ll_usb.c ****   *
   7:Drivers/STM32F0xx_HAL_Driver/Src/stm32f0xx_ll_usb.c ****   *          This file provides firmware functions to manage the following
   8:Drivers/STM32F0xx_HAL_Driver/Src/stm32f0xx_ll_usb.c ****   *          functionalities of the USB Peripheral Controller:
   9:Drivers/STM32F0xx_HAL_Driver/Src/stm32f0xx_ll_usb.c ****   *           + Initialization/de-initialization functions
  10:Drivers/STM32F0xx_HAL_Driver/Src/stm32f0xx_ll_usb.c ****   *           + I/O operation functions
  11:Drivers/STM32F0xx_HAL_Driver/Src/stm32f0xx_ll_usb.c ****   *           + Peripheral Control functions
  12:Drivers/STM32F0xx_HAL_Driver/Src/stm32f0xx_ll_usb.c ****   *           + Peripheral State functions
  13:Drivers/STM32F0xx_HAL_Driver/Src/stm32f0xx_ll_usb.c ****   *
  14:Drivers/STM32F0xx_HAL_Driver/Src/stm32f0xx_ll_usb.c ****   ******************************************************************************
  15:Drivers/STM32F0xx_HAL_Driver/Src/stm32f0xx_ll_usb.c ****   * @attention
  16:Drivers/STM32F0xx_HAL_Driver/Src/stm32f0xx_ll_usb.c ****   *
  17:Drivers/STM32F0xx_HAL_Driver/Src/stm32f0xx_ll_usb.c ****   * Copyright (c) 2016 STMicroelectronics.
  18:Drivers/STM32F0xx_HAL_Driver/Src/stm32f0xx_ll_usb.c ****   * All rights reserved.
  19:Drivers/STM32F0xx_HAL_Driver/Src/stm32f0xx_ll_usb.c ****   *
  20:Drivers/STM32F0xx_HAL_Driver/Src/stm32f0xx_ll_usb.c ****   * This software is licensed under terms that can be found in the LICENSE file
  21:Drivers/STM32F0xx_HAL_Driver/Src/stm32f0xx_ll_usb.c ****   * in the root directory of this software component.
  22:Drivers/STM32F0xx_HAL_Driver/Src/stm32f0xx_ll_usb.c ****   * If no LICENSE file comes with this software, it is provided AS-IS.
  23:Drivers/STM32F0xx_HAL_Driver/Src/stm32f0xx_ll_usb.c ****   *
  24:Drivers/STM32F0xx_HAL_Driver/Src/stm32f0xx_ll_usb.c ****   ******************************************************************************
  25:Drivers/STM32F0xx_HAL_Driver/Src/stm32f0xx_ll_usb.c ****   @verbatim
  26:Drivers/STM32F0xx_HAL_Driver/Src/stm32f0xx_ll_usb.c ****   ==============================================================================
  27:Drivers/STM32F0xx_HAL_Driver/Src/stm32f0xx_ll_usb.c ****                     ##### How to use this driver #####
  28:Drivers/STM32F0xx_HAL_Driver/Src/stm32f0xx_ll_usb.c ****   ==============================================================================
  29:Drivers/STM32F0xx_HAL_Driver/Src/stm32f0xx_ll_usb.c ****     [..]
  30:Drivers/STM32F0xx_HAL_Driver/Src/stm32f0xx_ll_usb.c ****       (#) Fill parameters of Init structure in USB_CfgTypeDef structure.
  31:Drivers/STM32F0xx_HAL_Driver/Src/stm32f0xx_ll_usb.c **** 
ARM GAS  /var/folders/kr/g9ry2bg56g773797gdtkvvkw0000gn/T//cc7eQgtd.s 			page 2


  32:Drivers/STM32F0xx_HAL_Driver/Src/stm32f0xx_ll_usb.c ****       (#) Call USB_CoreInit() API to initialize the USB Core peripheral.
  33:Drivers/STM32F0xx_HAL_Driver/Src/stm32f0xx_ll_usb.c **** 
  34:Drivers/STM32F0xx_HAL_Driver/Src/stm32f0xx_ll_usb.c ****       (#) The upper HAL HCD/PCD driver will call the right routines for its internal processes.
  35:Drivers/STM32F0xx_HAL_Driver/Src/stm32f0xx_ll_usb.c **** 
  36:Drivers/STM32F0xx_HAL_Driver/Src/stm32f0xx_ll_usb.c ****   @endverbatim
  37:Drivers/STM32F0xx_HAL_Driver/Src/stm32f0xx_ll_usb.c **** 
  38:Drivers/STM32F0xx_HAL_Driver/Src/stm32f0xx_ll_usb.c ****   ******************************************************************************
  39:Drivers/STM32F0xx_HAL_Driver/Src/stm32f0xx_ll_usb.c ****   */
  40:Drivers/STM32F0xx_HAL_Driver/Src/stm32f0xx_ll_usb.c **** 
  41:Drivers/STM32F0xx_HAL_Driver/Src/stm32f0xx_ll_usb.c **** /* Includes ------------------------------------------------------------------*/
  42:Drivers/STM32F0xx_HAL_Driver/Src/stm32f0xx_ll_usb.c **** #include "stm32f0xx_hal.h"
  43:Drivers/STM32F0xx_HAL_Driver/Src/stm32f0xx_ll_usb.c **** 
  44:Drivers/STM32F0xx_HAL_Driver/Src/stm32f0xx_ll_usb.c **** /** @addtogroup STM32F0xx_LL_USB_DRIVER
  45:Drivers/STM32F0xx_HAL_Driver/Src/stm32f0xx_ll_usb.c ****   * @{
  46:Drivers/STM32F0xx_HAL_Driver/Src/stm32f0xx_ll_usb.c ****   */
  47:Drivers/STM32F0xx_HAL_Driver/Src/stm32f0xx_ll_usb.c **** 
  48:Drivers/STM32F0xx_HAL_Driver/Src/stm32f0xx_ll_usb.c **** #if defined (HAL_PCD_MODULE_ENABLED) || defined (HAL_HCD_MODULE_ENABLED)
  49:Drivers/STM32F0xx_HAL_Driver/Src/stm32f0xx_ll_usb.c **** #if defined (USB)
  50:Drivers/STM32F0xx_HAL_Driver/Src/stm32f0xx_ll_usb.c **** /* Private typedef -----------------------------------------------------------*/
  51:Drivers/STM32F0xx_HAL_Driver/Src/stm32f0xx_ll_usb.c **** /* Private define ------------------------------------------------------------*/
  52:Drivers/STM32F0xx_HAL_Driver/Src/stm32f0xx_ll_usb.c **** /* Private macro -------------------------------------------------------------*/
  53:Drivers/STM32F0xx_HAL_Driver/Src/stm32f0xx_ll_usb.c **** /* Private variables ---------------------------------------------------------*/
  54:Drivers/STM32F0xx_HAL_Driver/Src/stm32f0xx_ll_usb.c **** /* Private function prototypes -----------------------------------------------*/
  55:Drivers/STM32F0xx_HAL_Driver/Src/stm32f0xx_ll_usb.c **** /* Private functions ---------------------------------------------------------*/
  56:Drivers/STM32F0xx_HAL_Driver/Src/stm32f0xx_ll_usb.c **** 
  57:Drivers/STM32F0xx_HAL_Driver/Src/stm32f0xx_ll_usb.c **** /**
  58:Drivers/STM32F0xx_HAL_Driver/Src/stm32f0xx_ll_usb.c ****   * @brief  Initializes the USB Core
  59:Drivers/STM32F0xx_HAL_Driver/Src/stm32f0xx_ll_usb.c ****   * @param  USBx USB Instance
  60:Drivers/STM32F0xx_HAL_Driver/Src/stm32f0xx_ll_usb.c ****   * @param  cfg pointer to a USB_CfgTypeDef structure that contains
  61:Drivers/STM32F0xx_HAL_Driver/Src/stm32f0xx_ll_usb.c ****   *         the configuration information for the specified USBx peripheral.
  62:Drivers/STM32F0xx_HAL_Driver/Src/stm32f0xx_ll_usb.c ****   * @retval HAL status
  63:Drivers/STM32F0xx_HAL_Driver/Src/stm32f0xx_ll_usb.c ****   */
  64:Drivers/STM32F0xx_HAL_Driver/Src/stm32f0xx_ll_usb.c **** HAL_StatusTypeDef USB_CoreInit(USB_TypeDef *USBx, USB_CfgTypeDef cfg)
  65:Drivers/STM32F0xx_HAL_Driver/Src/stm32f0xx_ll_usb.c **** {
  28              		.loc 1 65 1 view -0
  29              		.cfi_startproc
  30              		@ args = 36, pretend = 16, frame = 0
  31              		@ frame_needed = 0, uses_anonymous_args = 0
  32              		@ link register save eliminated.
  33              		.loc 1 65 1 is_stmt 0 view .LVU1
  34 0000 84B0     		sub	sp, sp, #16
  35              	.LCFI0:
  36              		.cfi_def_cfa_offset 16
  37 0002 0191     		str	r1, [sp, #4]
  38 0004 0292     		str	r2, [sp, #8]
  39 0006 0393     		str	r3, [sp, #12]
  66:Drivers/STM32F0xx_HAL_Driver/Src/stm32f0xx_ll_usb.c ****   /* Prevent unused argument(s) compilation warning */
  67:Drivers/STM32F0xx_HAL_Driver/Src/stm32f0xx_ll_usb.c ****   UNUSED(USBx);
  40              		.loc 1 67 3 is_stmt 1 view .LVU2
  68:Drivers/STM32F0xx_HAL_Driver/Src/stm32f0xx_ll_usb.c ****   UNUSED(cfg);
  41              		.loc 1 68 3 view .LVU3
  69:Drivers/STM32F0xx_HAL_Driver/Src/stm32f0xx_ll_usb.c **** 
  70:Drivers/STM32F0xx_HAL_Driver/Src/stm32f0xx_ll_usb.c ****   /* NOTE : - This function is not required by USB Device FS peripheral, it is used
  71:Drivers/STM32F0xx_HAL_Driver/Src/stm32f0xx_ll_usb.c ****               only by USB OTG FS peripheral.
  72:Drivers/STM32F0xx_HAL_Driver/Src/stm32f0xx_ll_usb.c ****             - This function is added to ensure compatibility across platforms.
  73:Drivers/STM32F0xx_HAL_Driver/Src/stm32f0xx_ll_usb.c ****    */
  74:Drivers/STM32F0xx_HAL_Driver/Src/stm32f0xx_ll_usb.c **** 
ARM GAS  /var/folders/kr/g9ry2bg56g773797gdtkvvkw0000gn/T//cc7eQgtd.s 			page 3


  75:Drivers/STM32F0xx_HAL_Driver/Src/stm32f0xx_ll_usb.c ****   return HAL_OK;
  42              		.loc 1 75 3 view .LVU4
  76:Drivers/STM32F0xx_HAL_Driver/Src/stm32f0xx_ll_usb.c **** }
  43              		.loc 1 76 1 is_stmt 0 view .LVU5
  44 0008 0020     		movs	r0, #0
  45              	.LVL1:
  46              		.loc 1 76 1 view .LVU6
  47              		@ sp needed
  48 000a 04B0     		add	sp, sp, #16
  49 000c 7047     		bx	lr
  50              		.cfi_endproc
  51              	.LFE40:
  53              		.section	.text.USB_EnableGlobalInt,"ax",%progbits
  54              		.align	1
  55              		.global	USB_EnableGlobalInt
  56              		.syntax unified
  57              		.code	16
  58              		.thumb_func
  60              	USB_EnableGlobalInt:
  61              	.LVL2:
  62              	.LFB41:
  77:Drivers/STM32F0xx_HAL_Driver/Src/stm32f0xx_ll_usb.c **** 
  78:Drivers/STM32F0xx_HAL_Driver/Src/stm32f0xx_ll_usb.c **** /**
  79:Drivers/STM32F0xx_HAL_Driver/Src/stm32f0xx_ll_usb.c ****   * @brief  USB_EnableGlobalInt
  80:Drivers/STM32F0xx_HAL_Driver/Src/stm32f0xx_ll_usb.c ****   *         Enables the controller's Global Int in the AHB Config reg
  81:Drivers/STM32F0xx_HAL_Driver/Src/stm32f0xx_ll_usb.c ****   * @param  USBx Selected device
  82:Drivers/STM32F0xx_HAL_Driver/Src/stm32f0xx_ll_usb.c ****   * @retval HAL status
  83:Drivers/STM32F0xx_HAL_Driver/Src/stm32f0xx_ll_usb.c ****   */
  84:Drivers/STM32F0xx_HAL_Driver/Src/stm32f0xx_ll_usb.c **** HAL_StatusTypeDef USB_EnableGlobalInt(USB_TypeDef *USBx)
  85:Drivers/STM32F0xx_HAL_Driver/Src/stm32f0xx_ll_usb.c **** {
  63              		.loc 1 85 1 is_stmt 1 view -0
  64              		.cfi_startproc
  65              		@ args = 0, pretend = 0, frame = 0
  66              		@ frame_needed = 0, uses_anonymous_args = 0
  67              		@ link register save eliminated.
  86:Drivers/STM32F0xx_HAL_Driver/Src/stm32f0xx_ll_usb.c ****   uint32_t winterruptmask;
  68              		.loc 1 86 3 view .LVU8
  87:Drivers/STM32F0xx_HAL_Driver/Src/stm32f0xx_ll_usb.c **** 
  88:Drivers/STM32F0xx_HAL_Driver/Src/stm32f0xx_ll_usb.c ****   /* Clear pending interrupts */
  89:Drivers/STM32F0xx_HAL_Driver/Src/stm32f0xx_ll_usb.c ****   USBx->ISTR = 0U;
  69              		.loc 1 89 3 view .LVU9
  70              		.loc 1 89 14 is_stmt 0 view .LVU10
  71 0000 4423     		movs	r3, #68
  72 0002 0022     		movs	r2, #0
  73 0004 C252     		strh	r2, [r0, r3]
  90:Drivers/STM32F0xx_HAL_Driver/Src/stm32f0xx_ll_usb.c **** 
  91:Drivers/STM32F0xx_HAL_Driver/Src/stm32f0xx_ll_usb.c ****   /* Set winterruptmask variable */
  92:Drivers/STM32F0xx_HAL_Driver/Src/stm32f0xx_ll_usb.c ****   winterruptmask = USB_CNTR_CTRM  | USB_CNTR_WKUPM |
  74              		.loc 1 92 3 is_stmt 1 view .LVU11
  75              	.LVL3:
  93:Drivers/STM32F0xx_HAL_Driver/Src/stm32f0xx_ll_usb.c ****                    USB_CNTR_SUSPM | USB_CNTR_ERRM |
  94:Drivers/STM32F0xx_HAL_Driver/Src/stm32f0xx_ll_usb.c ****                    USB_CNTR_SOFM | USB_CNTR_ESOFM |
  95:Drivers/STM32F0xx_HAL_Driver/Src/stm32f0xx_ll_usb.c ****                    USB_CNTR_RESETM | USB_CNTR_L1REQM;
  96:Drivers/STM32F0xx_HAL_Driver/Src/stm32f0xx_ll_usb.c **** 
  97:Drivers/STM32F0xx_HAL_Driver/Src/stm32f0xx_ll_usb.c ****   /* Set interrupt mask */
  98:Drivers/STM32F0xx_HAL_Driver/Src/stm32f0xx_ll_usb.c ****   USBx->CNTR = (uint16_t)winterruptmask;
  76              		.loc 1 98 3 view .LVU12
ARM GAS  /var/folders/kr/g9ry2bg56g773797gdtkvvkw0000gn/T//cc7eQgtd.s 			page 4


  77              		.loc 1 98 14 is_stmt 0 view .LVU13
  78 0006 043B     		subs	r3, r3, #4
  79 0008 014A     		ldr	r2, .L3
  80 000a C252     		strh	r2, [r0, r3]
  99:Drivers/STM32F0xx_HAL_Driver/Src/stm32f0xx_ll_usb.c **** 
 100:Drivers/STM32F0xx_HAL_Driver/Src/stm32f0xx_ll_usb.c ****   return HAL_OK;
  81              		.loc 1 100 3 is_stmt 1 view .LVU14
 101:Drivers/STM32F0xx_HAL_Driver/Src/stm32f0xx_ll_usb.c **** }
  82              		.loc 1 101 1 is_stmt 0 view .LVU15
  83 000c 0020     		movs	r0, #0
  84              	.LVL4:
  85              		.loc 1 101 1 view .LVU16
  86              		@ sp needed
  87 000e 7047     		bx	lr
  88              	.L4:
  89              		.align	2
  90              	.L3:
  91 0010 80BFFFFF 		.word	-16512
  92              		.cfi_endproc
  93              	.LFE41:
  95              		.section	.text.USB_DisableGlobalInt,"ax",%progbits
  96              		.align	1
  97              		.global	USB_DisableGlobalInt
  98              		.syntax unified
  99              		.code	16
 100              		.thumb_func
 102              	USB_DisableGlobalInt:
 103              	.LVL5:
 104              	.LFB42:
 102:Drivers/STM32F0xx_HAL_Driver/Src/stm32f0xx_ll_usb.c **** 
 103:Drivers/STM32F0xx_HAL_Driver/Src/stm32f0xx_ll_usb.c **** /**
 104:Drivers/STM32F0xx_HAL_Driver/Src/stm32f0xx_ll_usb.c ****   * @brief  USB_DisableGlobalInt
 105:Drivers/STM32F0xx_HAL_Driver/Src/stm32f0xx_ll_usb.c ****   *         Disable the controller's Global Int in the AHB Config reg
 106:Drivers/STM32F0xx_HAL_Driver/Src/stm32f0xx_ll_usb.c ****   * @param  USBx Selected device
 107:Drivers/STM32F0xx_HAL_Driver/Src/stm32f0xx_ll_usb.c ****   * @retval HAL status
 108:Drivers/STM32F0xx_HAL_Driver/Src/stm32f0xx_ll_usb.c ****   */
 109:Drivers/STM32F0xx_HAL_Driver/Src/stm32f0xx_ll_usb.c **** HAL_StatusTypeDef USB_DisableGlobalInt(USB_TypeDef *USBx)
 110:Drivers/STM32F0xx_HAL_Driver/Src/stm32f0xx_ll_usb.c **** {
 105              		.loc 1 110 1 is_stmt 1 view -0
 106              		.cfi_startproc
 107              		@ args = 0, pretend = 0, frame = 0
 108              		@ frame_needed = 0, uses_anonymous_args = 0
 109              		@ link register save eliminated.
 111:Drivers/STM32F0xx_HAL_Driver/Src/stm32f0xx_ll_usb.c ****   uint32_t winterruptmask;
 110              		.loc 1 111 3 view .LVU18
 112:Drivers/STM32F0xx_HAL_Driver/Src/stm32f0xx_ll_usb.c **** 
 113:Drivers/STM32F0xx_HAL_Driver/Src/stm32f0xx_ll_usb.c ****   /* Set winterruptmask variable */
 114:Drivers/STM32F0xx_HAL_Driver/Src/stm32f0xx_ll_usb.c ****   winterruptmask = USB_CNTR_CTRM  | USB_CNTR_WKUPM |
 111              		.loc 1 114 3 view .LVU19
 115:Drivers/STM32F0xx_HAL_Driver/Src/stm32f0xx_ll_usb.c ****                    USB_CNTR_SUSPM | USB_CNTR_ERRM |
 116:Drivers/STM32F0xx_HAL_Driver/Src/stm32f0xx_ll_usb.c ****                    USB_CNTR_SOFM | USB_CNTR_ESOFM |
 117:Drivers/STM32F0xx_HAL_Driver/Src/stm32f0xx_ll_usb.c ****                    USB_CNTR_RESETM | USB_CNTR_L1REQM;
 118:Drivers/STM32F0xx_HAL_Driver/Src/stm32f0xx_ll_usb.c **** 
 119:Drivers/STM32F0xx_HAL_Driver/Src/stm32f0xx_ll_usb.c ****   /* Clear interrupt mask */
 120:Drivers/STM32F0xx_HAL_Driver/Src/stm32f0xx_ll_usb.c ****   USBx->CNTR &= (uint16_t)(~winterruptmask);
 112              		.loc 1 120 3 view .LVU20
 113              		.loc 1 120 7 is_stmt 0 view .LVU21
ARM GAS  /var/folders/kr/g9ry2bg56g773797gdtkvvkw0000gn/T//cc7eQgtd.s 			page 5


 114 0000 4022     		movs	r2, #64
 115 0002 835A     		ldrh	r3, [r0, r2]
 116              		.loc 1 120 14 view .LVU22
 117 0004 0249     		ldr	r1, .L6
 118 0006 0B40     		ands	r3, r1
 119 0008 8352     		strh	r3, [r0, r2]
 121:Drivers/STM32F0xx_HAL_Driver/Src/stm32f0xx_ll_usb.c **** 
 122:Drivers/STM32F0xx_HAL_Driver/Src/stm32f0xx_ll_usb.c ****   return HAL_OK;
 120              		.loc 1 122 3 is_stmt 1 view .LVU23
 123:Drivers/STM32F0xx_HAL_Driver/Src/stm32f0xx_ll_usb.c **** }
 121              		.loc 1 123 1 is_stmt 0 view .LVU24
 122 000a 0020     		movs	r0, #0
 123              	.LVL6:
 124              		.loc 1 123 1 view .LVU25
 125              		@ sp needed
 126 000c 7047     		bx	lr
 127              	.L7:
 128 000e C046     		.align	2
 129              	.L6:
 130 0010 7F400000 		.word	16511
 131              		.cfi_endproc
 132              	.LFE42:
 134              		.section	.text.USB_SetCurrentMode,"ax",%progbits
 135              		.align	1
 136              		.global	USB_SetCurrentMode
 137              		.syntax unified
 138              		.code	16
 139              		.thumb_func
 141              	USB_SetCurrentMode:
 142              	.LVL7:
 143              	.LFB43:
 124:Drivers/STM32F0xx_HAL_Driver/Src/stm32f0xx_ll_usb.c **** 
 125:Drivers/STM32F0xx_HAL_Driver/Src/stm32f0xx_ll_usb.c **** /**
 126:Drivers/STM32F0xx_HAL_Driver/Src/stm32f0xx_ll_usb.c ****   * @brief  USB_SetCurrentMode Set functional mode
 127:Drivers/STM32F0xx_HAL_Driver/Src/stm32f0xx_ll_usb.c ****   * @param  USBx Selected device
 128:Drivers/STM32F0xx_HAL_Driver/Src/stm32f0xx_ll_usb.c ****   * @param  mode current core mode
 129:Drivers/STM32F0xx_HAL_Driver/Src/stm32f0xx_ll_usb.c ****   *          This parameter can be one of the these values:
 130:Drivers/STM32F0xx_HAL_Driver/Src/stm32f0xx_ll_usb.c ****   *            @arg USB_DEVICE_MODE Peripheral mode
 131:Drivers/STM32F0xx_HAL_Driver/Src/stm32f0xx_ll_usb.c ****   * @retval HAL status
 132:Drivers/STM32F0xx_HAL_Driver/Src/stm32f0xx_ll_usb.c ****   */
 133:Drivers/STM32F0xx_HAL_Driver/Src/stm32f0xx_ll_usb.c **** HAL_StatusTypeDef USB_SetCurrentMode(USB_TypeDef *USBx, USB_ModeTypeDef mode)
 134:Drivers/STM32F0xx_HAL_Driver/Src/stm32f0xx_ll_usb.c **** {
 144              		.loc 1 134 1 is_stmt 1 view -0
 145              		.cfi_startproc
 146              		@ args = 0, pretend = 0, frame = 0
 147              		@ frame_needed = 0, uses_anonymous_args = 0
 148              		@ link register save eliminated.
 135:Drivers/STM32F0xx_HAL_Driver/Src/stm32f0xx_ll_usb.c ****   /* Prevent unused argument(s) compilation warning */
 136:Drivers/STM32F0xx_HAL_Driver/Src/stm32f0xx_ll_usb.c ****   UNUSED(USBx);
 149              		.loc 1 136 3 view .LVU27
 137:Drivers/STM32F0xx_HAL_Driver/Src/stm32f0xx_ll_usb.c ****   UNUSED(mode);
 150              		.loc 1 137 3 view .LVU28
 138:Drivers/STM32F0xx_HAL_Driver/Src/stm32f0xx_ll_usb.c **** 
 139:Drivers/STM32F0xx_HAL_Driver/Src/stm32f0xx_ll_usb.c ****   /* NOTE : - This function is not required by USB Device FS peripheral, it is used
 140:Drivers/STM32F0xx_HAL_Driver/Src/stm32f0xx_ll_usb.c ****               only by USB OTG FS peripheral.
 141:Drivers/STM32F0xx_HAL_Driver/Src/stm32f0xx_ll_usb.c ****             - This function is added to ensure compatibility across platforms.
 142:Drivers/STM32F0xx_HAL_Driver/Src/stm32f0xx_ll_usb.c ****    */
ARM GAS  /var/folders/kr/g9ry2bg56g773797gdtkvvkw0000gn/T//cc7eQgtd.s 			page 6


 143:Drivers/STM32F0xx_HAL_Driver/Src/stm32f0xx_ll_usb.c ****   return HAL_OK;
 151              		.loc 1 143 3 view .LVU29
 144:Drivers/STM32F0xx_HAL_Driver/Src/stm32f0xx_ll_usb.c **** }
 152              		.loc 1 144 1 is_stmt 0 view .LVU30
 153 0000 0020     		movs	r0, #0
 154              	.LVL8:
 155              		.loc 1 144 1 view .LVU31
 156              		@ sp needed
 157 0002 7047     		bx	lr
 158              		.cfi_endproc
 159              	.LFE43:
 161              		.section	.text.USB_DevInit,"ax",%progbits
 162              		.align	1
 163              		.global	USB_DevInit
 164              		.syntax unified
 165              		.code	16
 166              		.thumb_func
 168              	USB_DevInit:
 169              	.LVL9:
 170              	.LFB44:
 145:Drivers/STM32F0xx_HAL_Driver/Src/stm32f0xx_ll_usb.c **** 
 146:Drivers/STM32F0xx_HAL_Driver/Src/stm32f0xx_ll_usb.c **** /**
 147:Drivers/STM32F0xx_HAL_Driver/Src/stm32f0xx_ll_usb.c ****   * @brief  USB_DevInit Initializes the USB controller registers
 148:Drivers/STM32F0xx_HAL_Driver/Src/stm32f0xx_ll_usb.c ****   *         for device mode
 149:Drivers/STM32F0xx_HAL_Driver/Src/stm32f0xx_ll_usb.c ****   * @param  USBx Selected device
 150:Drivers/STM32F0xx_HAL_Driver/Src/stm32f0xx_ll_usb.c ****   * @param  cfg  pointer to a USB_CfgTypeDef structure that contains
 151:Drivers/STM32F0xx_HAL_Driver/Src/stm32f0xx_ll_usb.c ****   *         the configuration information for the specified USBx peripheral.
 152:Drivers/STM32F0xx_HAL_Driver/Src/stm32f0xx_ll_usb.c ****   * @retval HAL status
 153:Drivers/STM32F0xx_HAL_Driver/Src/stm32f0xx_ll_usb.c ****   */
 154:Drivers/STM32F0xx_HAL_Driver/Src/stm32f0xx_ll_usb.c **** HAL_StatusTypeDef USB_DevInit(USB_TypeDef *USBx, USB_CfgTypeDef cfg)
 155:Drivers/STM32F0xx_HAL_Driver/Src/stm32f0xx_ll_usb.c **** {
 171              		.loc 1 155 1 is_stmt 1 view -0
 172              		.cfi_startproc
 173              		@ args = 36, pretend = 16, frame = 0
 174              		@ frame_needed = 0, uses_anonymous_args = 0
 175              		@ link register save eliminated.
 176              		.loc 1 155 1 is_stmt 0 view .LVU33
 177 0000 84B0     		sub	sp, sp, #16
 178              	.LCFI1:
 179              		.cfi_def_cfa_offset 16
 180 0002 0191     		str	r1, [sp, #4]
 181 0004 0292     		str	r2, [sp, #8]
 182 0006 0393     		str	r3, [sp, #12]
 156:Drivers/STM32F0xx_HAL_Driver/Src/stm32f0xx_ll_usb.c ****   /* Prevent unused argument(s) compilation warning */
 157:Drivers/STM32F0xx_HAL_Driver/Src/stm32f0xx_ll_usb.c ****   UNUSED(cfg);
 183              		.loc 1 157 3 is_stmt 1 view .LVU34
 158:Drivers/STM32F0xx_HAL_Driver/Src/stm32f0xx_ll_usb.c **** 
 159:Drivers/STM32F0xx_HAL_Driver/Src/stm32f0xx_ll_usb.c ****   /* Init Device */
 160:Drivers/STM32F0xx_HAL_Driver/Src/stm32f0xx_ll_usb.c ****   /* CNTR_FRES = 1 */
 161:Drivers/STM32F0xx_HAL_Driver/Src/stm32f0xx_ll_usb.c ****   USBx->CNTR = (uint16_t)USB_CNTR_FRES;
 184              		.loc 1 161 3 view .LVU35
 185              		.loc 1 161 14 is_stmt 0 view .LVU36
 186 0008 4022     		movs	r2, #64
 187 000a 0123     		movs	r3, #1
 188 000c 8352     		strh	r3, [r0, r2]
 162:Drivers/STM32F0xx_HAL_Driver/Src/stm32f0xx_ll_usb.c **** 
 163:Drivers/STM32F0xx_HAL_Driver/Src/stm32f0xx_ll_usb.c ****   /* CNTR_FRES = 0 */
ARM GAS  /var/folders/kr/g9ry2bg56g773797gdtkvvkw0000gn/T//cc7eQgtd.s 			page 7


 164:Drivers/STM32F0xx_HAL_Driver/Src/stm32f0xx_ll_usb.c ****   USBx->CNTR = 0U;
 189              		.loc 1 164 3 is_stmt 1 view .LVU37
 190              		.loc 1 164 14 is_stmt 0 view .LVU38
 191 000e 0023     		movs	r3, #0
 192 0010 8352     		strh	r3, [r0, r2]
 165:Drivers/STM32F0xx_HAL_Driver/Src/stm32f0xx_ll_usb.c **** 
 166:Drivers/STM32F0xx_HAL_Driver/Src/stm32f0xx_ll_usb.c ****   /* Clear pending interrupts */
 167:Drivers/STM32F0xx_HAL_Driver/Src/stm32f0xx_ll_usb.c ****   USBx->ISTR = 0U;
 193              		.loc 1 167 3 is_stmt 1 view .LVU39
 194              		.loc 1 167 14 is_stmt 0 view .LVU40
 195 0012 0432     		adds	r2, r2, #4
 196 0014 8352     		strh	r3, [r0, r2]
 168:Drivers/STM32F0xx_HAL_Driver/Src/stm32f0xx_ll_usb.c **** 
 169:Drivers/STM32F0xx_HAL_Driver/Src/stm32f0xx_ll_usb.c ****   /*Set Btable Address*/
 170:Drivers/STM32F0xx_HAL_Driver/Src/stm32f0xx_ll_usb.c ****   USBx->BTABLE = BTABLE_ADDRESS;
 197              		.loc 1 170 3 is_stmt 1 view .LVU41
 198              		.loc 1 170 16 is_stmt 0 view .LVU42
 199 0016 0C32     		adds	r2, r2, #12
 200 0018 8352     		strh	r3, [r0, r2]
 171:Drivers/STM32F0xx_HAL_Driver/Src/stm32f0xx_ll_usb.c **** 
 172:Drivers/STM32F0xx_HAL_Driver/Src/stm32f0xx_ll_usb.c ****   return HAL_OK;
 201              		.loc 1 172 3 is_stmt 1 view .LVU43
 173:Drivers/STM32F0xx_HAL_Driver/Src/stm32f0xx_ll_usb.c **** }
 202              		.loc 1 173 1 is_stmt 0 view .LVU44
 203 001a 0020     		movs	r0, #0
 204              	.LVL10:
 205              		.loc 1 173 1 view .LVU45
 206              		@ sp needed
 207 001c 04B0     		add	sp, sp, #16
 208 001e 7047     		bx	lr
 209              		.cfi_endproc
 210              	.LFE44:
 212              		.section	.text.USB_ActivateEndpoint,"ax",%progbits
 213              		.align	1
 214              		.global	USB_ActivateEndpoint
 215              		.syntax unified
 216              		.code	16
 217              		.thumb_func
 219              	USB_ActivateEndpoint:
 220              	.LVL11:
 221              	.LFB45:
 174:Drivers/STM32F0xx_HAL_Driver/Src/stm32f0xx_ll_usb.c **** 
 175:Drivers/STM32F0xx_HAL_Driver/Src/stm32f0xx_ll_usb.c **** #if defined (HAL_PCD_MODULE_ENABLED)
 176:Drivers/STM32F0xx_HAL_Driver/Src/stm32f0xx_ll_usb.c **** /**
 177:Drivers/STM32F0xx_HAL_Driver/Src/stm32f0xx_ll_usb.c ****   * @brief  Activate and configure an endpoint
 178:Drivers/STM32F0xx_HAL_Driver/Src/stm32f0xx_ll_usb.c ****   * @param  USBx Selected device
 179:Drivers/STM32F0xx_HAL_Driver/Src/stm32f0xx_ll_usb.c ****   * @param  ep pointer to endpoint structure
 180:Drivers/STM32F0xx_HAL_Driver/Src/stm32f0xx_ll_usb.c ****   * @retval HAL status
 181:Drivers/STM32F0xx_HAL_Driver/Src/stm32f0xx_ll_usb.c ****   */
 182:Drivers/STM32F0xx_HAL_Driver/Src/stm32f0xx_ll_usb.c **** HAL_StatusTypeDef USB_ActivateEndpoint(USB_TypeDef *USBx, USB_EPTypeDef *ep)
 183:Drivers/STM32F0xx_HAL_Driver/Src/stm32f0xx_ll_usb.c **** {
 222              		.loc 1 183 1 is_stmt 1 view -0
 223              		.cfi_startproc
 224              		@ args = 0, pretend = 0, frame = 0
 225              		@ frame_needed = 0, uses_anonymous_args = 0
 226              		.loc 1 183 1 is_stmt 0 view .LVU47
 227 0000 F0B5     		push	{r4, r5, r6, r7, lr}
ARM GAS  /var/folders/kr/g9ry2bg56g773797gdtkvvkw0000gn/T//cc7eQgtd.s 			page 8


 228              	.LCFI2:
 229              		.cfi_def_cfa_offset 20
 230              		.cfi_offset 4, -20
 231              		.cfi_offset 5, -16
 232              		.cfi_offset 6, -12
 233              		.cfi_offset 7, -8
 234              		.cfi_offset 14, -4
 235 0002 0300     		movs	r3, r0
 184:Drivers/STM32F0xx_HAL_Driver/Src/stm32f0xx_ll_usb.c ****   HAL_StatusTypeDef ret = HAL_OK;
 236              		.loc 1 184 3 is_stmt 1 view .LVU48
 237              	.LVL12:
 185:Drivers/STM32F0xx_HAL_Driver/Src/stm32f0xx_ll_usb.c ****   uint16_t wEpRegVal;
 238              		.loc 1 185 3 view .LVU49
 186:Drivers/STM32F0xx_HAL_Driver/Src/stm32f0xx_ll_usb.c **** 
 187:Drivers/STM32F0xx_HAL_Driver/Src/stm32f0xx_ll_usb.c ****   wEpRegVal = PCD_GET_ENDPOINT(USBx, ep->num) & USB_EP_T_MASK;
 239              		.loc 1 187 3 view .LVU50
 240              		.loc 1 187 15 is_stmt 0 view .LVU51
 241 0004 0D78     		ldrb	r5, [r1]
 242 0006 AD00     		lsls	r5, r5, #2
 243 0008 4519     		adds	r5, r0, r5
 244              		.loc 1 187 47 view .LVU52
 245 000a 2A88     		ldrh	r2, [r5]
 246              		.loc 1 187 13 view .LVU53
 247 000c B948     		ldr	r0, .L49
 248              	.LVL13:
 249              		.loc 1 187 13 view .LVU54
 250 000e 0240     		ands	r2, r0
 251              	.LVL14:
 188:Drivers/STM32F0xx_HAL_Driver/Src/stm32f0xx_ll_usb.c **** 
 189:Drivers/STM32F0xx_HAL_Driver/Src/stm32f0xx_ll_usb.c ****   /* initialize Endpoint */
 190:Drivers/STM32F0xx_HAL_Driver/Src/stm32f0xx_ll_usb.c ****   switch (ep->type)
 252              		.loc 1 190 3 is_stmt 1 view .LVU55
 253              		.loc 1 190 13 is_stmt 0 view .LVU56
 254 0010 C878     		ldrb	r0, [r1, #3]
 255              		.loc 1 190 3 view .LVU57
 256 0012 0228     		cmp	r0, #2
 257 0014 57D0     		beq	.L37
 258 0016 0AD8     		bhi	.L12
 259 0018 0028     		cmp	r0, #0
 260 001a 11D0     		beq	.L13
 261 001c 0128     		cmp	r0, #1
 262 001e 04D1     		bne	.L46
 191:Drivers/STM32F0xx_HAL_Driver/Src/stm32f0xx_ll_usb.c ****   {
 192:Drivers/STM32F0xx_HAL_Driver/Src/stm32f0xx_ll_usb.c ****     case EP_TYPE_CTRL:
 193:Drivers/STM32F0xx_HAL_Driver/Src/stm32f0xx_ll_usb.c ****       wEpRegVal |= USB_EP_CONTROL;
 194:Drivers/STM32F0xx_HAL_Driver/Src/stm32f0xx_ll_usb.c ****       break;
 195:Drivers/STM32F0xx_HAL_Driver/Src/stm32f0xx_ll_usb.c **** 
 196:Drivers/STM32F0xx_HAL_Driver/Src/stm32f0xx_ll_usb.c ****     case EP_TYPE_BULK:
 197:Drivers/STM32F0xx_HAL_Driver/Src/stm32f0xx_ll_usb.c ****       wEpRegVal |= USB_EP_BULK;
 198:Drivers/STM32F0xx_HAL_Driver/Src/stm32f0xx_ll_usb.c ****       break;
 199:Drivers/STM32F0xx_HAL_Driver/Src/stm32f0xx_ll_usb.c **** 
 200:Drivers/STM32F0xx_HAL_Driver/Src/stm32f0xx_ll_usb.c ****     case EP_TYPE_INTR:
 201:Drivers/STM32F0xx_HAL_Driver/Src/stm32f0xx_ll_usb.c ****       wEpRegVal |= USB_EP_INTERRUPT;
 202:Drivers/STM32F0xx_HAL_Driver/Src/stm32f0xx_ll_usb.c ****       break;
 203:Drivers/STM32F0xx_HAL_Driver/Src/stm32f0xx_ll_usb.c **** 
 204:Drivers/STM32F0xx_HAL_Driver/Src/stm32f0xx_ll_usb.c ****     case EP_TYPE_ISOC:
 205:Drivers/STM32F0xx_HAL_Driver/Src/stm32f0xx_ll_usb.c ****       wEpRegVal |= USB_EP_ISOCHRONOUS;
ARM GAS  /var/folders/kr/g9ry2bg56g773797gdtkvvkw0000gn/T//cc7eQgtd.s 			page 9


 263              		.loc 1 205 7 is_stmt 1 view .LVU58
 264              		.loc 1 205 17 is_stmt 0 view .LVU59
 265 0020 8020     		movs	r0, #128
 266 0022 C000     		lsls	r0, r0, #3
 267 0024 0243     		orrs	r2, r0
 268              	.LVL15:
 206:Drivers/STM32F0xx_HAL_Driver/Src/stm32f0xx_ll_usb.c ****       break;
 269              		.loc 1 206 7 is_stmt 1 view .LVU60
 184:Drivers/STM32F0xx_HAL_Driver/Src/stm32f0xx_ll_usb.c ****   uint16_t wEpRegVal;
 270              		.loc 1 184 21 is_stmt 0 view .LVU61
 271 0026 0020     		movs	r0, #0
 272              		.loc 1 206 7 view .LVU62
 273 0028 0DE0     		b	.L11
 274              	.L46:
 207:Drivers/STM32F0xx_HAL_Driver/Src/stm32f0xx_ll_usb.c **** 
 208:Drivers/STM32F0xx_HAL_Driver/Src/stm32f0xx_ll_usb.c ****     default:
 209:Drivers/STM32F0xx_HAL_Driver/Src/stm32f0xx_ll_usb.c ****       ret = HAL_ERROR;
 275              		.loc 1 209 11 view .LVU63
 276 002a 0120     		movs	r0, #1
 277 002c 0BE0     		b	.L11
 278              	.L12:
 190:Drivers/STM32F0xx_HAL_Driver/Src/stm32f0xx_ll_usb.c ****   {
 279              		.loc 1 190 3 view .LVU64
 280 002e 0328     		cmp	r0, #3
 281 0030 04D1     		bne	.L47
 201:Drivers/STM32F0xx_HAL_Driver/Src/stm32f0xx_ll_usb.c ****       break;
 282              		.loc 1 201 7 is_stmt 1 view .LVU65
 201:Drivers/STM32F0xx_HAL_Driver/Src/stm32f0xx_ll_usb.c ****       break;
 283              		.loc 1 201 17 is_stmt 0 view .LVU66
 284 0032 C020     		movs	r0, #192
 285 0034 C000     		lsls	r0, r0, #3
 286 0036 0243     		orrs	r2, r0
 287              	.LVL16:
 202:Drivers/STM32F0xx_HAL_Driver/Src/stm32f0xx_ll_usb.c **** 
 288              		.loc 1 202 7 is_stmt 1 view .LVU67
 184:Drivers/STM32F0xx_HAL_Driver/Src/stm32f0xx_ll_usb.c ****   uint16_t wEpRegVal;
 289              		.loc 1 184 21 is_stmt 0 view .LVU68
 290 0038 0020     		movs	r0, #0
 202:Drivers/STM32F0xx_HAL_Driver/Src/stm32f0xx_ll_usb.c **** 
 291              		.loc 1 202 7 view .LVU69
 292 003a 04E0     		b	.L11
 293              	.L47:
 294              		.loc 1 209 11 view .LVU70
 295 003c 0120     		movs	r0, #1
 296 003e 02E0     		b	.L11
 297              	.L13:
 193:Drivers/STM32F0xx_HAL_Driver/Src/stm32f0xx_ll_usb.c ****       break;
 298              		.loc 1 193 7 is_stmt 1 view .LVU71
 193:Drivers/STM32F0xx_HAL_Driver/Src/stm32f0xx_ll_usb.c ****       break;
 299              		.loc 1 193 17 is_stmt 0 view .LVU72
 300 0040 8024     		movs	r4, #128
 301 0042 A400     		lsls	r4, r4, #2
 302 0044 2243     		orrs	r2, r4
 303              	.LVL17:
 194:Drivers/STM32F0xx_HAL_Driver/Src/stm32f0xx_ll_usb.c **** 
 304              		.loc 1 194 7 is_stmt 1 view .LVU73
 305              	.L11:
ARM GAS  /var/folders/kr/g9ry2bg56g773797gdtkvvkw0000gn/T//cc7eQgtd.s 			page 10


 210:Drivers/STM32F0xx_HAL_Driver/Src/stm32f0xx_ll_usb.c ****       break;
 211:Drivers/STM32F0xx_HAL_Driver/Src/stm32f0xx_ll_usb.c ****   }
 212:Drivers/STM32F0xx_HAL_Driver/Src/stm32f0xx_ll_usb.c **** 
 213:Drivers/STM32F0xx_HAL_Driver/Src/stm32f0xx_ll_usb.c ****   PCD_SET_ENDPOINT(USBx, ep->num, (wEpRegVal | USB_EP_CTR_RX | USB_EP_CTR_TX));
 306              		.loc 1 213 3 view .LVU74
 307 0046 AC4C     		ldr	r4, .L49+4
 308 0048 2243     		orrs	r2, r4
 309              	.LVL18:
 310              		.loc 1 213 3 is_stmt 0 view .LVU75
 311 004a 92B2     		uxth	r2, r2
 312 004c 2A80     		strh	r2, [r5]
 214:Drivers/STM32F0xx_HAL_Driver/Src/stm32f0xx_ll_usb.c **** 
 215:Drivers/STM32F0xx_HAL_Driver/Src/stm32f0xx_ll_usb.c ****   PCD_SET_EP_ADDRESS(USBx, ep->num, ep->num);
 313              		.loc 1 215 3 is_stmt 1 view .LVU76
 314              	.LBB2:
 315              		.loc 1 215 3 view .LVU77
 316              		.loc 1 215 3 view .LVU78
 317 004e 0D78     		ldrb	r5, [r1]
 318 0050 AA00     		lsls	r2, r5, #2
 319 0052 9A18     		adds	r2, r3, r2
 320 0054 1688     		ldrh	r6, [r2]
 321 0056 A94F     		ldr	r7, .L49+8
 322 0058 3E40     		ands	r6, r7
 323 005a 3543     		orrs	r5, r6
 324              	.LVL19:
 325              		.loc 1 215 3 view .LVU79
 326 005c 2C43     		orrs	r4, r5
 327 005e A4B2     		uxth	r4, r4
 328 0060 1480     		strh	r4, [r2]
 329              	.LBE2:
 330              		.loc 1 215 3 view .LVU80
 216:Drivers/STM32F0xx_HAL_Driver/Src/stm32f0xx_ll_usb.c **** 
 217:Drivers/STM32F0xx_HAL_Driver/Src/stm32f0xx_ll_usb.c ****   if (ep->doublebuffer == 0U)
 331              		.loc 1 217 3 view .LVU81
 332              		.loc 1 217 9 is_stmt 0 view .LVU82
 333 0062 0A7B     		ldrb	r2, [r1, #12]
 334              		.loc 1 217 6 view .LVU83
 335 0064 002A     		cmp	r2, #0
 336 0066 00D0     		beq	.LCB263
 337 0068 9EE0     		b	.L16	@long jump
 338              	.LCB263:
 218:Drivers/STM32F0xx_HAL_Driver/Src/stm32f0xx_ll_usb.c ****   {
 219:Drivers/STM32F0xx_HAL_Driver/Src/stm32f0xx_ll_usb.c ****     if (ep->is_in != 0U)
 339              		.loc 1 219 5 is_stmt 1 view .LVU84
 340              		.loc 1 219 11 is_stmt 0 view .LVU85
 341 006a 4A78     		ldrb	r2, [r1, #1]
 342              		.loc 1 219 8 view .LVU86
 343 006c 002A     		cmp	r2, #0
 344 006e 37D0     		beq	.L17
 220:Drivers/STM32F0xx_HAL_Driver/Src/stm32f0xx_ll_usb.c ****     {
 221:Drivers/STM32F0xx_HAL_Driver/Src/stm32f0xx_ll_usb.c ****       /*Set the endpoint Transmit buffer address */
 222:Drivers/STM32F0xx_HAL_Driver/Src/stm32f0xx_ll_usb.c ****       PCD_SET_EP_TX_ADDRESS(USBx, ep->num, ep->pmaadress);
 345              		.loc 1 222 7 is_stmt 1 view .LVU87
 346              	.LBB3:
 347              		.loc 1 222 7 view .LVU88
 348              		.loc 1 222 7 view .LVU89
 349              	.LVL20:
ARM GAS  /var/folders/kr/g9ry2bg56g773797gdtkvvkw0000gn/T//cc7eQgtd.s 			page 11


 350              		.loc 1 222 7 view .LVU90
 351 0070 5022     		movs	r2, #80
 352 0072 9C5A     		ldrh	r4, [r3, r2]
 353 0074 1C19     		adds	r4, r3, r4
 354              	.LVL21:
 355              		.loc 1 222 7 view .LVU91
 356 0076 0A78     		ldrb	r2, [r1]
 357 0078 D200     		lsls	r2, r2, #3
 358 007a 1219     		adds	r2, r2, r4
 359 007c 8024     		movs	r4, #128
 360              	.LVL22:
 361              		.loc 1 222 7 is_stmt 0 view .LVU92
 362 007e E400     		lsls	r4, r4, #3
 363 0080 A446     		mov	ip, r4
 364 0082 6244     		add	r2, r2, ip
 365              	.LVL23:
 366              		.loc 1 222 7 is_stmt 1 view .LVU93
 367 0084 CC88     		ldrh	r4, [r1, #6]
 368 0086 6408     		lsrs	r4, r4, #1
 369 0088 6400     		lsls	r4, r4, #1
 370 008a 1480     		strh	r4, [r2]
 371              	.LBE3:
 372              		.loc 1 222 7 view .LVU94
 223:Drivers/STM32F0xx_HAL_Driver/Src/stm32f0xx_ll_usb.c ****       PCD_CLEAR_TX_DTOG(USBx, ep->num);
 373              		.loc 1 223 7 view .LVU95
 374              	.LBB4:
 375              		.loc 1 223 7 view .LVU96
 376              		.loc 1 223 7 view .LVU97
 377 008c 0A78     		ldrb	r2, [r1]
 378              	.LVL24:
 379              		.loc 1 223 7 is_stmt 0 view .LVU98
 380 008e 9200     		lsls	r2, r2, #2
 381 0090 9A18     		adds	r2, r3, r2
 382 0092 1488     		ldrh	r4, [r2]
 383              	.LVL25:
 384              		.loc 1 223 7 is_stmt 1 view .LVU99
 385 0094 6406     		lsls	r4, r4, #25
 386 0096 05D5     		bpl	.L18
 387              	.LVL26:
 388              		.loc 1 223 7 discriminator 1 view .LVU100
 389              	.LBB5:
 390              		.loc 1 223 7 discriminator 1 view .LVU101
 391              		.loc 1 223 7 discriminator 1 view .LVU102
 392 0098 1588     		ldrh	r5, [r2]
 393              	.LVL27:
 394              		.loc 1 223 7 is_stmt 0 discriminator 1 view .LVU103
 395 009a 3D40     		ands	r5, r7
 396              	.LVL28:
 397              		.loc 1 223 7 is_stmt 1 discriminator 1 view .LVU104
 398 009c 984C     		ldr	r4, .L49+12
 399 009e 2C43     		orrs	r4, r5
 400 00a0 A4B2     		uxth	r4, r4
 401 00a2 1480     		strh	r4, [r2]
 402              	.LVL29:
 403              	.L18:
 404              		.loc 1 223 7 is_stmt 0 discriminator 1 view .LVU105
 405              	.LBE5:
ARM GAS  /var/folders/kr/g9ry2bg56g773797gdtkvvkw0000gn/T//cc7eQgtd.s 			page 12


 406              		.loc 1 223 7 is_stmt 1 discriminator 3 view .LVU106
 407              	.LBE4:
 408              		.loc 1 223 7 discriminator 3 view .LVU107
 224:Drivers/STM32F0xx_HAL_Driver/Src/stm32f0xx_ll_usb.c **** 
 225:Drivers/STM32F0xx_HAL_Driver/Src/stm32f0xx_ll_usb.c ****       if (ep->type != EP_TYPE_ISOC)
 409              		.loc 1 225 7 view .LVU108
 410              		.loc 1 225 13 is_stmt 0 view .LVU109
 411 00a4 CA78     		ldrb	r2, [r1, #3]
 412              		.loc 1 225 10 view .LVU110
 413 00a6 012A     		cmp	r2, #1
 414 00a8 0FD0     		beq	.L19
 226:Drivers/STM32F0xx_HAL_Driver/Src/stm32f0xx_ll_usb.c ****       {
 227:Drivers/STM32F0xx_HAL_Driver/Src/stm32f0xx_ll_usb.c ****         /* Configure NAK status for the Endpoint */
 228:Drivers/STM32F0xx_HAL_Driver/Src/stm32f0xx_ll_usb.c ****         PCD_SET_EP_TX_STATUS(USBx, ep->num, USB_EP_TX_NAK);
 415              		.loc 1 228 9 is_stmt 1 view .LVU111
 416              	.LBB6:
 417              		.loc 1 228 9 view .LVU112
 418              		.loc 1 228 9 view .LVU113
 419 00aa 0A78     		ldrb	r2, [r1]
 420 00ac 9200     		lsls	r2, r2, #2
 421 00ae 9A18     		adds	r2, r3, r2
 422 00b0 1388     		ldrh	r3, [r2]
 423              	.LVL30:
 424              		.loc 1 228 9 is_stmt 0 view .LVU114
 425 00b2 9449     		ldr	r1, .L49+16
 426              	.LVL31:
 427              		.loc 1 228 9 view .LVU115
 428 00b4 0B40     		ands	r3, r1
 429              	.LVL32:
 430              		.loc 1 228 9 is_stmt 1 view .LVU116
 431              		.loc 1 228 9 discriminator 3 view .LVU117
 432              		.loc 1 228 9 discriminator 4 view .LVU118
 433 00b6 2021     		movs	r1, #32
 434 00b8 4B40     		eors	r3, r1
 435              	.LVL33:
 436              		.loc 1 228 9 is_stmt 0 discriminator 4 view .LVU119
 437 00ba 9BB2     		uxth	r3, r3
 438              	.LVL34:
 439              		.loc 1 228 9 is_stmt 1 discriminator 6 view .LVU120
 440 00bc 8E49     		ldr	r1, .L49+4
 441 00be 0B43     		orrs	r3, r1
 442              	.LVL35:
 443              		.loc 1 228 9 is_stmt 0 discriminator 6 view .LVU121
 444 00c0 9BB2     		uxth	r3, r3
 445 00c2 1380     		strh	r3, [r2]
 446              	.LBE6:
 447              		.loc 1 228 9 is_stmt 1 discriminator 6 view .LVU122
 448 00c4 CAE0     		b	.L20
 449              	.LVL36:
 450              	.L37:
 190:Drivers/STM32F0xx_HAL_Driver/Src/stm32f0xx_ll_usb.c ****   {
 451              		.loc 1 190 3 is_stmt 0 view .LVU123
 452 00c6 0020     		movs	r0, #0
 453 00c8 BDE7     		b	.L11
 454              	.LVL37:
 455              	.L19:
 229:Drivers/STM32F0xx_HAL_Driver/Src/stm32f0xx_ll_usb.c ****       }
ARM GAS  /var/folders/kr/g9ry2bg56g773797gdtkvvkw0000gn/T//cc7eQgtd.s 			page 13


 230:Drivers/STM32F0xx_HAL_Driver/Src/stm32f0xx_ll_usb.c ****       else
 231:Drivers/STM32F0xx_HAL_Driver/Src/stm32f0xx_ll_usb.c ****       {
 232:Drivers/STM32F0xx_HAL_Driver/Src/stm32f0xx_ll_usb.c ****         /* Configure TX Endpoint to disabled state */
 233:Drivers/STM32F0xx_HAL_Driver/Src/stm32f0xx_ll_usb.c ****         PCD_SET_EP_TX_STATUS(USBx, ep->num, USB_EP_TX_DIS);
 456              		.loc 1 233 9 is_stmt 1 view .LVU124
 457              	.LBB7:
 458              		.loc 1 233 9 view .LVU125
 459              		.loc 1 233 9 view .LVU126
 460 00ca 0A78     		ldrb	r2, [r1]
 461 00cc 9200     		lsls	r2, r2, #2
 462 00ce 9B18     		adds	r3, r3, r2
 463              	.LVL38:
 464              		.loc 1 233 9 is_stmt 0 view .LVU127
 465 00d0 1988     		ldrh	r1, [r3]
 466              	.LVL39:
 467              		.loc 1 233 9 view .LVU128
 468 00d2 8C4A     		ldr	r2, .L49+16
 469 00d4 1140     		ands	r1, r2
 470              	.LVL40:
 471              		.loc 1 233 9 is_stmt 1 view .LVU129
 472              		.loc 1 233 9 discriminator 3 view .LVU130
 473              		.loc 1 233 9 discriminator 6 view .LVU131
 474 00d6 884A     		ldr	r2, .L49+4
 475 00d8 0A43     		orrs	r2, r1
 476 00da 92B2     		uxth	r2, r2
 477 00dc 1A80     		strh	r2, [r3]
 478 00de BDE0     		b	.L20
 479              	.LVL41:
 480              	.L17:
 481              		.loc 1 233 9 is_stmt 0 discriminator 6 view .LVU132
 482              	.LBE7:
 234:Drivers/STM32F0xx_HAL_Driver/Src/stm32f0xx_ll_usb.c ****       }
 235:Drivers/STM32F0xx_HAL_Driver/Src/stm32f0xx_ll_usb.c ****     }
 236:Drivers/STM32F0xx_HAL_Driver/Src/stm32f0xx_ll_usb.c ****     else
 237:Drivers/STM32F0xx_HAL_Driver/Src/stm32f0xx_ll_usb.c ****     {
 238:Drivers/STM32F0xx_HAL_Driver/Src/stm32f0xx_ll_usb.c ****       /* Set the endpoint Receive buffer address */
 239:Drivers/STM32F0xx_HAL_Driver/Src/stm32f0xx_ll_usb.c ****       PCD_SET_EP_RX_ADDRESS(USBx, ep->num, ep->pmaadress);
 483              		.loc 1 239 7 is_stmt 1 view .LVU133
 484              	.LBB8:
 485              		.loc 1 239 7 view .LVU134
 486              		.loc 1 239 7 view .LVU135
 487              		.loc 1 239 7 view .LVU136
 488 00e0 5025     		movs	r5, #80
 489              	.LVL42:
 490              		.loc 1 239 7 is_stmt 0 view .LVU137
 491 00e2 5C5B     		ldrh	r4, [r3, r5]
 492 00e4 1C19     		adds	r4, r3, r4
 493              	.LVL43:
 494              		.loc 1 239 7 is_stmt 1 view .LVU138
 495 00e6 0A78     		ldrb	r2, [r1]
 496 00e8 D200     		lsls	r2, r2, #3
 497 00ea 1219     		adds	r2, r2, r4
 498 00ec 864C     		ldr	r4, .L49+20
 499              	.LVL44:
 500              		.loc 1 239 7 is_stmt 0 view .LVU139
 501 00ee A446     		mov	ip, r4
 502 00f0 6244     		add	r2, r2, ip
ARM GAS  /var/folders/kr/g9ry2bg56g773797gdtkvvkw0000gn/T//cc7eQgtd.s 			page 14


 503              	.LVL45:
 504              		.loc 1 239 7 is_stmt 1 view .LVU140
 505 00f2 CC88     		ldrh	r4, [r1, #6]
 506 00f4 6408     		lsrs	r4, r4, #1
 507 00f6 6400     		lsls	r4, r4, #1
 508 00f8 1480     		strh	r4, [r2]
 509              	.LBE8:
 510              		.loc 1 239 7 view .LVU141
 240:Drivers/STM32F0xx_HAL_Driver/Src/stm32f0xx_ll_usb.c **** 
 241:Drivers/STM32F0xx_HAL_Driver/Src/stm32f0xx_ll_usb.c ****       /* Set the endpoint Receive buffer counter */
 242:Drivers/STM32F0xx_HAL_Driver/Src/stm32f0xx_ll_usb.c ****       PCD_SET_EP_RX_CNT(USBx, ep->num, ep->maxpacket);
 511              		.loc 1 242 7 view .LVU142
 512              	.LBB9:
 513              		.loc 1 242 7 view .LVU143
 514              	.LVL46:
 515              		.loc 1 242 7 view .LVU144
 516              		.loc 1 242 7 view .LVU145
 517 00fa 5C5B     		ldrh	r4, [r3, r5]
 518 00fc 1C19     		adds	r4, r3, r4
 519              	.LVL47:
 520              		.loc 1 242 7 view .LVU146
 521 00fe 0A78     		ldrb	r2, [r1]
 522              	.LVL48:
 523              		.loc 1 242 7 is_stmt 0 view .LVU147
 524 0100 D200     		lsls	r2, r2, #3
 525 0102 1219     		adds	r2, r2, r4
 526 0104 814C     		ldr	r4, .L49+24
 527              	.LVL49:
 528              		.loc 1 242 7 view .LVU148
 529 0106 A446     		mov	ip, r4
 530 0108 6244     		add	r2, r2, ip
 531              	.LVL50:
 532              		.loc 1 242 7 is_stmt 1 view .LVU149
 533              	.LBB10:
 534              		.loc 1 242 7 view .LVU150
 535              		.loc 1 242 7 view .LVU151
 536 010a 1488     		ldrh	r4, [r2]
 537 010c A405     		lsls	r4, r4, #22
 538 010e A40D     		lsrs	r4, r4, #22
 539 0110 1480     		strh	r4, [r2]
 540              		.loc 1 242 7 view .LVU152
 541 0112 0C69     		ldr	r4, [r1, #16]
 542 0114 3E2C     		cmp	r4, #62
 543 0116 28D9     		bls	.L21
 544              		.loc 1 242 7 discriminator 1 view .LVU153
 545              		.loc 1 242 7 discriminator 1 view .LVU154
 546 0118 6509     		lsrs	r5, r4, #5
 547              	.LVL51:
 548              		.loc 1 242 7 discriminator 1 view .LVU155
 549 011a E406     		lsls	r4, r4, #27
 550 011c 00D1     		bne	.L22
 551              		.loc 1 242 7 discriminator 3 view .LVU156
 552 011e 013D     		subs	r5, r5, #1
 553              	.LVL52:
 554              	.L22:
 555              		.loc 1 242 7 discriminator 5 view .LVU157
 556 0120 1488     		ldrh	r4, [r2]
ARM GAS  /var/folders/kr/g9ry2bg56g773797gdtkvvkw0000gn/T//cc7eQgtd.s 			page 15


 557 0122 AD02     		lsls	r5, r5, #10
 558              	.LVL53:
 559              		.loc 1 242 7 is_stmt 0 discriminator 5 view .LVU158
 560 0124 ADB2     		uxth	r5, r5
 561 0126 2543     		orrs	r5, r4
 562 0128 794C     		ldr	r4, .L49+28
 563 012a 2C43     		orrs	r4, r5
 564 012c A4B2     		uxth	r4, r4
 565 012e 1480     		strh	r4, [r2]
 566              		.loc 1 242 7 is_stmt 1 discriminator 5 view .LVU159
 567              	.LVL54:
 568              	.L23:
 569              		.loc 1 242 7 discriminator 13 view .LVU160
 570              	.LBE10:
 571              		.loc 1 242 7 discriminator 13 view .LVU161
 572              	.LBE9:
 573              		.loc 1 242 7 discriminator 13 view .LVU162
 243:Drivers/STM32F0xx_HAL_Driver/Src/stm32f0xx_ll_usb.c ****       PCD_CLEAR_RX_DTOG(USBx, ep->num);
 574              		.loc 1 243 7 view .LVU163
 575              	.LBB12:
 576              		.loc 1 243 7 view .LVU164
 577              		.loc 1 243 7 view .LVU165
 578 0130 0A78     		ldrb	r2, [r1]
 579              	.LVL55:
 580              		.loc 1 243 7 is_stmt 0 view .LVU166
 581 0132 9200     		lsls	r2, r2, #2
 582 0134 9A18     		adds	r2, r3, r2
 583 0136 1488     		ldrh	r4, [r2]
 584              	.LVL56:
 585              		.loc 1 243 7 is_stmt 1 view .LVU167
 586 0138 6404     		lsls	r4, r4, #17
 587 013a 06D5     		bpl	.L26
 588              	.LVL57:
 589              		.loc 1 243 7 discriminator 1 view .LVU168
 590              	.LBB13:
 591              		.loc 1 243 7 discriminator 1 view .LVU169
 592              		.loc 1 243 7 discriminator 1 view .LVU170
 593 013c 1588     		ldrh	r5, [r2]
 594 013e 6F4C     		ldr	r4, .L49+8
 595 0140 2540     		ands	r5, r4
 596              	.LVL58:
 597              		.loc 1 243 7 discriminator 1 view .LVU171
 598 0142 744C     		ldr	r4, .L49+32
 599 0144 2C43     		orrs	r4, r5
 600 0146 A4B2     		uxth	r4, r4
 601 0148 1480     		strh	r4, [r2]
 602              	.LVL59:
 603              	.L26:
 604              		.loc 1 243 7 is_stmt 0 discriminator 1 view .LVU172
 605              	.LBE13:
 606              		.loc 1 243 7 is_stmt 1 discriminator 3 view .LVU173
 607              	.LBE12:
 608              		.loc 1 243 7 discriminator 3 view .LVU174
 244:Drivers/STM32F0xx_HAL_Driver/Src/stm32f0xx_ll_usb.c **** 
 245:Drivers/STM32F0xx_HAL_Driver/Src/stm32f0xx_ll_usb.c ****       if (ep->num == 0U)
 609              		.loc 1 245 7 view .LVU175
 610              		.loc 1 245 13 is_stmt 0 view .LVU176
ARM GAS  /var/folders/kr/g9ry2bg56g773797gdtkvvkw0000gn/T//cc7eQgtd.s 			page 16


 611 014a 0A78     		ldrb	r2, [r1]
 612              		.loc 1 245 10 view .LVU177
 613 014c 002A     		cmp	r2, #0
 614 014e 1ED1     		bne	.L27
 246:Drivers/STM32F0xx_HAL_Driver/Src/stm32f0xx_ll_usb.c ****       {
 247:Drivers/STM32F0xx_HAL_Driver/Src/stm32f0xx_ll_usb.c ****         /* Configure VALID status for EP0 */
 248:Drivers/STM32F0xx_HAL_Driver/Src/stm32f0xx_ll_usb.c ****         PCD_SET_EP_RX_STATUS(USBx, ep->num, USB_EP_RX_VALID);
 615              		.loc 1 248 9 is_stmt 1 view .LVU178
 616              	.LBB14:
 617              		.loc 1 248 9 view .LVU179
 618              		.loc 1 248 9 view .LVU180
 619 0150 9200     		lsls	r2, r2, #2
 620 0152 9A18     		adds	r2, r3, r2
 621 0154 1388     		ldrh	r3, [r2]
 622              	.LVL60:
 623              		.loc 1 248 9 is_stmt 0 view .LVU181
 624 0156 7049     		ldr	r1, .L49+36
 625              	.LVL61:
 626              		.loc 1 248 9 view .LVU182
 627 0158 0B40     		ands	r3, r1
 628              	.LVL62:
 629              		.loc 1 248 9 is_stmt 1 view .LVU183
 630              		.loc 1 248 9 discriminator 1 view .LVU184
 631              		.loc 1 248 9 discriminator 3 view .LVU185
 632              		.loc 1 248 9 discriminator 4 view .LVU186
 633 015a C021     		movs	r1, #192
 634 015c 8901     		lsls	r1, r1, #6
 635 015e 5940     		eors	r1, r3
 636              	.LVL63:
 637              		.loc 1 248 9 discriminator 6 view .LVU187
 638 0160 654B     		ldr	r3, .L49+4
 639 0162 0B43     		orrs	r3, r1
 640 0164 9BB2     		uxth	r3, r3
 641 0166 1380     		strh	r3, [r2]
 642              	.LBE14:
 643              		.loc 1 248 9 discriminator 6 view .LVU188
 644 0168 78E0     		b	.L20
 645              	.LVL64:
 646              	.L21:
 647              	.LBB15:
 648              	.LBB11:
 242:Drivers/STM32F0xx_HAL_Driver/Src/stm32f0xx_ll_usb.c ****       PCD_CLEAR_RX_DTOG(USBx, ep->num);
 649              		.loc 1 242 7 discriminator 2 view .LVU189
 650 016a 002C     		cmp	r4, #0
 651 016c 05D1     		bne	.L24
 242:Drivers/STM32F0xx_HAL_Driver/Src/stm32f0xx_ll_usb.c ****       PCD_CLEAR_RX_DTOG(USBx, ep->num);
 652              		.loc 1 242 7 discriminator 7 view .LVU190
 653 016e 1488     		ldrh	r4, [r2]
 654 0170 674D     		ldr	r5, .L49+28
 655 0172 2C43     		orrs	r4, r5
 656 0174 A4B2     		uxth	r4, r4
 657 0176 1480     		strh	r4, [r2]
 658 0178 DAE7     		b	.L23
 659              	.L24:
 242:Drivers/STM32F0xx_HAL_Driver/Src/stm32f0xx_ll_usb.c ****       PCD_CLEAR_RX_DTOG(USBx, ep->num);
 660              		.loc 1 242 7 discriminator 8 view .LVU191
 242:Drivers/STM32F0xx_HAL_Driver/Src/stm32f0xx_ll_usb.c ****       PCD_CLEAR_RX_DTOG(USBx, ep->num);
ARM GAS  /var/folders/kr/g9ry2bg56g773797gdtkvvkw0000gn/T//cc7eQgtd.s 			page 17


 661              		.loc 1 242 7 discriminator 8 view .LVU192
 662 017a 6508     		lsrs	r5, r4, #1
 663              	.LVL65:
 242:Drivers/STM32F0xx_HAL_Driver/Src/stm32f0xx_ll_usb.c ****       PCD_CLEAR_RX_DTOG(USBx, ep->num);
 664              		.loc 1 242 7 discriminator 8 view .LVU193
 665 017c E407     		lsls	r4, r4, #31
 666 017e 00D5     		bpl	.L25
 242:Drivers/STM32F0xx_HAL_Driver/Src/stm32f0xx_ll_usb.c ****       PCD_CLEAR_RX_DTOG(USBx, ep->num);
 667              		.loc 1 242 7 discriminator 10 view .LVU194
 668 0180 0135     		adds	r5, r5, #1
 669              	.LVL66:
 670              	.L25:
 242:Drivers/STM32F0xx_HAL_Driver/Src/stm32f0xx_ll_usb.c ****       PCD_CLEAR_RX_DTOG(USBx, ep->num);
 671              		.loc 1 242 7 discriminator 12 view .LVU195
 672 0182 1488     		ldrh	r4, [r2]
 673 0184 AD02     		lsls	r5, r5, #10
 674              	.LVL67:
 242:Drivers/STM32F0xx_HAL_Driver/Src/stm32f0xx_ll_usb.c ****       PCD_CLEAR_RX_DTOG(USBx, ep->num);
 675              		.loc 1 242 7 is_stmt 0 discriminator 12 view .LVU196
 676 0186 ADB2     		uxth	r5, r5
 677 0188 2C43     		orrs	r4, r5
 678 018a 1480     		strh	r4, [r2]
 679 018c D0E7     		b	.L23
 680              	.LVL68:
 681              	.L27:
 242:Drivers/STM32F0xx_HAL_Driver/Src/stm32f0xx_ll_usb.c ****       PCD_CLEAR_RX_DTOG(USBx, ep->num);
 682              		.loc 1 242 7 discriminator 12 view .LVU197
 683              	.LBE11:
 684              	.LBE15:
 249:Drivers/STM32F0xx_HAL_Driver/Src/stm32f0xx_ll_usb.c ****       }
 250:Drivers/STM32F0xx_HAL_Driver/Src/stm32f0xx_ll_usb.c ****       else
 251:Drivers/STM32F0xx_HAL_Driver/Src/stm32f0xx_ll_usb.c ****       {
 252:Drivers/STM32F0xx_HAL_Driver/Src/stm32f0xx_ll_usb.c ****         /* Configure NAK status for OUT Endpoint */
 253:Drivers/STM32F0xx_HAL_Driver/Src/stm32f0xx_ll_usb.c ****         PCD_SET_EP_RX_STATUS(USBx, ep->num, USB_EP_RX_NAK);
 685              		.loc 1 253 9 is_stmt 1 view .LVU198
 686              	.LBB16:
 687              		.loc 1 253 9 view .LVU199
 688              		.loc 1 253 9 view .LVU200
 689 018e 9200     		lsls	r2, r2, #2
 690 0190 9A18     		adds	r2, r3, r2
 691 0192 1388     		ldrh	r3, [r2]
 692              	.LVL69:
 693              		.loc 1 253 9 is_stmt 0 view .LVU201
 694 0194 6049     		ldr	r1, .L49+36
 695              	.LVL70:
 696              		.loc 1 253 9 view .LVU202
 697 0196 0B40     		ands	r3, r1
 698              	.LVL71:
 699              		.loc 1 253 9 is_stmt 1 view .LVU203
 700              		.loc 1 253 9 discriminator 3 view .LVU204
 701              		.loc 1 253 9 discriminator 4 view .LVU205
 702 0198 8021     		movs	r1, #128
 703 019a 8901     		lsls	r1, r1, #6
 704 019c 5940     		eors	r1, r3
 705              	.LVL72:
 706              		.loc 1 253 9 discriminator 6 view .LVU206
 707 019e 564B     		ldr	r3, .L49+4
ARM GAS  /var/folders/kr/g9ry2bg56g773797gdtkvvkw0000gn/T//cc7eQgtd.s 			page 18


 708 01a0 0B43     		orrs	r3, r1
 709 01a2 9BB2     		uxth	r3, r3
 710 01a4 1380     		strh	r3, [r2]
 711 01a6 59E0     		b	.L20
 712              	.LVL73:
 713              	.L16:
 714              		.loc 1 253 9 is_stmt 0 discriminator 6 view .LVU207
 715              	.LBE16:
 254:Drivers/STM32F0xx_HAL_Driver/Src/stm32f0xx_ll_usb.c ****       }
 255:Drivers/STM32F0xx_HAL_Driver/Src/stm32f0xx_ll_usb.c ****     }
 256:Drivers/STM32F0xx_HAL_Driver/Src/stm32f0xx_ll_usb.c ****   }
 257:Drivers/STM32F0xx_HAL_Driver/Src/stm32f0xx_ll_usb.c **** #if (USE_USB_DOUBLE_BUFFER == 1U)
 258:Drivers/STM32F0xx_HAL_Driver/Src/stm32f0xx_ll_usb.c ****   /* Double Buffer */
 259:Drivers/STM32F0xx_HAL_Driver/Src/stm32f0xx_ll_usb.c ****   else
 260:Drivers/STM32F0xx_HAL_Driver/Src/stm32f0xx_ll_usb.c ****   {
 261:Drivers/STM32F0xx_HAL_Driver/Src/stm32f0xx_ll_usb.c ****     if (ep->type == EP_TYPE_BULK)
 716              		.loc 1 261 5 is_stmt 1 view .LVU208
 717              		.loc 1 261 11 is_stmt 0 view .LVU209
 718 01a8 CA78     		ldrb	r2, [r1, #3]
 719              		.loc 1 261 8 view .LVU210
 720 01aa 022A     		cmp	r2, #2
 721 01ac 57D0     		beq	.L48
 262:Drivers/STM32F0xx_HAL_Driver/Src/stm32f0xx_ll_usb.c ****     {
 263:Drivers/STM32F0xx_HAL_Driver/Src/stm32f0xx_ll_usb.c ****       /* Set bulk endpoint as double buffered */
 264:Drivers/STM32F0xx_HAL_Driver/Src/stm32f0xx_ll_usb.c ****       PCD_SET_BULK_EP_DBUF(USBx, ep->num);
 265:Drivers/STM32F0xx_HAL_Driver/Src/stm32f0xx_ll_usb.c ****     }
 266:Drivers/STM32F0xx_HAL_Driver/Src/stm32f0xx_ll_usb.c ****     else
 267:Drivers/STM32F0xx_HAL_Driver/Src/stm32f0xx_ll_usb.c ****     {
 268:Drivers/STM32F0xx_HAL_Driver/Src/stm32f0xx_ll_usb.c ****       /* Set the ISOC endpoint in double buffer mode */
 269:Drivers/STM32F0xx_HAL_Driver/Src/stm32f0xx_ll_usb.c ****       PCD_CLEAR_EP_KIND(USBx, ep->num);
 722              		.loc 1 269 7 is_stmt 1 view .LVU211
 723              	.LBB17:
 724              		.loc 1 269 7 view .LVU212
 725              		.loc 1 269 7 view .LVU213
 726 01ae 0A78     		ldrb	r2, [r1]
 727 01b0 9200     		lsls	r2, r2, #2
 728 01b2 9A18     		adds	r2, r3, r2
 729 01b4 1588     		ldrh	r5, [r2]
 730              	.LVL74:
 731              		.loc 1 269 7 is_stmt 0 view .LVU214
 732 01b6 594C     		ldr	r4, .L49+40
 733 01b8 2540     		ands	r5, r4
 734              	.LVL75:
 735              		.loc 1 269 7 is_stmt 1 view .LVU215
 736 01ba 4F4C     		ldr	r4, .L49+4
 737 01bc 2C43     		orrs	r4, r5
 738 01be A4B2     		uxth	r4, r4
 739 01c0 1480     		strh	r4, [r2]
 740              	.LVL76:
 741              	.L29:
 742              		.loc 1 269 7 is_stmt 0 view .LVU216
 743              	.LBE17:
 744              		.loc 1 269 7 is_stmt 1 discriminator 1 view .LVU217
 270:Drivers/STM32F0xx_HAL_Driver/Src/stm32f0xx_ll_usb.c ****     }
 271:Drivers/STM32F0xx_HAL_Driver/Src/stm32f0xx_ll_usb.c **** 
 272:Drivers/STM32F0xx_HAL_Driver/Src/stm32f0xx_ll_usb.c ****     /* Set buffer address for double buffered mode */
 273:Drivers/STM32F0xx_HAL_Driver/Src/stm32f0xx_ll_usb.c ****     PCD_SET_EP_DBUF_ADDR(USBx, ep->num, ep->pmaaddr0, ep->pmaaddr1);
ARM GAS  /var/folders/kr/g9ry2bg56g773797gdtkvvkw0000gn/T//cc7eQgtd.s 			page 19


 745              		.loc 1 273 5 view .LVU218
 746              		.loc 1 273 5 view .LVU219
 747              		.loc 1 273 5 view .LVU220
 748              	.LBB18:
 749              		.loc 1 273 5 view .LVU221
 750              		.loc 1 273 5 view .LVU222
 751              		.loc 1 273 5 view .LVU223
 752 01c2 5025     		movs	r5, #80
 753 01c4 5C5B     		ldrh	r4, [r3, r5]
 754 01c6 1C19     		adds	r4, r3, r4
 755              	.LVL77:
 756              		.loc 1 273 5 view .LVU224
 757 01c8 0A78     		ldrb	r2, [r1]
 758 01ca D200     		lsls	r2, r2, #3
 759 01cc 1219     		adds	r2, r2, r4
 760 01ce 8024     		movs	r4, #128
 761              	.LVL78:
 762              		.loc 1 273 5 is_stmt 0 view .LVU225
 763 01d0 E400     		lsls	r4, r4, #3
 764 01d2 A446     		mov	ip, r4
 765 01d4 6244     		add	r2, r2, ip
 766              	.LVL79:
 767              		.loc 1 273 5 is_stmt 1 view .LVU226
 768 01d6 0C89     		ldrh	r4, [r1, #8]
 769 01d8 6408     		lsrs	r4, r4, #1
 770 01da 6400     		lsls	r4, r4, #1
 771 01dc 1480     		strh	r4, [r2]
 772              	.LBE18:
 773              		.loc 1 273 5 view .LVU227
 774              		.loc 1 273 5 view .LVU228
 775              		.loc 1 273 5 view .LVU229
 776              		.loc 1 273 5 view .LVU230
 777              	.LBB19:
 778              		.loc 1 273 5 view .LVU231
 779              		.loc 1 273 5 view .LVU232
 780              	.LVL80:
 781              		.loc 1 273 5 view .LVU233
 782 01de 5C5B     		ldrh	r4, [r3, r5]
 783 01e0 1C19     		adds	r4, r3, r4
 784              	.LVL81:
 785              		.loc 1 273 5 view .LVU234
 786 01e2 0A78     		ldrb	r2, [r1]
 787              	.LVL82:
 788              		.loc 1 273 5 is_stmt 0 view .LVU235
 789 01e4 D200     		lsls	r2, r2, #3
 790 01e6 1219     		adds	r2, r2, r4
 791 01e8 474C     		ldr	r4, .L49+20
 792              	.LVL83:
 793              		.loc 1 273 5 view .LVU236
 794 01ea A446     		mov	ip, r4
 795 01ec 6244     		add	r2, r2, ip
 796              	.LVL84:
 797              		.loc 1 273 5 is_stmt 1 view .LVU237
 798 01ee 4C89     		ldrh	r4, [r1, #10]
 799 01f0 6408     		lsrs	r4, r4, #1
 800 01f2 6400     		lsls	r4, r4, #1
 801 01f4 1480     		strh	r4, [r2]
ARM GAS  /var/folders/kr/g9ry2bg56g773797gdtkvvkw0000gn/T//cc7eQgtd.s 			page 20


 802              	.LBE19:
 803              		.loc 1 273 5 view .LVU238
 804              		.loc 1 273 5 view .LVU239
 805              		.loc 1 273 5 view .LVU240
 274:Drivers/STM32F0xx_HAL_Driver/Src/stm32f0xx_ll_usb.c **** 
 275:Drivers/STM32F0xx_HAL_Driver/Src/stm32f0xx_ll_usb.c ****     if (ep->is_in == 0U)
 806              		.loc 1 275 5 view .LVU241
 807              		.loc 1 275 11 is_stmt 0 view .LVU242
 808 01f6 4A78     		ldrb	r2, [r1, #1]
 809              	.LVL85:
 810              		.loc 1 275 8 view .LVU243
 811 01f8 002A     		cmp	r2, #0
 812 01fa 3BD1     		bne	.L30
 276:Drivers/STM32F0xx_HAL_Driver/Src/stm32f0xx_ll_usb.c ****     {
 277:Drivers/STM32F0xx_HAL_Driver/Src/stm32f0xx_ll_usb.c ****       /* Clear the data toggle bits for the endpoint IN/OUT */
 278:Drivers/STM32F0xx_HAL_Driver/Src/stm32f0xx_ll_usb.c ****       PCD_CLEAR_RX_DTOG(USBx, ep->num);
 813              		.loc 1 278 7 is_stmt 1 view .LVU244
 814              	.LBB20:
 815              		.loc 1 278 7 view .LVU245
 816              		.loc 1 278 7 view .LVU246
 817 01fc 0A78     		ldrb	r2, [r1]
 818 01fe 9200     		lsls	r2, r2, #2
 819 0200 9A18     		adds	r2, r3, r2
 820 0202 1488     		ldrh	r4, [r2]
 821              	.LVL86:
 822              		.loc 1 278 7 view .LVU247
 823 0204 6404     		lsls	r4, r4, #17
 824 0206 06D5     		bpl	.L31
 825              	.LVL87:
 826              		.loc 1 278 7 discriminator 1 view .LVU248
 827              	.LBB21:
 828              		.loc 1 278 7 discriminator 1 view .LVU249
 829              		.loc 1 278 7 discriminator 1 view .LVU250
 830 0208 1588     		ldrh	r5, [r2]
 831 020a 3C4C     		ldr	r4, .L49+8
 832 020c 2540     		ands	r5, r4
 833              	.LVL88:
 834              		.loc 1 278 7 discriminator 1 view .LVU251
 835 020e 414C     		ldr	r4, .L49+32
 836 0210 2C43     		orrs	r4, r5
 837 0212 A4B2     		uxth	r4, r4
 838 0214 1480     		strh	r4, [r2]
 839              	.LVL89:
 840              	.L31:
 841              		.loc 1 278 7 is_stmt 0 discriminator 1 view .LVU252
 842              	.LBE21:
 843              		.loc 1 278 7 is_stmt 1 discriminator 3 view .LVU253
 844              	.LBE20:
 845              		.loc 1 278 7 discriminator 3 view .LVU254
 279:Drivers/STM32F0xx_HAL_Driver/Src/stm32f0xx_ll_usb.c ****       PCD_CLEAR_TX_DTOG(USBx, ep->num);
 846              		.loc 1 279 7 view .LVU255
 847              	.LBB22:
 848              		.loc 1 279 7 view .LVU256
 849              		.loc 1 279 7 view .LVU257
 850 0216 0A78     		ldrb	r2, [r1]
 851 0218 9200     		lsls	r2, r2, #2
 852 021a 9A18     		adds	r2, r3, r2
ARM GAS  /var/folders/kr/g9ry2bg56g773797gdtkvvkw0000gn/T//cc7eQgtd.s 			page 21


 853 021c 1488     		ldrh	r4, [r2]
 854              	.LVL90:
 855              		.loc 1 279 7 view .LVU258
 856 021e 6406     		lsls	r4, r4, #25
 857 0220 06D5     		bpl	.L32
 858              	.LVL91:
 859              		.loc 1 279 7 discriminator 1 view .LVU259
 860              	.LBB23:
 861              		.loc 1 279 7 discriminator 1 view .LVU260
 862              		.loc 1 279 7 discriminator 1 view .LVU261
 863 0222 1588     		ldrh	r5, [r2]
 864 0224 354C     		ldr	r4, .L49+8
 865 0226 2540     		ands	r5, r4
 866              	.LVL92:
 867              		.loc 1 279 7 discriminator 1 view .LVU262
 868 0228 354C     		ldr	r4, .L49+12
 869 022a 2C43     		orrs	r4, r5
 870 022c A4B2     		uxth	r4, r4
 871 022e 1480     		strh	r4, [r2]
 872              	.LVL93:
 873              	.L32:
 874              		.loc 1 279 7 is_stmt 0 discriminator 1 view .LVU263
 875              	.LBE23:
 876              		.loc 1 279 7 is_stmt 1 discriminator 3 view .LVU264
 877              	.LBE22:
 878              		.loc 1 279 7 discriminator 3 view .LVU265
 280:Drivers/STM32F0xx_HAL_Driver/Src/stm32f0xx_ll_usb.c **** 
 281:Drivers/STM32F0xx_HAL_Driver/Src/stm32f0xx_ll_usb.c ****       PCD_SET_EP_RX_STATUS(USBx, ep->num, USB_EP_RX_VALID);
 879              		.loc 1 281 7 view .LVU266
 880              	.LBB24:
 881              		.loc 1 281 7 view .LVU267
 882              		.loc 1 281 7 view .LVU268
 883 0230 0D78     		ldrb	r5, [r1]
 884 0232 AD00     		lsls	r5, r5, #2
 885 0234 5D19     		adds	r5, r3, r5
 886 0236 2C88     		ldrh	r4, [r5]
 887 0238 374A     		ldr	r2, .L49+36
 888 023a 1440     		ands	r4, r2
 889              	.LVL94:
 890              		.loc 1 281 7 view .LVU269
 891              		.loc 1 281 7 discriminator 1 view .LVU270
 892              		.loc 1 281 7 discriminator 3 view .LVU271
 893              		.loc 1 281 7 discriminator 4 view .LVU272
 894 023c C022     		movs	r2, #192
 895 023e 9201     		lsls	r2, r2, #6
 896 0240 6240     		eors	r2, r4
 897              	.LVL95:
 898              		.loc 1 281 7 discriminator 6 view .LVU273
 899 0242 2D4C     		ldr	r4, .L49+4
 900 0244 2243     		orrs	r2, r4
 901              	.LVL96:
 902              		.loc 1 281 7 is_stmt 0 discriminator 6 view .LVU274
 903 0246 92B2     		uxth	r2, r2
 904 0248 2A80     		strh	r2, [r5]
 905              	.LBE24:
 906              		.loc 1 281 7 is_stmt 1 discriminator 6 view .LVU275
 282:Drivers/STM32F0xx_HAL_Driver/Src/stm32f0xx_ll_usb.c ****       PCD_SET_EP_TX_STATUS(USBx, ep->num, USB_EP_TX_DIS);
ARM GAS  /var/folders/kr/g9ry2bg56g773797gdtkvvkw0000gn/T//cc7eQgtd.s 			page 22


 907              		.loc 1 282 7 view .LVU276
 908              	.LBB25:
 909              		.loc 1 282 7 view .LVU277
 910              		.loc 1 282 7 view .LVU278
 911 024a 0A78     		ldrb	r2, [r1]
 912 024c 9200     		lsls	r2, r2, #2
 913 024e 9B18     		adds	r3, r3, r2
 914              	.LVL97:
 915              		.loc 1 282 7 is_stmt 0 view .LVU279
 916 0250 1A88     		ldrh	r2, [r3]
 917 0252 2C49     		ldr	r1, .L49+16
 918              	.LVL98:
 919              		.loc 1 282 7 view .LVU280
 920 0254 0A40     		ands	r2, r1
 921              	.LVL99:
 922              		.loc 1 282 7 is_stmt 1 view .LVU281
 923              		.loc 1 282 7 discriminator 3 view .LVU282
 924              		.loc 1 282 7 discriminator 6 view .LVU283
 925 0256 1443     		orrs	r4, r2
 926 0258 A4B2     		uxth	r4, r4
 927 025a 1C80     		strh	r4, [r3]
 928              	.LBE25:
 929              		.loc 1 282 7 discriminator 6 view .LVU284
 930              	.LVL100:
 931              	.L20:
 283:Drivers/STM32F0xx_HAL_Driver/Src/stm32f0xx_ll_usb.c ****     }
 284:Drivers/STM32F0xx_HAL_Driver/Src/stm32f0xx_ll_usb.c ****     else
 285:Drivers/STM32F0xx_HAL_Driver/Src/stm32f0xx_ll_usb.c ****     {
 286:Drivers/STM32F0xx_HAL_Driver/Src/stm32f0xx_ll_usb.c ****       /* Clear the data toggle bits for the endpoint IN/OUT */
 287:Drivers/STM32F0xx_HAL_Driver/Src/stm32f0xx_ll_usb.c ****       PCD_CLEAR_RX_DTOG(USBx, ep->num);
 288:Drivers/STM32F0xx_HAL_Driver/Src/stm32f0xx_ll_usb.c ****       PCD_CLEAR_TX_DTOG(USBx, ep->num);
 289:Drivers/STM32F0xx_HAL_Driver/Src/stm32f0xx_ll_usb.c **** 
 290:Drivers/STM32F0xx_HAL_Driver/Src/stm32f0xx_ll_usb.c ****       if (ep->type != EP_TYPE_ISOC)
 291:Drivers/STM32F0xx_HAL_Driver/Src/stm32f0xx_ll_usb.c ****       {
 292:Drivers/STM32F0xx_HAL_Driver/Src/stm32f0xx_ll_usb.c ****         /* Configure NAK status for the Endpoint */
 293:Drivers/STM32F0xx_HAL_Driver/Src/stm32f0xx_ll_usb.c ****         PCD_SET_EP_TX_STATUS(USBx, ep->num, USB_EP_TX_NAK);
 294:Drivers/STM32F0xx_HAL_Driver/Src/stm32f0xx_ll_usb.c ****       }
 295:Drivers/STM32F0xx_HAL_Driver/Src/stm32f0xx_ll_usb.c ****       else
 296:Drivers/STM32F0xx_HAL_Driver/Src/stm32f0xx_ll_usb.c ****       {
 297:Drivers/STM32F0xx_HAL_Driver/Src/stm32f0xx_ll_usb.c ****         /* Configure TX Endpoint to disabled state */
 298:Drivers/STM32F0xx_HAL_Driver/Src/stm32f0xx_ll_usb.c ****         PCD_SET_EP_TX_STATUS(USBx, ep->num, USB_EP_TX_DIS);
 299:Drivers/STM32F0xx_HAL_Driver/Src/stm32f0xx_ll_usb.c ****       }
 300:Drivers/STM32F0xx_HAL_Driver/Src/stm32f0xx_ll_usb.c **** 
 301:Drivers/STM32F0xx_HAL_Driver/Src/stm32f0xx_ll_usb.c ****       PCD_SET_EP_RX_STATUS(USBx, ep->num, USB_EP_RX_DIS);
 932              		.loc 1 301 7 discriminator 7 view .LVU285
 302:Drivers/STM32F0xx_HAL_Driver/Src/stm32f0xx_ll_usb.c ****     }
 303:Drivers/STM32F0xx_HAL_Driver/Src/stm32f0xx_ll_usb.c ****   }
 304:Drivers/STM32F0xx_HAL_Driver/Src/stm32f0xx_ll_usb.c **** #endif /* (USE_USB_DOUBLE_BUFFER == 1U) */
 305:Drivers/STM32F0xx_HAL_Driver/Src/stm32f0xx_ll_usb.c **** 
 306:Drivers/STM32F0xx_HAL_Driver/Src/stm32f0xx_ll_usb.c ****   return ret;
 933              		.loc 1 306 3 view .LVU286
 307:Drivers/STM32F0xx_HAL_Driver/Src/stm32f0xx_ll_usb.c **** }
 934              		.loc 1 307 1 is_stmt 0 view .LVU287
 935              		@ sp needed
 936 025c F0BD     		pop	{r4, r5, r6, r7, pc}
 937              	.LVL101:
 938              	.L48:
ARM GAS  /var/folders/kr/g9ry2bg56g773797gdtkvvkw0000gn/T//cc7eQgtd.s 			page 23


 264:Drivers/STM32F0xx_HAL_Driver/Src/stm32f0xx_ll_usb.c ****     }
 939              		.loc 1 264 7 is_stmt 1 view .LVU288
 940              	.LBB26:
 264:Drivers/STM32F0xx_HAL_Driver/Src/stm32f0xx_ll_usb.c ****     }
 941              		.loc 1 264 7 view .LVU289
 264:Drivers/STM32F0xx_HAL_Driver/Src/stm32f0xx_ll_usb.c ****     }
 942              		.loc 1 264 7 view .LVU290
 943 025e 0A78     		ldrb	r2, [r1]
 944 0260 9200     		lsls	r2, r2, #2
 945 0262 9A18     		adds	r2, r3, r2
 946 0264 1588     		ldrh	r5, [r2]
 947              	.LVL102:
 264:Drivers/STM32F0xx_HAL_Driver/Src/stm32f0xx_ll_usb.c ****     }
 948              		.loc 1 264 7 is_stmt 0 view .LVU291
 949 0266 254C     		ldr	r4, .L49+8
 950 0268 2540     		ands	r5, r4
 951              	.LVL103:
 264:Drivers/STM32F0xx_HAL_Driver/Src/stm32f0xx_ll_usb.c ****     }
 952              		.loc 1 264 7 is_stmt 1 view .LVU292
 953 026a 2D4C     		ldr	r4, .L49+44
 954 026c 2C43     		orrs	r4, r5
 955 026e A4B2     		uxth	r4, r4
 956 0270 1480     		strh	r4, [r2]
 957              	.LBE26:
 264:Drivers/STM32F0xx_HAL_Driver/Src/stm32f0xx_ll_usb.c ****     }
 958              		.loc 1 264 7 view .LVU293
 959 0272 A6E7     		b	.L29
 960              	.LVL104:
 961              	.L30:
 287:Drivers/STM32F0xx_HAL_Driver/Src/stm32f0xx_ll_usb.c ****       PCD_CLEAR_TX_DTOG(USBx, ep->num);
 962              		.loc 1 287 7 view .LVU294
 963              	.LBB27:
 287:Drivers/STM32F0xx_HAL_Driver/Src/stm32f0xx_ll_usb.c ****       PCD_CLEAR_TX_DTOG(USBx, ep->num);
 964              		.loc 1 287 7 view .LVU295
 287:Drivers/STM32F0xx_HAL_Driver/Src/stm32f0xx_ll_usb.c ****       PCD_CLEAR_TX_DTOG(USBx, ep->num);
 965              		.loc 1 287 7 view .LVU296
 966 0274 0A78     		ldrb	r2, [r1]
 967 0276 9200     		lsls	r2, r2, #2
 968 0278 9A18     		adds	r2, r3, r2
 969 027a 1488     		ldrh	r4, [r2]
 970              	.LVL105:
 287:Drivers/STM32F0xx_HAL_Driver/Src/stm32f0xx_ll_usb.c ****       PCD_CLEAR_TX_DTOG(USBx, ep->num);
 971              		.loc 1 287 7 view .LVU297
 972 027c 6404     		lsls	r4, r4, #17
 973 027e 06D5     		bpl	.L33
 974              	.LVL106:
 287:Drivers/STM32F0xx_HAL_Driver/Src/stm32f0xx_ll_usb.c ****       PCD_CLEAR_TX_DTOG(USBx, ep->num);
 975              		.loc 1 287 7 discriminator 1 view .LVU298
 976              	.LBB28:
 287:Drivers/STM32F0xx_HAL_Driver/Src/stm32f0xx_ll_usb.c ****       PCD_CLEAR_TX_DTOG(USBx, ep->num);
 977              		.loc 1 287 7 discriminator 1 view .LVU299
 287:Drivers/STM32F0xx_HAL_Driver/Src/stm32f0xx_ll_usb.c ****       PCD_CLEAR_TX_DTOG(USBx, ep->num);
 978              		.loc 1 287 7 discriminator 1 view .LVU300
 979 0280 1588     		ldrh	r5, [r2]
 980 0282 1E4C     		ldr	r4, .L49+8
 981 0284 2540     		ands	r5, r4
 982              	.LVL107:
ARM GAS  /var/folders/kr/g9ry2bg56g773797gdtkvvkw0000gn/T//cc7eQgtd.s 			page 24


 287:Drivers/STM32F0xx_HAL_Driver/Src/stm32f0xx_ll_usb.c ****       PCD_CLEAR_TX_DTOG(USBx, ep->num);
 983              		.loc 1 287 7 discriminator 1 view .LVU301
 984 0286 234C     		ldr	r4, .L49+32
 985 0288 2C43     		orrs	r4, r5
 986 028a A4B2     		uxth	r4, r4
 987 028c 1480     		strh	r4, [r2]
 988              	.LVL108:
 989              	.L33:
 287:Drivers/STM32F0xx_HAL_Driver/Src/stm32f0xx_ll_usb.c ****       PCD_CLEAR_TX_DTOG(USBx, ep->num);
 990              		.loc 1 287 7 is_stmt 0 discriminator 1 view .LVU302
 991              	.LBE28:
 287:Drivers/STM32F0xx_HAL_Driver/Src/stm32f0xx_ll_usb.c ****       PCD_CLEAR_TX_DTOG(USBx, ep->num);
 992              		.loc 1 287 7 is_stmt 1 discriminator 3 view .LVU303
 993              	.LBE27:
 287:Drivers/STM32F0xx_HAL_Driver/Src/stm32f0xx_ll_usb.c ****       PCD_CLEAR_TX_DTOG(USBx, ep->num);
 994              		.loc 1 287 7 discriminator 3 view .LVU304
 288:Drivers/STM32F0xx_HAL_Driver/Src/stm32f0xx_ll_usb.c **** 
 995              		.loc 1 288 7 view .LVU305
 996              	.LBB29:
 288:Drivers/STM32F0xx_HAL_Driver/Src/stm32f0xx_ll_usb.c **** 
 997              		.loc 1 288 7 view .LVU306
 288:Drivers/STM32F0xx_HAL_Driver/Src/stm32f0xx_ll_usb.c **** 
 998              		.loc 1 288 7 view .LVU307
 999 028e 0A78     		ldrb	r2, [r1]
 1000 0290 9200     		lsls	r2, r2, #2
 1001 0292 9A18     		adds	r2, r3, r2
 1002 0294 1488     		ldrh	r4, [r2]
 1003              	.LVL109:
 288:Drivers/STM32F0xx_HAL_Driver/Src/stm32f0xx_ll_usb.c **** 
 1004              		.loc 1 288 7 view .LVU308
 1005 0296 6406     		lsls	r4, r4, #25
 1006 0298 06D5     		bpl	.L34
 1007              	.LVL110:
 288:Drivers/STM32F0xx_HAL_Driver/Src/stm32f0xx_ll_usb.c **** 
 1008              		.loc 1 288 7 discriminator 1 view .LVU309
 1009              	.LBB30:
 288:Drivers/STM32F0xx_HAL_Driver/Src/stm32f0xx_ll_usb.c **** 
 1010              		.loc 1 288 7 discriminator 1 view .LVU310
 288:Drivers/STM32F0xx_HAL_Driver/Src/stm32f0xx_ll_usb.c **** 
 1011              		.loc 1 288 7 discriminator 1 view .LVU311
 1012 029a 1588     		ldrh	r5, [r2]
 1013 029c 174C     		ldr	r4, .L49+8
 1014 029e 2540     		ands	r5, r4
 1015              	.LVL111:
 288:Drivers/STM32F0xx_HAL_Driver/Src/stm32f0xx_ll_usb.c **** 
 1016              		.loc 1 288 7 discriminator 1 view .LVU312
 1017 02a0 174C     		ldr	r4, .L49+12
 1018 02a2 2C43     		orrs	r4, r5
 1019 02a4 A4B2     		uxth	r4, r4
 1020 02a6 1480     		strh	r4, [r2]
 1021              	.LVL112:
 1022              	.L34:
 288:Drivers/STM32F0xx_HAL_Driver/Src/stm32f0xx_ll_usb.c **** 
 1023              		.loc 1 288 7 is_stmt 0 discriminator 1 view .LVU313
 1024              	.LBE30:
 288:Drivers/STM32F0xx_HAL_Driver/Src/stm32f0xx_ll_usb.c **** 
 1025              		.loc 1 288 7 is_stmt 1 discriminator 3 view .LVU314
ARM GAS  /var/folders/kr/g9ry2bg56g773797gdtkvvkw0000gn/T//cc7eQgtd.s 			page 25


 1026              	.LBE29:
 288:Drivers/STM32F0xx_HAL_Driver/Src/stm32f0xx_ll_usb.c **** 
 1027              		.loc 1 288 7 discriminator 3 view .LVU315
 290:Drivers/STM32F0xx_HAL_Driver/Src/stm32f0xx_ll_usb.c ****       {
 1028              		.loc 1 290 7 view .LVU316
 290:Drivers/STM32F0xx_HAL_Driver/Src/stm32f0xx_ll_usb.c ****       {
 1029              		.loc 1 290 13 is_stmt 0 view .LVU317
 1030 02a8 CA78     		ldrb	r2, [r1, #3]
 290:Drivers/STM32F0xx_HAL_Driver/Src/stm32f0xx_ll_usb.c ****       {
 1031              		.loc 1 290 10 view .LVU318
 1032 02aa 012A     		cmp	r2, #1
 1033 02ac 17D0     		beq	.L35
 293:Drivers/STM32F0xx_HAL_Driver/Src/stm32f0xx_ll_usb.c ****       }
 1034              		.loc 1 293 9 is_stmt 1 view .LVU319
 1035              	.LBB31:
 293:Drivers/STM32F0xx_HAL_Driver/Src/stm32f0xx_ll_usb.c ****       }
 1036              		.loc 1 293 9 view .LVU320
 293:Drivers/STM32F0xx_HAL_Driver/Src/stm32f0xx_ll_usb.c ****       }
 1037              		.loc 1 293 9 view .LVU321
 1038 02ae 0C78     		ldrb	r4, [r1]
 1039 02b0 A400     		lsls	r4, r4, #2
 1040 02b2 1C19     		adds	r4, r3, r4
 1041 02b4 2288     		ldrh	r2, [r4]
 1042 02b6 134D     		ldr	r5, .L49+16
 1043 02b8 2A40     		ands	r2, r5
 1044              	.LVL113:
 293:Drivers/STM32F0xx_HAL_Driver/Src/stm32f0xx_ll_usb.c ****       }
 1045              		.loc 1 293 9 view .LVU322
 293:Drivers/STM32F0xx_HAL_Driver/Src/stm32f0xx_ll_usb.c ****       }
 1046              		.loc 1 293 9 discriminator 3 view .LVU323
 293:Drivers/STM32F0xx_HAL_Driver/Src/stm32f0xx_ll_usb.c ****       }
 1047              		.loc 1 293 9 discriminator 4 view .LVU324
 1048 02ba 2025     		movs	r5, #32
 1049 02bc 6A40     		eors	r2, r5
 1050              	.LVL114:
 293:Drivers/STM32F0xx_HAL_Driver/Src/stm32f0xx_ll_usb.c ****       }
 1051              		.loc 1 293 9 is_stmt 0 discriminator 4 view .LVU325
 1052 02be 92B2     		uxth	r2, r2
 1053              	.LVL115:
 293:Drivers/STM32F0xx_HAL_Driver/Src/stm32f0xx_ll_usb.c ****       }
 1054              		.loc 1 293 9 is_stmt 1 discriminator 6 view .LVU326
 1055 02c0 0D4D     		ldr	r5, .L49+4
 1056 02c2 2A43     		orrs	r2, r5
 1057              	.LVL116:
 293:Drivers/STM32F0xx_HAL_Driver/Src/stm32f0xx_ll_usb.c ****       }
 1058              		.loc 1 293 9 is_stmt 0 discriminator 6 view .LVU327
 1059 02c4 92B2     		uxth	r2, r2
 1060 02c6 2280     		strh	r2, [r4]
 1061              	.LBE31:
 293:Drivers/STM32F0xx_HAL_Driver/Src/stm32f0xx_ll_usb.c ****       }
 1062              		.loc 1 293 9 is_stmt 1 discriminator 6 view .LVU328
 1063              	.LVL117:
 1064              	.L36:
 298:Drivers/STM32F0xx_HAL_Driver/Src/stm32f0xx_ll_usb.c ****       }
 1065              		.loc 1 298 9 discriminator 7 view .LVU329
 301:Drivers/STM32F0xx_HAL_Driver/Src/stm32f0xx_ll_usb.c ****     }
 1066              		.loc 1 301 7 view .LVU330
ARM GAS  /var/folders/kr/g9ry2bg56g773797gdtkvvkw0000gn/T//cc7eQgtd.s 			page 26


 1067              	.LBB32:
 301:Drivers/STM32F0xx_HAL_Driver/Src/stm32f0xx_ll_usb.c ****     }
 1068              		.loc 1 301 7 view .LVU331
 301:Drivers/STM32F0xx_HAL_Driver/Src/stm32f0xx_ll_usb.c ****     }
 1069              		.loc 1 301 7 view .LVU332
 1070 02c8 0A78     		ldrb	r2, [r1]
 1071 02ca 9200     		lsls	r2, r2, #2
 1072 02cc 9B18     		adds	r3, r3, r2
 1073              	.LVL118:
 301:Drivers/STM32F0xx_HAL_Driver/Src/stm32f0xx_ll_usb.c ****     }
 1074              		.loc 1 301 7 is_stmt 0 view .LVU333
 1075 02ce 1988     		ldrh	r1, [r3]
 1076              	.LVL119:
 301:Drivers/STM32F0xx_HAL_Driver/Src/stm32f0xx_ll_usb.c ****     }
 1077              		.loc 1 301 7 view .LVU334
 1078 02d0 114A     		ldr	r2, .L49+36
 1079 02d2 1140     		ands	r1, r2
 1080              	.LVL120:
 301:Drivers/STM32F0xx_HAL_Driver/Src/stm32f0xx_ll_usb.c ****     }
 1081              		.loc 1 301 7 is_stmt 1 view .LVU335
 301:Drivers/STM32F0xx_HAL_Driver/Src/stm32f0xx_ll_usb.c ****     }
 1082              		.loc 1 301 7 discriminator 3 view .LVU336
 301:Drivers/STM32F0xx_HAL_Driver/Src/stm32f0xx_ll_usb.c ****     }
 1083              		.loc 1 301 7 discriminator 6 view .LVU337
 1084 02d4 084A     		ldr	r2, .L49+4
 1085 02d6 0A43     		orrs	r2, r1
 1086 02d8 92B2     		uxth	r2, r2
 1087 02da 1A80     		strh	r2, [r3]
 1088 02dc BEE7     		b	.L20
 1089              	.LVL121:
 1090              	.L35:
 301:Drivers/STM32F0xx_HAL_Driver/Src/stm32f0xx_ll_usb.c ****     }
 1091              		.loc 1 301 7 is_stmt 0 discriminator 6 view .LVU338
 1092              	.LBE32:
 298:Drivers/STM32F0xx_HAL_Driver/Src/stm32f0xx_ll_usb.c ****       }
 1093              		.loc 1 298 9 is_stmt 1 view .LVU339
 1094              	.LBB33:
 298:Drivers/STM32F0xx_HAL_Driver/Src/stm32f0xx_ll_usb.c ****       }
 1095              		.loc 1 298 9 view .LVU340
 298:Drivers/STM32F0xx_HAL_Driver/Src/stm32f0xx_ll_usb.c ****       }
 1096              		.loc 1 298 9 view .LVU341
 1097 02de 0A78     		ldrb	r2, [r1]
 1098 02e0 9200     		lsls	r2, r2, #2
 1099 02e2 9A18     		adds	r2, r3, r2
 1100 02e4 1588     		ldrh	r5, [r2]
 1101 02e6 074C     		ldr	r4, .L49+16
 1102 02e8 2540     		ands	r5, r4
 1103              	.LVL122:
 298:Drivers/STM32F0xx_HAL_Driver/Src/stm32f0xx_ll_usb.c ****       }
 1104              		.loc 1 298 9 view .LVU342
 298:Drivers/STM32F0xx_HAL_Driver/Src/stm32f0xx_ll_usb.c ****       }
 1105              		.loc 1 298 9 discriminator 3 view .LVU343
 298:Drivers/STM32F0xx_HAL_Driver/Src/stm32f0xx_ll_usb.c ****       }
 1106              		.loc 1 298 9 discriminator 6 view .LVU344
 1107 02ea 034C     		ldr	r4, .L49+4
 1108 02ec 2C43     		orrs	r4, r5
 1109 02ee A4B2     		uxth	r4, r4
ARM GAS  /var/folders/kr/g9ry2bg56g773797gdtkvvkw0000gn/T//cc7eQgtd.s 			page 27


 1110 02f0 1480     		strh	r4, [r2]
 1111 02f2 E9E7     		b	.L36
 1112              	.L50:
 1113              		.align	2
 1114              	.L49:
 1115 02f4 8F89FFFF 		.word	-30321
 1116 02f8 8080FFFF 		.word	-32640
 1117 02fc 8F8FFFFF 		.word	-28785
 1118 0300 C080FFFF 		.word	-32576
 1119 0304 BF8FFFFF 		.word	-28737
 1120 0308 04040000 		.word	1028
 1121 030c 06040000 		.word	1030
 1122 0310 0080FFFF 		.word	-32768
 1123 0314 80C0FFFF 		.word	-16256
 1124 0318 8FBFFFFF 		.word	-16497
 1125 031c 8F8EFFFF 		.word	-29041
 1126 0320 8081FFFF 		.word	-32384
 1127              	.LBE33:
 1128              		.cfi_endproc
 1129              	.LFE45:
 1131              		.section	.text.USB_DeactivateEndpoint,"ax",%progbits
 1132              		.align	1
 1133              		.global	USB_DeactivateEndpoint
 1134              		.syntax unified
 1135              		.code	16
 1136              		.thumb_func
 1138              	USB_DeactivateEndpoint:
 1139              	.LVL123:
 1140              	.LFB46:
 308:Drivers/STM32F0xx_HAL_Driver/Src/stm32f0xx_ll_usb.c **** 
 309:Drivers/STM32F0xx_HAL_Driver/Src/stm32f0xx_ll_usb.c **** /**
 310:Drivers/STM32F0xx_HAL_Driver/Src/stm32f0xx_ll_usb.c ****   * @brief  De-activate and de-initialize an endpoint
 311:Drivers/STM32F0xx_HAL_Driver/Src/stm32f0xx_ll_usb.c ****   * @param  USBx Selected device
 312:Drivers/STM32F0xx_HAL_Driver/Src/stm32f0xx_ll_usb.c ****   * @param  ep pointer to endpoint structure
 313:Drivers/STM32F0xx_HAL_Driver/Src/stm32f0xx_ll_usb.c ****   * @retval HAL status
 314:Drivers/STM32F0xx_HAL_Driver/Src/stm32f0xx_ll_usb.c ****   */
 315:Drivers/STM32F0xx_HAL_Driver/Src/stm32f0xx_ll_usb.c **** HAL_StatusTypeDef USB_DeactivateEndpoint(USB_TypeDef *USBx, USB_EPTypeDef *ep)
 316:Drivers/STM32F0xx_HAL_Driver/Src/stm32f0xx_ll_usb.c **** {
 1141              		.loc 1 316 1 view -0
 1142              		.cfi_startproc
 1143              		@ args = 0, pretend = 0, frame = 0
 1144              		@ frame_needed = 0, uses_anonymous_args = 0
 1145              		.loc 1 316 1 is_stmt 0 view .LVU346
 1146 0000 10B5     		push	{r4, lr}
 1147              	.LCFI3:
 1148              		.cfi_def_cfa_offset 8
 1149              		.cfi_offset 4, -8
 1150              		.cfi_offset 14, -4
 317:Drivers/STM32F0xx_HAL_Driver/Src/stm32f0xx_ll_usb.c ****   if (ep->doublebuffer == 0U)
 1151              		.loc 1 317 3 is_stmt 1 view .LVU347
 1152              		.loc 1 317 9 is_stmt 0 view .LVU348
 1153 0002 0B7B     		ldrb	r3, [r1, #12]
 1154              		.loc 1 317 6 view .LVU349
 1155 0004 002B     		cmp	r3, #0
 1156 0006 33D1     		bne	.L52
 318:Drivers/STM32F0xx_HAL_Driver/Src/stm32f0xx_ll_usb.c ****   {
 319:Drivers/STM32F0xx_HAL_Driver/Src/stm32f0xx_ll_usb.c ****     if (ep->is_in != 0U)
ARM GAS  /var/folders/kr/g9ry2bg56g773797gdtkvvkw0000gn/T//cc7eQgtd.s 			page 28


 1157              		.loc 1 319 5 is_stmt 1 view .LVU350
 1158              		.loc 1 319 11 is_stmt 0 view .LVU351
 1159 0008 4B78     		ldrb	r3, [r1, #1]
 1160              		.loc 1 319 8 view .LVU352
 1161 000a 002B     		cmp	r3, #0
 1162 000c 18D0     		beq	.L53
 320:Drivers/STM32F0xx_HAL_Driver/Src/stm32f0xx_ll_usb.c ****     {
 321:Drivers/STM32F0xx_HAL_Driver/Src/stm32f0xx_ll_usb.c ****       PCD_CLEAR_TX_DTOG(USBx, ep->num);
 1163              		.loc 1 321 7 is_stmt 1 view .LVU353
 1164              	.LBB34:
 1165              		.loc 1 321 7 view .LVU354
 1166              		.loc 1 321 7 view .LVU355
 1167 000e 0B78     		ldrb	r3, [r1]
 1168 0010 9B00     		lsls	r3, r3, #2
 1169 0012 C318     		adds	r3, r0, r3
 1170 0014 1A88     		ldrh	r2, [r3]
 1171              	.LVL124:
 1172              		.loc 1 321 7 view .LVU356
 1173 0016 5206     		lsls	r2, r2, #25
 1174 0018 06D5     		bpl	.L54
 1175              	.LVL125:
 1176              		.loc 1 321 7 discriminator 1 view .LVU357
 1177              	.LBB35:
 1178              		.loc 1 321 7 discriminator 1 view .LVU358
 1179              		.loc 1 321 7 discriminator 1 view .LVU359
 1180 001a 1C88     		ldrh	r4, [r3]
 1181 001c 4E4A     		ldr	r2, .L68
 1182 001e 1440     		ands	r4, r2
 1183              	.LVL126:
 1184              		.loc 1 321 7 discriminator 1 view .LVU360
 1185 0020 4E4A     		ldr	r2, .L68+4
 1186 0022 2243     		orrs	r2, r4
 1187 0024 92B2     		uxth	r2, r2
 1188 0026 1A80     		strh	r2, [r3]
 1189              	.LVL127:
 1190              	.L54:
 1191              		.loc 1 321 7 is_stmt 0 discriminator 1 view .LVU361
 1192              	.LBE35:
 1193              		.loc 1 321 7 is_stmt 1 discriminator 3 view .LVU362
 1194              	.LBE34:
 1195              		.loc 1 321 7 discriminator 3 view .LVU363
 322:Drivers/STM32F0xx_HAL_Driver/Src/stm32f0xx_ll_usb.c **** 
 323:Drivers/STM32F0xx_HAL_Driver/Src/stm32f0xx_ll_usb.c ****       /* Configure DISABLE status for the Endpoint */
 324:Drivers/STM32F0xx_HAL_Driver/Src/stm32f0xx_ll_usb.c ****       PCD_SET_EP_TX_STATUS(USBx, ep->num, USB_EP_TX_DIS);
 1196              		.loc 1 324 7 view .LVU364
 1197              	.LBB36:
 1198              		.loc 1 324 7 view .LVU365
 1199              		.loc 1 324 7 view .LVU366
 1200 0028 0B78     		ldrb	r3, [r1]
 1201 002a 9B00     		lsls	r3, r3, #2
 1202 002c C318     		adds	r3, r0, r3
 1203 002e 1988     		ldrh	r1, [r3]
 1204              	.LVL128:
 1205              		.loc 1 324 7 is_stmt 0 view .LVU367
 1206 0030 4B4A     		ldr	r2, .L68+8
 1207 0032 1140     		ands	r1, r2
 1208              	.LVL129:
ARM GAS  /var/folders/kr/g9ry2bg56g773797gdtkvvkw0000gn/T//cc7eQgtd.s 			page 29


 1209              		.loc 1 324 7 is_stmt 1 view .LVU368
 1210              		.loc 1 324 7 discriminator 3 view .LVU369
 1211              		.loc 1 324 7 discriminator 6 view .LVU370
 1212 0034 4B4A     		ldr	r2, .L68+12
 1213 0036 0A43     		orrs	r2, r1
 1214 0038 92B2     		uxth	r2, r2
 1215 003a 1A80     		strh	r2, [r3]
 1216              	.LBE36:
 1217              		.loc 1 324 7 discriminator 6 view .LVU371
 1218              	.LVL130:
 1219              	.L55:
 325:Drivers/STM32F0xx_HAL_Driver/Src/stm32f0xx_ll_usb.c ****     }
 326:Drivers/STM32F0xx_HAL_Driver/Src/stm32f0xx_ll_usb.c **** 
 327:Drivers/STM32F0xx_HAL_Driver/Src/stm32f0xx_ll_usb.c ****     else
 328:Drivers/STM32F0xx_HAL_Driver/Src/stm32f0xx_ll_usb.c ****     {
 329:Drivers/STM32F0xx_HAL_Driver/Src/stm32f0xx_ll_usb.c ****       PCD_CLEAR_RX_DTOG(USBx, ep->num);
 330:Drivers/STM32F0xx_HAL_Driver/Src/stm32f0xx_ll_usb.c **** 
 331:Drivers/STM32F0xx_HAL_Driver/Src/stm32f0xx_ll_usb.c ****       /* Configure DISABLE status for the Endpoint */
 332:Drivers/STM32F0xx_HAL_Driver/Src/stm32f0xx_ll_usb.c ****       PCD_SET_EP_RX_STATUS(USBx, ep->num, USB_EP_RX_DIS);
 333:Drivers/STM32F0xx_HAL_Driver/Src/stm32f0xx_ll_usb.c ****     }
 334:Drivers/STM32F0xx_HAL_Driver/Src/stm32f0xx_ll_usb.c ****   }
 335:Drivers/STM32F0xx_HAL_Driver/Src/stm32f0xx_ll_usb.c **** #if (USE_USB_DOUBLE_BUFFER == 1U)
 336:Drivers/STM32F0xx_HAL_Driver/Src/stm32f0xx_ll_usb.c ****   /* Double Buffer */
 337:Drivers/STM32F0xx_HAL_Driver/Src/stm32f0xx_ll_usb.c ****   else
 338:Drivers/STM32F0xx_HAL_Driver/Src/stm32f0xx_ll_usb.c ****   {
 339:Drivers/STM32F0xx_HAL_Driver/Src/stm32f0xx_ll_usb.c ****     if (ep->is_in == 0U)
 340:Drivers/STM32F0xx_HAL_Driver/Src/stm32f0xx_ll_usb.c ****     {
 341:Drivers/STM32F0xx_HAL_Driver/Src/stm32f0xx_ll_usb.c ****       /* Clear the data toggle bits for the endpoint IN/OUT*/
 342:Drivers/STM32F0xx_HAL_Driver/Src/stm32f0xx_ll_usb.c ****       PCD_CLEAR_RX_DTOG(USBx, ep->num);
 343:Drivers/STM32F0xx_HAL_Driver/Src/stm32f0xx_ll_usb.c ****       PCD_CLEAR_TX_DTOG(USBx, ep->num);
 344:Drivers/STM32F0xx_HAL_Driver/Src/stm32f0xx_ll_usb.c **** 
 345:Drivers/STM32F0xx_HAL_Driver/Src/stm32f0xx_ll_usb.c ****       /* Reset value of the data toggle bits for the endpoint out*/
 346:Drivers/STM32F0xx_HAL_Driver/Src/stm32f0xx_ll_usb.c ****       PCD_TX_DTOG(USBx, ep->num);
 347:Drivers/STM32F0xx_HAL_Driver/Src/stm32f0xx_ll_usb.c **** 
 348:Drivers/STM32F0xx_HAL_Driver/Src/stm32f0xx_ll_usb.c ****       PCD_SET_EP_RX_STATUS(USBx, ep->num, USB_EP_RX_DIS);
 349:Drivers/STM32F0xx_HAL_Driver/Src/stm32f0xx_ll_usb.c ****       PCD_SET_EP_TX_STATUS(USBx, ep->num, USB_EP_TX_DIS);
 350:Drivers/STM32F0xx_HAL_Driver/Src/stm32f0xx_ll_usb.c ****     }
 351:Drivers/STM32F0xx_HAL_Driver/Src/stm32f0xx_ll_usb.c ****     else
 352:Drivers/STM32F0xx_HAL_Driver/Src/stm32f0xx_ll_usb.c ****     {
 353:Drivers/STM32F0xx_HAL_Driver/Src/stm32f0xx_ll_usb.c ****       /* Clear the data toggle bits for the endpoint IN/OUT*/
 354:Drivers/STM32F0xx_HAL_Driver/Src/stm32f0xx_ll_usb.c ****       PCD_CLEAR_RX_DTOG(USBx, ep->num);
 355:Drivers/STM32F0xx_HAL_Driver/Src/stm32f0xx_ll_usb.c ****       PCD_CLEAR_TX_DTOG(USBx, ep->num);
 356:Drivers/STM32F0xx_HAL_Driver/Src/stm32f0xx_ll_usb.c ****       PCD_RX_DTOG(USBx, ep->num);
 357:Drivers/STM32F0xx_HAL_Driver/Src/stm32f0xx_ll_usb.c **** 
 358:Drivers/STM32F0xx_HAL_Driver/Src/stm32f0xx_ll_usb.c ****       /* Configure DISABLE status for the Endpoint*/
 359:Drivers/STM32F0xx_HAL_Driver/Src/stm32f0xx_ll_usb.c ****       PCD_SET_EP_TX_STATUS(USBx, ep->num, USB_EP_TX_DIS);
 360:Drivers/STM32F0xx_HAL_Driver/Src/stm32f0xx_ll_usb.c ****       PCD_SET_EP_RX_STATUS(USBx, ep->num, USB_EP_RX_DIS);
 1220              		.loc 1 360 7 discriminator 7 view .LVU372
 361:Drivers/STM32F0xx_HAL_Driver/Src/stm32f0xx_ll_usb.c ****     }
 362:Drivers/STM32F0xx_HAL_Driver/Src/stm32f0xx_ll_usb.c ****   }
 363:Drivers/STM32F0xx_HAL_Driver/Src/stm32f0xx_ll_usb.c **** #endif /* (USE_USB_DOUBLE_BUFFER == 1U) */
 364:Drivers/STM32F0xx_HAL_Driver/Src/stm32f0xx_ll_usb.c **** 
 365:Drivers/STM32F0xx_HAL_Driver/Src/stm32f0xx_ll_usb.c ****   return HAL_OK;
 1221              		.loc 1 365 3 view .LVU373
 366:Drivers/STM32F0xx_HAL_Driver/Src/stm32f0xx_ll_usb.c **** }
 1222              		.loc 1 366 1 is_stmt 0 view .LVU374
 1223 003c 0020     		movs	r0, #0
ARM GAS  /var/folders/kr/g9ry2bg56g773797gdtkvvkw0000gn/T//cc7eQgtd.s 			page 30


 1224              		@ sp needed
 1225 003e 10BD     		pop	{r4, pc}
 1226              	.LVL131:
 1227              	.L53:
 329:Drivers/STM32F0xx_HAL_Driver/Src/stm32f0xx_ll_usb.c **** 
 1228              		.loc 1 329 7 is_stmt 1 view .LVU375
 1229              	.LBB37:
 329:Drivers/STM32F0xx_HAL_Driver/Src/stm32f0xx_ll_usb.c **** 
 1230              		.loc 1 329 7 view .LVU376
 329:Drivers/STM32F0xx_HAL_Driver/Src/stm32f0xx_ll_usb.c **** 
 1231              		.loc 1 329 7 view .LVU377
 1232 0040 0B78     		ldrb	r3, [r1]
 1233 0042 9B00     		lsls	r3, r3, #2
 1234 0044 C318     		adds	r3, r0, r3
 1235 0046 1A88     		ldrh	r2, [r3]
 1236              	.LVL132:
 329:Drivers/STM32F0xx_HAL_Driver/Src/stm32f0xx_ll_usb.c **** 
 1237              		.loc 1 329 7 view .LVU378
 1238 0048 5204     		lsls	r2, r2, #17
 1239 004a 06D5     		bpl	.L56
 1240              	.LVL133:
 329:Drivers/STM32F0xx_HAL_Driver/Src/stm32f0xx_ll_usb.c **** 
 1241              		.loc 1 329 7 discriminator 1 view .LVU379
 1242              	.LBB38:
 329:Drivers/STM32F0xx_HAL_Driver/Src/stm32f0xx_ll_usb.c **** 
 1243              		.loc 1 329 7 discriminator 1 view .LVU380
 329:Drivers/STM32F0xx_HAL_Driver/Src/stm32f0xx_ll_usb.c **** 
 1244              		.loc 1 329 7 discriminator 1 view .LVU381
 1245 004c 1C88     		ldrh	r4, [r3]
 1246 004e 424A     		ldr	r2, .L68
 1247 0050 1440     		ands	r4, r2
 1248              	.LVL134:
 329:Drivers/STM32F0xx_HAL_Driver/Src/stm32f0xx_ll_usb.c **** 
 1249              		.loc 1 329 7 discriminator 1 view .LVU382
 1250 0052 454A     		ldr	r2, .L68+16
 1251 0054 2243     		orrs	r2, r4
 1252 0056 92B2     		uxth	r2, r2
 1253 0058 1A80     		strh	r2, [r3]
 1254              	.LVL135:
 1255              	.L56:
 329:Drivers/STM32F0xx_HAL_Driver/Src/stm32f0xx_ll_usb.c **** 
 1256              		.loc 1 329 7 is_stmt 0 discriminator 1 view .LVU383
 1257              	.LBE38:
 329:Drivers/STM32F0xx_HAL_Driver/Src/stm32f0xx_ll_usb.c **** 
 1258              		.loc 1 329 7 is_stmt 1 discriminator 3 view .LVU384
 1259              	.LBE37:
 329:Drivers/STM32F0xx_HAL_Driver/Src/stm32f0xx_ll_usb.c **** 
 1260              		.loc 1 329 7 discriminator 3 view .LVU385
 332:Drivers/STM32F0xx_HAL_Driver/Src/stm32f0xx_ll_usb.c ****     }
 1261              		.loc 1 332 7 view .LVU386
 1262              	.LBB39:
 332:Drivers/STM32F0xx_HAL_Driver/Src/stm32f0xx_ll_usb.c ****     }
 1263              		.loc 1 332 7 view .LVU387
 332:Drivers/STM32F0xx_HAL_Driver/Src/stm32f0xx_ll_usb.c ****     }
 1264              		.loc 1 332 7 view .LVU388
 1265 005a 0B78     		ldrb	r3, [r1]
 1266 005c 9B00     		lsls	r3, r3, #2
ARM GAS  /var/folders/kr/g9ry2bg56g773797gdtkvvkw0000gn/T//cc7eQgtd.s 			page 31


 1267 005e C318     		adds	r3, r0, r3
 1268 0060 1988     		ldrh	r1, [r3]
 1269              	.LVL136:
 332:Drivers/STM32F0xx_HAL_Driver/Src/stm32f0xx_ll_usb.c ****     }
 1270              		.loc 1 332 7 is_stmt 0 view .LVU389
 1271 0062 424A     		ldr	r2, .L68+20
 1272 0064 1140     		ands	r1, r2
 1273              	.LVL137:
 332:Drivers/STM32F0xx_HAL_Driver/Src/stm32f0xx_ll_usb.c ****     }
 1274              		.loc 1 332 7 is_stmt 1 view .LVU390
 332:Drivers/STM32F0xx_HAL_Driver/Src/stm32f0xx_ll_usb.c ****     }
 1275              		.loc 1 332 7 discriminator 3 view .LVU391
 332:Drivers/STM32F0xx_HAL_Driver/Src/stm32f0xx_ll_usb.c ****     }
 1276              		.loc 1 332 7 discriminator 6 view .LVU392
 1277 0066 3F4A     		ldr	r2, .L68+12
 1278 0068 0A43     		orrs	r2, r1
 1279 006a 92B2     		uxth	r2, r2
 1280 006c 1A80     		strh	r2, [r3]
 1281 006e E5E7     		b	.L55
 1282              	.LVL138:
 1283              	.L52:
 332:Drivers/STM32F0xx_HAL_Driver/Src/stm32f0xx_ll_usb.c ****     }
 1284              		.loc 1 332 7 is_stmt 0 discriminator 6 view .LVU393
 1285              	.LBE39:
 339:Drivers/STM32F0xx_HAL_Driver/Src/stm32f0xx_ll_usb.c ****     {
 1286              		.loc 1 339 5 is_stmt 1 view .LVU394
 339:Drivers/STM32F0xx_HAL_Driver/Src/stm32f0xx_ll_usb.c ****     {
 1287              		.loc 1 339 11 is_stmt 0 view .LVU395
 1288 0070 4B78     		ldrb	r3, [r1, #1]
 339:Drivers/STM32F0xx_HAL_Driver/Src/stm32f0xx_ll_usb.c ****     {
 1289              		.loc 1 339 8 view .LVU396
 1290 0072 002B     		cmp	r3, #0
 1291 0074 37D1     		bne	.L57
 342:Drivers/STM32F0xx_HAL_Driver/Src/stm32f0xx_ll_usb.c ****       PCD_CLEAR_TX_DTOG(USBx, ep->num);
 1292              		.loc 1 342 7 is_stmt 1 view .LVU397
 1293              	.LBB40:
 342:Drivers/STM32F0xx_HAL_Driver/Src/stm32f0xx_ll_usb.c ****       PCD_CLEAR_TX_DTOG(USBx, ep->num);
 1294              		.loc 1 342 7 view .LVU398
 342:Drivers/STM32F0xx_HAL_Driver/Src/stm32f0xx_ll_usb.c ****       PCD_CLEAR_TX_DTOG(USBx, ep->num);
 1295              		.loc 1 342 7 view .LVU399
 1296 0076 0B78     		ldrb	r3, [r1]
 1297 0078 9B00     		lsls	r3, r3, #2
 1298 007a C318     		adds	r3, r0, r3
 1299 007c 1A88     		ldrh	r2, [r3]
 1300              	.LVL139:
 342:Drivers/STM32F0xx_HAL_Driver/Src/stm32f0xx_ll_usb.c ****       PCD_CLEAR_TX_DTOG(USBx, ep->num);
 1301              		.loc 1 342 7 view .LVU400
 1302 007e 5204     		lsls	r2, r2, #17
 1303 0080 06D5     		bpl	.L58
 1304              	.LVL140:
 342:Drivers/STM32F0xx_HAL_Driver/Src/stm32f0xx_ll_usb.c ****       PCD_CLEAR_TX_DTOG(USBx, ep->num);
 1305              		.loc 1 342 7 discriminator 1 view .LVU401
 1306              	.LBB41:
 342:Drivers/STM32F0xx_HAL_Driver/Src/stm32f0xx_ll_usb.c ****       PCD_CLEAR_TX_DTOG(USBx, ep->num);
 1307              		.loc 1 342 7 discriminator 1 view .LVU402
 342:Drivers/STM32F0xx_HAL_Driver/Src/stm32f0xx_ll_usb.c ****       PCD_CLEAR_TX_DTOG(USBx, ep->num);
 1308              		.loc 1 342 7 discriminator 1 view .LVU403
ARM GAS  /var/folders/kr/g9ry2bg56g773797gdtkvvkw0000gn/T//cc7eQgtd.s 			page 32


 1309 0082 1C88     		ldrh	r4, [r3]
 1310 0084 344A     		ldr	r2, .L68
 1311 0086 1440     		ands	r4, r2
 1312              	.LVL141:
 342:Drivers/STM32F0xx_HAL_Driver/Src/stm32f0xx_ll_usb.c ****       PCD_CLEAR_TX_DTOG(USBx, ep->num);
 1313              		.loc 1 342 7 discriminator 1 view .LVU404
 1314 0088 374A     		ldr	r2, .L68+16
 1315 008a 2243     		orrs	r2, r4
 1316 008c 92B2     		uxth	r2, r2
 1317 008e 1A80     		strh	r2, [r3]
 1318              	.LVL142:
 1319              	.L58:
 342:Drivers/STM32F0xx_HAL_Driver/Src/stm32f0xx_ll_usb.c ****       PCD_CLEAR_TX_DTOG(USBx, ep->num);
 1320              		.loc 1 342 7 is_stmt 0 discriminator 1 view .LVU405
 1321              	.LBE41:
 342:Drivers/STM32F0xx_HAL_Driver/Src/stm32f0xx_ll_usb.c ****       PCD_CLEAR_TX_DTOG(USBx, ep->num);
 1322              		.loc 1 342 7 is_stmt 1 discriminator 3 view .LVU406
 1323              	.LBE40:
 342:Drivers/STM32F0xx_HAL_Driver/Src/stm32f0xx_ll_usb.c ****       PCD_CLEAR_TX_DTOG(USBx, ep->num);
 1324              		.loc 1 342 7 discriminator 3 view .LVU407
 343:Drivers/STM32F0xx_HAL_Driver/Src/stm32f0xx_ll_usb.c **** 
 1325              		.loc 1 343 7 view .LVU408
 1326              	.LBB42:
 343:Drivers/STM32F0xx_HAL_Driver/Src/stm32f0xx_ll_usb.c **** 
 1327              		.loc 1 343 7 view .LVU409
 343:Drivers/STM32F0xx_HAL_Driver/Src/stm32f0xx_ll_usb.c **** 
 1328              		.loc 1 343 7 view .LVU410
 1329 0090 0B78     		ldrb	r3, [r1]
 1330 0092 9B00     		lsls	r3, r3, #2
 1331 0094 C318     		adds	r3, r0, r3
 1332 0096 1A88     		ldrh	r2, [r3]
 1333              	.LVL143:
 343:Drivers/STM32F0xx_HAL_Driver/Src/stm32f0xx_ll_usb.c **** 
 1334              		.loc 1 343 7 view .LVU411
 1335 0098 5206     		lsls	r2, r2, #25
 1336 009a 06D5     		bpl	.L59
 1337              	.LVL144:
 343:Drivers/STM32F0xx_HAL_Driver/Src/stm32f0xx_ll_usb.c **** 
 1338              		.loc 1 343 7 discriminator 1 view .LVU412
 1339              	.LBB43:
 343:Drivers/STM32F0xx_HAL_Driver/Src/stm32f0xx_ll_usb.c **** 
 1340              		.loc 1 343 7 discriminator 1 view .LVU413
 343:Drivers/STM32F0xx_HAL_Driver/Src/stm32f0xx_ll_usb.c **** 
 1341              		.loc 1 343 7 discriminator 1 view .LVU414
 1342 009c 1C88     		ldrh	r4, [r3]
 1343 009e 2E4A     		ldr	r2, .L68
 1344 00a0 1440     		ands	r4, r2
 1345              	.LVL145:
 343:Drivers/STM32F0xx_HAL_Driver/Src/stm32f0xx_ll_usb.c **** 
 1346              		.loc 1 343 7 discriminator 1 view .LVU415
 1347 00a2 2E4A     		ldr	r2, .L68+4
 1348 00a4 2243     		orrs	r2, r4
 1349 00a6 92B2     		uxth	r2, r2
 1350 00a8 1A80     		strh	r2, [r3]
 1351              	.LVL146:
 1352              	.L59:
 343:Drivers/STM32F0xx_HAL_Driver/Src/stm32f0xx_ll_usb.c **** 
ARM GAS  /var/folders/kr/g9ry2bg56g773797gdtkvvkw0000gn/T//cc7eQgtd.s 			page 33


 1353              		.loc 1 343 7 is_stmt 0 discriminator 1 view .LVU416
 1354              	.LBE43:
 343:Drivers/STM32F0xx_HAL_Driver/Src/stm32f0xx_ll_usb.c **** 
 1355              		.loc 1 343 7 is_stmt 1 discriminator 3 view .LVU417
 1356              	.LBE42:
 343:Drivers/STM32F0xx_HAL_Driver/Src/stm32f0xx_ll_usb.c **** 
 1357              		.loc 1 343 7 discriminator 3 view .LVU418
 346:Drivers/STM32F0xx_HAL_Driver/Src/stm32f0xx_ll_usb.c **** 
 1358              		.loc 1 346 7 view .LVU419
 1359              	.LBB44:
 346:Drivers/STM32F0xx_HAL_Driver/Src/stm32f0xx_ll_usb.c **** 
 1360              		.loc 1 346 7 view .LVU420
 346:Drivers/STM32F0xx_HAL_Driver/Src/stm32f0xx_ll_usb.c **** 
 1361              		.loc 1 346 7 view .LVU421
 1362 00aa 0B78     		ldrb	r3, [r1]
 1363 00ac 9B00     		lsls	r3, r3, #2
 1364 00ae C318     		adds	r3, r0, r3
 1365 00b0 1C88     		ldrh	r4, [r3]
 1366 00b2 294A     		ldr	r2, .L68
 1367 00b4 1440     		ands	r4, r2
 1368              	.LVL147:
 346:Drivers/STM32F0xx_HAL_Driver/Src/stm32f0xx_ll_usb.c **** 
 1369              		.loc 1 346 7 view .LVU422
 1370 00b6 294A     		ldr	r2, .L68+4
 1371 00b8 2243     		orrs	r2, r4
 1372 00ba 92B2     		uxth	r2, r2
 1373 00bc 1A80     		strh	r2, [r3]
 1374              	.LBE44:
 346:Drivers/STM32F0xx_HAL_Driver/Src/stm32f0xx_ll_usb.c **** 
 1375              		.loc 1 346 7 view .LVU423
 348:Drivers/STM32F0xx_HAL_Driver/Src/stm32f0xx_ll_usb.c ****       PCD_SET_EP_TX_STATUS(USBx, ep->num, USB_EP_TX_DIS);
 1376              		.loc 1 348 7 view .LVU424
 1377              	.LBB45:
 348:Drivers/STM32F0xx_HAL_Driver/Src/stm32f0xx_ll_usb.c ****       PCD_SET_EP_TX_STATUS(USBx, ep->num, USB_EP_TX_DIS);
 1378              		.loc 1 348 7 view .LVU425
 348:Drivers/STM32F0xx_HAL_Driver/Src/stm32f0xx_ll_usb.c ****       PCD_SET_EP_TX_STATUS(USBx, ep->num, USB_EP_TX_DIS);
 1379              		.loc 1 348 7 view .LVU426
 1380 00be 0C78     		ldrb	r4, [r1]
 1381              	.LVL148:
 348:Drivers/STM32F0xx_HAL_Driver/Src/stm32f0xx_ll_usb.c ****       PCD_SET_EP_TX_STATUS(USBx, ep->num, USB_EP_TX_DIS);
 1382              		.loc 1 348 7 is_stmt 0 view .LVU427
 1383 00c0 A400     		lsls	r4, r4, #2
 1384 00c2 0419     		adds	r4, r0, r4
 1385 00c4 2388     		ldrh	r3, [r4]
 1386 00c6 294A     		ldr	r2, .L68+20
 1387 00c8 1340     		ands	r3, r2
 1388              	.LVL149:
 348:Drivers/STM32F0xx_HAL_Driver/Src/stm32f0xx_ll_usb.c ****       PCD_SET_EP_TX_STATUS(USBx, ep->num, USB_EP_TX_DIS);
 1389              		.loc 1 348 7 is_stmt 1 view .LVU428
 348:Drivers/STM32F0xx_HAL_Driver/Src/stm32f0xx_ll_usb.c ****       PCD_SET_EP_TX_STATUS(USBx, ep->num, USB_EP_TX_DIS);
 1390              		.loc 1 348 7 discriminator 3 view .LVU429
 348:Drivers/STM32F0xx_HAL_Driver/Src/stm32f0xx_ll_usb.c ****       PCD_SET_EP_TX_STATUS(USBx, ep->num, USB_EP_TX_DIS);
 1391              		.loc 1 348 7 discriminator 6 view .LVU430
 1392 00ca 264A     		ldr	r2, .L68+12
 1393 00cc 1343     		orrs	r3, r2
 1394              	.LVL150:
 348:Drivers/STM32F0xx_HAL_Driver/Src/stm32f0xx_ll_usb.c ****       PCD_SET_EP_TX_STATUS(USBx, ep->num, USB_EP_TX_DIS);
ARM GAS  /var/folders/kr/g9ry2bg56g773797gdtkvvkw0000gn/T//cc7eQgtd.s 			page 34


 1395              		.loc 1 348 7 is_stmt 0 discriminator 6 view .LVU431
 1396 00ce 9BB2     		uxth	r3, r3
 1397 00d0 2380     		strh	r3, [r4]
 1398              	.LBE45:
 348:Drivers/STM32F0xx_HAL_Driver/Src/stm32f0xx_ll_usb.c ****       PCD_SET_EP_TX_STATUS(USBx, ep->num, USB_EP_TX_DIS);
 1399              		.loc 1 348 7 is_stmt 1 discriminator 6 view .LVU432
 349:Drivers/STM32F0xx_HAL_Driver/Src/stm32f0xx_ll_usb.c ****     }
 1400              		.loc 1 349 7 view .LVU433
 1401              	.LBB46:
 349:Drivers/STM32F0xx_HAL_Driver/Src/stm32f0xx_ll_usb.c ****     }
 1402              		.loc 1 349 7 view .LVU434
 349:Drivers/STM32F0xx_HAL_Driver/Src/stm32f0xx_ll_usb.c ****     }
 1403              		.loc 1 349 7 view .LVU435
 1404 00d2 0B78     		ldrb	r3, [r1]
 1405 00d4 9B00     		lsls	r3, r3, #2
 1406 00d6 C318     		adds	r3, r0, r3
 1407 00d8 1988     		ldrh	r1, [r3]
 1408              	.LVL151:
 349:Drivers/STM32F0xx_HAL_Driver/Src/stm32f0xx_ll_usb.c ****     }
 1409              		.loc 1 349 7 is_stmt 0 view .LVU436
 1410 00da 2148     		ldr	r0, .L68+8
 1411              	.LVL152:
 349:Drivers/STM32F0xx_HAL_Driver/Src/stm32f0xx_ll_usb.c ****     }
 1412              		.loc 1 349 7 view .LVU437
 1413 00dc 0140     		ands	r1, r0
 1414              	.LVL153:
 349:Drivers/STM32F0xx_HAL_Driver/Src/stm32f0xx_ll_usb.c ****     }
 1415              		.loc 1 349 7 is_stmt 1 view .LVU438
 349:Drivers/STM32F0xx_HAL_Driver/Src/stm32f0xx_ll_usb.c ****     }
 1416              		.loc 1 349 7 discriminator 3 view .LVU439
 349:Drivers/STM32F0xx_HAL_Driver/Src/stm32f0xx_ll_usb.c ****     }
 1417              		.loc 1 349 7 discriminator 6 view .LVU440
 1418 00de 0A43     		orrs	r2, r1
 1419 00e0 92B2     		uxth	r2, r2
 1420 00e2 1A80     		strh	r2, [r3]
 1421              	.LBE46:
 349:Drivers/STM32F0xx_HAL_Driver/Src/stm32f0xx_ll_usb.c ****     }
 1422              		.loc 1 349 7 discriminator 6 view .LVU441
 1423 00e4 AAE7     		b	.L55
 1424              	.LVL154:
 1425              	.L57:
 354:Drivers/STM32F0xx_HAL_Driver/Src/stm32f0xx_ll_usb.c ****       PCD_CLEAR_TX_DTOG(USBx, ep->num);
 1426              		.loc 1 354 7 view .LVU442
 1427              	.LBB47:
 354:Drivers/STM32F0xx_HAL_Driver/Src/stm32f0xx_ll_usb.c ****       PCD_CLEAR_TX_DTOG(USBx, ep->num);
 1428              		.loc 1 354 7 view .LVU443
 354:Drivers/STM32F0xx_HAL_Driver/Src/stm32f0xx_ll_usb.c ****       PCD_CLEAR_TX_DTOG(USBx, ep->num);
 1429              		.loc 1 354 7 view .LVU444
 1430 00e6 0B78     		ldrb	r3, [r1]
 1431 00e8 9B00     		lsls	r3, r3, #2
 1432 00ea C318     		adds	r3, r0, r3
 1433 00ec 1A88     		ldrh	r2, [r3]
 1434              	.LVL155:
 354:Drivers/STM32F0xx_HAL_Driver/Src/stm32f0xx_ll_usb.c ****       PCD_CLEAR_TX_DTOG(USBx, ep->num);
 1435              		.loc 1 354 7 view .LVU445
 1436 00ee 5204     		lsls	r2, r2, #17
 1437 00f0 06D5     		bpl	.L60
ARM GAS  /var/folders/kr/g9ry2bg56g773797gdtkvvkw0000gn/T//cc7eQgtd.s 			page 35


 1438              	.LVL156:
 354:Drivers/STM32F0xx_HAL_Driver/Src/stm32f0xx_ll_usb.c ****       PCD_CLEAR_TX_DTOG(USBx, ep->num);
 1439              		.loc 1 354 7 discriminator 1 view .LVU446
 1440              	.LBB48:
 354:Drivers/STM32F0xx_HAL_Driver/Src/stm32f0xx_ll_usb.c ****       PCD_CLEAR_TX_DTOG(USBx, ep->num);
 1441              		.loc 1 354 7 discriminator 1 view .LVU447
 354:Drivers/STM32F0xx_HAL_Driver/Src/stm32f0xx_ll_usb.c ****       PCD_CLEAR_TX_DTOG(USBx, ep->num);
 1442              		.loc 1 354 7 discriminator 1 view .LVU448
 1443 00f2 1C88     		ldrh	r4, [r3]
 1444 00f4 184A     		ldr	r2, .L68
 1445 00f6 1440     		ands	r4, r2
 1446              	.LVL157:
 354:Drivers/STM32F0xx_HAL_Driver/Src/stm32f0xx_ll_usb.c ****       PCD_CLEAR_TX_DTOG(USBx, ep->num);
 1447              		.loc 1 354 7 discriminator 1 view .LVU449
 1448 00f8 1B4A     		ldr	r2, .L68+16
 1449 00fa 2243     		orrs	r2, r4
 1450 00fc 92B2     		uxth	r2, r2
 1451 00fe 1A80     		strh	r2, [r3]
 1452              	.LVL158:
 1453              	.L60:
 354:Drivers/STM32F0xx_HAL_Driver/Src/stm32f0xx_ll_usb.c ****       PCD_CLEAR_TX_DTOG(USBx, ep->num);
 1454              		.loc 1 354 7 is_stmt 0 discriminator 1 view .LVU450
 1455              	.LBE48:
 354:Drivers/STM32F0xx_HAL_Driver/Src/stm32f0xx_ll_usb.c ****       PCD_CLEAR_TX_DTOG(USBx, ep->num);
 1456              		.loc 1 354 7 is_stmt 1 discriminator 3 view .LVU451
 1457              	.LBE47:
 354:Drivers/STM32F0xx_HAL_Driver/Src/stm32f0xx_ll_usb.c ****       PCD_CLEAR_TX_DTOG(USBx, ep->num);
 1458              		.loc 1 354 7 discriminator 3 view .LVU452
 355:Drivers/STM32F0xx_HAL_Driver/Src/stm32f0xx_ll_usb.c ****       PCD_RX_DTOG(USBx, ep->num);
 1459              		.loc 1 355 7 view .LVU453
 1460              	.LBB49:
 355:Drivers/STM32F0xx_HAL_Driver/Src/stm32f0xx_ll_usb.c ****       PCD_RX_DTOG(USBx, ep->num);
 1461              		.loc 1 355 7 view .LVU454
 355:Drivers/STM32F0xx_HAL_Driver/Src/stm32f0xx_ll_usb.c ****       PCD_RX_DTOG(USBx, ep->num);
 1462              		.loc 1 355 7 view .LVU455
 1463 0100 0B78     		ldrb	r3, [r1]
 1464 0102 9B00     		lsls	r3, r3, #2
 1465 0104 C318     		adds	r3, r0, r3
 1466 0106 1A88     		ldrh	r2, [r3]
 1467              	.LVL159:
 355:Drivers/STM32F0xx_HAL_Driver/Src/stm32f0xx_ll_usb.c ****       PCD_RX_DTOG(USBx, ep->num);
 1468              		.loc 1 355 7 view .LVU456
 1469 0108 5206     		lsls	r2, r2, #25
 1470 010a 06D5     		bpl	.L61
 1471              	.LVL160:
 355:Drivers/STM32F0xx_HAL_Driver/Src/stm32f0xx_ll_usb.c ****       PCD_RX_DTOG(USBx, ep->num);
 1472              		.loc 1 355 7 discriminator 1 view .LVU457
 1473              	.LBB50:
 355:Drivers/STM32F0xx_HAL_Driver/Src/stm32f0xx_ll_usb.c ****       PCD_RX_DTOG(USBx, ep->num);
 1474              		.loc 1 355 7 discriminator 1 view .LVU458
 355:Drivers/STM32F0xx_HAL_Driver/Src/stm32f0xx_ll_usb.c ****       PCD_RX_DTOG(USBx, ep->num);
 1475              		.loc 1 355 7 discriminator 1 view .LVU459
 1476 010c 1C88     		ldrh	r4, [r3]
 1477 010e 124A     		ldr	r2, .L68
 1478 0110 1440     		ands	r4, r2
 1479              	.LVL161:
 355:Drivers/STM32F0xx_HAL_Driver/Src/stm32f0xx_ll_usb.c ****       PCD_RX_DTOG(USBx, ep->num);
ARM GAS  /var/folders/kr/g9ry2bg56g773797gdtkvvkw0000gn/T//cc7eQgtd.s 			page 36


 1480              		.loc 1 355 7 discriminator 1 view .LVU460
 1481 0112 124A     		ldr	r2, .L68+4
 1482 0114 2243     		orrs	r2, r4
 1483 0116 92B2     		uxth	r2, r2
 1484 0118 1A80     		strh	r2, [r3]
 1485              	.LVL162:
 1486              	.L61:
 355:Drivers/STM32F0xx_HAL_Driver/Src/stm32f0xx_ll_usb.c ****       PCD_RX_DTOG(USBx, ep->num);
 1487              		.loc 1 355 7 is_stmt 0 discriminator 1 view .LVU461
 1488              	.LBE50:
 355:Drivers/STM32F0xx_HAL_Driver/Src/stm32f0xx_ll_usb.c ****       PCD_RX_DTOG(USBx, ep->num);
 1489              		.loc 1 355 7 is_stmt 1 discriminator 3 view .LVU462
 1490              	.LBE49:
 355:Drivers/STM32F0xx_HAL_Driver/Src/stm32f0xx_ll_usb.c ****       PCD_RX_DTOG(USBx, ep->num);
 1491              		.loc 1 355 7 discriminator 3 view .LVU463
 356:Drivers/STM32F0xx_HAL_Driver/Src/stm32f0xx_ll_usb.c **** 
 1492              		.loc 1 356 7 view .LVU464
 1493              	.LBB51:
 356:Drivers/STM32F0xx_HAL_Driver/Src/stm32f0xx_ll_usb.c **** 
 1494              		.loc 1 356 7 view .LVU465
 356:Drivers/STM32F0xx_HAL_Driver/Src/stm32f0xx_ll_usb.c **** 
 1495              		.loc 1 356 7 view .LVU466
 1496 011a 0B78     		ldrb	r3, [r1]
 1497 011c 9B00     		lsls	r3, r3, #2
 1498 011e C318     		adds	r3, r0, r3
 1499 0120 1C88     		ldrh	r4, [r3]
 1500 0122 0D4A     		ldr	r2, .L68
 1501 0124 1440     		ands	r4, r2
 1502              	.LVL163:
 356:Drivers/STM32F0xx_HAL_Driver/Src/stm32f0xx_ll_usb.c **** 
 1503              		.loc 1 356 7 view .LVU467
 1504 0126 104A     		ldr	r2, .L68+16
 1505 0128 2243     		orrs	r2, r4
 1506 012a 92B2     		uxth	r2, r2
 1507 012c 1A80     		strh	r2, [r3]
 1508              	.LBE51:
 356:Drivers/STM32F0xx_HAL_Driver/Src/stm32f0xx_ll_usb.c **** 
 1509              		.loc 1 356 7 view .LVU468
 359:Drivers/STM32F0xx_HAL_Driver/Src/stm32f0xx_ll_usb.c ****       PCD_SET_EP_RX_STATUS(USBx, ep->num, USB_EP_RX_DIS);
 1510              		.loc 1 359 7 view .LVU469
 1511              	.LBB52:
 359:Drivers/STM32F0xx_HAL_Driver/Src/stm32f0xx_ll_usb.c ****       PCD_SET_EP_RX_STATUS(USBx, ep->num, USB_EP_RX_DIS);
 1512              		.loc 1 359 7 view .LVU470
 359:Drivers/STM32F0xx_HAL_Driver/Src/stm32f0xx_ll_usb.c ****       PCD_SET_EP_RX_STATUS(USBx, ep->num, USB_EP_RX_DIS);
 1513              		.loc 1 359 7 view .LVU471
 1514 012e 0C78     		ldrb	r4, [r1]
 1515              	.LVL164:
 359:Drivers/STM32F0xx_HAL_Driver/Src/stm32f0xx_ll_usb.c ****       PCD_SET_EP_RX_STATUS(USBx, ep->num, USB_EP_RX_DIS);
 1516              		.loc 1 359 7 is_stmt 0 view .LVU472
 1517 0130 A400     		lsls	r4, r4, #2
 1518 0132 0419     		adds	r4, r0, r4
 1519 0134 2388     		ldrh	r3, [r4]
 1520 0136 0A4A     		ldr	r2, .L68+8
 1521 0138 1340     		ands	r3, r2
 1522              	.LVL165:
 359:Drivers/STM32F0xx_HAL_Driver/Src/stm32f0xx_ll_usb.c ****       PCD_SET_EP_RX_STATUS(USBx, ep->num, USB_EP_RX_DIS);
 1523              		.loc 1 359 7 is_stmt 1 view .LVU473
ARM GAS  /var/folders/kr/g9ry2bg56g773797gdtkvvkw0000gn/T//cc7eQgtd.s 			page 37


 359:Drivers/STM32F0xx_HAL_Driver/Src/stm32f0xx_ll_usb.c ****       PCD_SET_EP_RX_STATUS(USBx, ep->num, USB_EP_RX_DIS);
 1524              		.loc 1 359 7 discriminator 3 view .LVU474
 359:Drivers/STM32F0xx_HAL_Driver/Src/stm32f0xx_ll_usb.c ****       PCD_SET_EP_RX_STATUS(USBx, ep->num, USB_EP_RX_DIS);
 1525              		.loc 1 359 7 discriminator 6 view .LVU475
 1526 013a 0A4A     		ldr	r2, .L68+12
 1527 013c 1343     		orrs	r3, r2
 1528              	.LVL166:
 359:Drivers/STM32F0xx_HAL_Driver/Src/stm32f0xx_ll_usb.c ****       PCD_SET_EP_RX_STATUS(USBx, ep->num, USB_EP_RX_DIS);
 1529              		.loc 1 359 7 is_stmt 0 discriminator 6 view .LVU476
 1530 013e 9BB2     		uxth	r3, r3
 1531 0140 2380     		strh	r3, [r4]
 1532              	.LBE52:
 359:Drivers/STM32F0xx_HAL_Driver/Src/stm32f0xx_ll_usb.c ****       PCD_SET_EP_RX_STATUS(USBx, ep->num, USB_EP_RX_DIS);
 1533              		.loc 1 359 7 is_stmt 1 discriminator 6 view .LVU477
 360:Drivers/STM32F0xx_HAL_Driver/Src/stm32f0xx_ll_usb.c ****     }
 1534              		.loc 1 360 7 view .LVU478
 1535              	.LBB53:
 360:Drivers/STM32F0xx_HAL_Driver/Src/stm32f0xx_ll_usb.c ****     }
 1536              		.loc 1 360 7 view .LVU479
 360:Drivers/STM32F0xx_HAL_Driver/Src/stm32f0xx_ll_usb.c ****     }
 1537              		.loc 1 360 7 view .LVU480
 1538 0142 0B78     		ldrb	r3, [r1]
 1539 0144 9B00     		lsls	r3, r3, #2
 1540 0146 C018     		adds	r0, r0, r3
 1541              	.LVL167:
 360:Drivers/STM32F0xx_HAL_Driver/Src/stm32f0xx_ll_usb.c ****     }
 1542              		.loc 1 360 7 is_stmt 0 view .LVU481
 1543 0148 0388     		ldrh	r3, [r0]
 1544 014a 0849     		ldr	r1, .L68+20
 1545              	.LVL168:
 360:Drivers/STM32F0xx_HAL_Driver/Src/stm32f0xx_ll_usb.c ****     }
 1546              		.loc 1 360 7 view .LVU482
 1547 014c 0B40     		ands	r3, r1
 1548              	.LVL169:
 360:Drivers/STM32F0xx_HAL_Driver/Src/stm32f0xx_ll_usb.c ****     }
 1549              		.loc 1 360 7 is_stmt 1 view .LVU483
 360:Drivers/STM32F0xx_HAL_Driver/Src/stm32f0xx_ll_usb.c ****     }
 1550              		.loc 1 360 7 discriminator 3 view .LVU484
 360:Drivers/STM32F0xx_HAL_Driver/Src/stm32f0xx_ll_usb.c ****     }
 1551              		.loc 1 360 7 discriminator 6 view .LVU485
 1552 014e 1A43     		orrs	r2, r3
 1553 0150 92B2     		uxth	r2, r2
 1554 0152 0280     		strh	r2, [r0]
 1555 0154 72E7     		b	.L55
 1556              	.L69:
 1557 0156 C046     		.align	2
 1558              	.L68:
 1559 0158 8F8FFFFF 		.word	-28785
 1560 015c C080FFFF 		.word	-32576
 1561 0160 BF8FFFFF 		.word	-28737
 1562 0164 8080FFFF 		.word	-32640
 1563 0168 80C0FFFF 		.word	-16256
 1564 016c 8FBFFFFF 		.word	-16497
 1565              	.LBE53:
 1566              		.cfi_endproc
 1567              	.LFE46:
 1569              		.section	.text.USB_EPSetStall,"ax",%progbits
ARM GAS  /var/folders/kr/g9ry2bg56g773797gdtkvvkw0000gn/T//cc7eQgtd.s 			page 38


 1570              		.align	1
 1571              		.global	USB_EPSetStall
 1572              		.syntax unified
 1573              		.code	16
 1574              		.thumb_func
 1576              	USB_EPSetStall:
 1577              	.LVL170:
 1578              	.LFB48:
 367:Drivers/STM32F0xx_HAL_Driver/Src/stm32f0xx_ll_usb.c **** 
 368:Drivers/STM32F0xx_HAL_Driver/Src/stm32f0xx_ll_usb.c **** /**
 369:Drivers/STM32F0xx_HAL_Driver/Src/stm32f0xx_ll_usb.c ****   * @brief  USB_EPStartXfer setup and starts a transfer over an EP
 370:Drivers/STM32F0xx_HAL_Driver/Src/stm32f0xx_ll_usb.c ****   * @param  USBx Selected device
 371:Drivers/STM32F0xx_HAL_Driver/Src/stm32f0xx_ll_usb.c ****   * @param  ep pointer to endpoint structure
 372:Drivers/STM32F0xx_HAL_Driver/Src/stm32f0xx_ll_usb.c ****   * @retval HAL status
 373:Drivers/STM32F0xx_HAL_Driver/Src/stm32f0xx_ll_usb.c ****   */
 374:Drivers/STM32F0xx_HAL_Driver/Src/stm32f0xx_ll_usb.c **** HAL_StatusTypeDef USB_EPStartXfer(USB_TypeDef *USBx, USB_EPTypeDef *ep)
 375:Drivers/STM32F0xx_HAL_Driver/Src/stm32f0xx_ll_usb.c **** {
 376:Drivers/STM32F0xx_HAL_Driver/Src/stm32f0xx_ll_usb.c ****   uint32_t len;
 377:Drivers/STM32F0xx_HAL_Driver/Src/stm32f0xx_ll_usb.c **** #if (USE_USB_DOUBLE_BUFFER == 1U)
 378:Drivers/STM32F0xx_HAL_Driver/Src/stm32f0xx_ll_usb.c ****   uint16_t pmabuffer;
 379:Drivers/STM32F0xx_HAL_Driver/Src/stm32f0xx_ll_usb.c ****   uint16_t wEPVal;
 380:Drivers/STM32F0xx_HAL_Driver/Src/stm32f0xx_ll_usb.c **** #endif /* (USE_USB_DOUBLE_BUFFER == 1U) */
 381:Drivers/STM32F0xx_HAL_Driver/Src/stm32f0xx_ll_usb.c **** 
 382:Drivers/STM32F0xx_HAL_Driver/Src/stm32f0xx_ll_usb.c ****   /* IN endpoint */
 383:Drivers/STM32F0xx_HAL_Driver/Src/stm32f0xx_ll_usb.c ****   if (ep->is_in == 1U)
 384:Drivers/STM32F0xx_HAL_Driver/Src/stm32f0xx_ll_usb.c ****   {
 385:Drivers/STM32F0xx_HAL_Driver/Src/stm32f0xx_ll_usb.c ****     /*Multi packet transfer*/
 386:Drivers/STM32F0xx_HAL_Driver/Src/stm32f0xx_ll_usb.c ****     if (ep->xfer_len > ep->maxpacket)
 387:Drivers/STM32F0xx_HAL_Driver/Src/stm32f0xx_ll_usb.c ****     {
 388:Drivers/STM32F0xx_HAL_Driver/Src/stm32f0xx_ll_usb.c ****       len = ep->maxpacket;
 389:Drivers/STM32F0xx_HAL_Driver/Src/stm32f0xx_ll_usb.c ****     }
 390:Drivers/STM32F0xx_HAL_Driver/Src/stm32f0xx_ll_usb.c ****     else
 391:Drivers/STM32F0xx_HAL_Driver/Src/stm32f0xx_ll_usb.c ****     {
 392:Drivers/STM32F0xx_HAL_Driver/Src/stm32f0xx_ll_usb.c ****       len = ep->xfer_len;
 393:Drivers/STM32F0xx_HAL_Driver/Src/stm32f0xx_ll_usb.c ****     }
 394:Drivers/STM32F0xx_HAL_Driver/Src/stm32f0xx_ll_usb.c **** 
 395:Drivers/STM32F0xx_HAL_Driver/Src/stm32f0xx_ll_usb.c ****     /* configure and validate Tx endpoint */
 396:Drivers/STM32F0xx_HAL_Driver/Src/stm32f0xx_ll_usb.c ****     if (ep->doublebuffer == 0U)
 397:Drivers/STM32F0xx_HAL_Driver/Src/stm32f0xx_ll_usb.c ****     {
 398:Drivers/STM32F0xx_HAL_Driver/Src/stm32f0xx_ll_usb.c ****       USB_WritePMA(USBx, ep->xfer_buff, ep->pmaadress, (uint16_t)len);
 399:Drivers/STM32F0xx_HAL_Driver/Src/stm32f0xx_ll_usb.c ****       PCD_SET_EP_TX_CNT(USBx, ep->num, len);
 400:Drivers/STM32F0xx_HAL_Driver/Src/stm32f0xx_ll_usb.c ****     }
 401:Drivers/STM32F0xx_HAL_Driver/Src/stm32f0xx_ll_usb.c **** #if (USE_USB_DOUBLE_BUFFER == 1U)
 402:Drivers/STM32F0xx_HAL_Driver/Src/stm32f0xx_ll_usb.c ****     else
 403:Drivers/STM32F0xx_HAL_Driver/Src/stm32f0xx_ll_usb.c ****     {
 404:Drivers/STM32F0xx_HAL_Driver/Src/stm32f0xx_ll_usb.c ****       /* double buffer bulk management */
 405:Drivers/STM32F0xx_HAL_Driver/Src/stm32f0xx_ll_usb.c ****       if (ep->type == EP_TYPE_BULK)
 406:Drivers/STM32F0xx_HAL_Driver/Src/stm32f0xx_ll_usb.c ****       {
 407:Drivers/STM32F0xx_HAL_Driver/Src/stm32f0xx_ll_usb.c ****         if (ep->xfer_len_db > ep->maxpacket)
 408:Drivers/STM32F0xx_HAL_Driver/Src/stm32f0xx_ll_usb.c ****         {
 409:Drivers/STM32F0xx_HAL_Driver/Src/stm32f0xx_ll_usb.c ****           /* enable double buffer */
 410:Drivers/STM32F0xx_HAL_Driver/Src/stm32f0xx_ll_usb.c ****           PCD_SET_BULK_EP_DBUF(USBx, ep->num);
 411:Drivers/STM32F0xx_HAL_Driver/Src/stm32f0xx_ll_usb.c **** 
 412:Drivers/STM32F0xx_HAL_Driver/Src/stm32f0xx_ll_usb.c ****           /* each Time to write in PMA xfer_len_db will */
 413:Drivers/STM32F0xx_HAL_Driver/Src/stm32f0xx_ll_usb.c ****           ep->xfer_len_db -= len;
 414:Drivers/STM32F0xx_HAL_Driver/Src/stm32f0xx_ll_usb.c **** 
 415:Drivers/STM32F0xx_HAL_Driver/Src/stm32f0xx_ll_usb.c ****           /* Fill the two first buffer in the Buffer0 & Buffer1 */
ARM GAS  /var/folders/kr/g9ry2bg56g773797gdtkvvkw0000gn/T//cc7eQgtd.s 			page 39


 416:Drivers/STM32F0xx_HAL_Driver/Src/stm32f0xx_ll_usb.c ****           if ((PCD_GET_ENDPOINT(USBx, ep->num) & USB_EP_DTOG_TX) != 0U)
 417:Drivers/STM32F0xx_HAL_Driver/Src/stm32f0xx_ll_usb.c ****           {
 418:Drivers/STM32F0xx_HAL_Driver/Src/stm32f0xx_ll_usb.c ****             /* Set the Double buffer counter for pmabuffer1 */
 419:Drivers/STM32F0xx_HAL_Driver/Src/stm32f0xx_ll_usb.c ****             PCD_SET_EP_DBUF1_CNT(USBx, ep->num, ep->is_in, len);
 420:Drivers/STM32F0xx_HAL_Driver/Src/stm32f0xx_ll_usb.c ****             pmabuffer = ep->pmaaddr1;
 421:Drivers/STM32F0xx_HAL_Driver/Src/stm32f0xx_ll_usb.c **** 
 422:Drivers/STM32F0xx_HAL_Driver/Src/stm32f0xx_ll_usb.c ****             /* Write the user buffer to USB PMA */
 423:Drivers/STM32F0xx_HAL_Driver/Src/stm32f0xx_ll_usb.c ****             USB_WritePMA(USBx, ep->xfer_buff, pmabuffer, (uint16_t)len);
 424:Drivers/STM32F0xx_HAL_Driver/Src/stm32f0xx_ll_usb.c ****             ep->xfer_buff += len;
 425:Drivers/STM32F0xx_HAL_Driver/Src/stm32f0xx_ll_usb.c **** 
 426:Drivers/STM32F0xx_HAL_Driver/Src/stm32f0xx_ll_usb.c ****             if (ep->xfer_len_db > ep->maxpacket)
 427:Drivers/STM32F0xx_HAL_Driver/Src/stm32f0xx_ll_usb.c ****             {
 428:Drivers/STM32F0xx_HAL_Driver/Src/stm32f0xx_ll_usb.c ****               ep->xfer_len_db -= len;
 429:Drivers/STM32F0xx_HAL_Driver/Src/stm32f0xx_ll_usb.c ****             }
 430:Drivers/STM32F0xx_HAL_Driver/Src/stm32f0xx_ll_usb.c ****             else
 431:Drivers/STM32F0xx_HAL_Driver/Src/stm32f0xx_ll_usb.c ****             {
 432:Drivers/STM32F0xx_HAL_Driver/Src/stm32f0xx_ll_usb.c ****               len = ep->xfer_len_db;
 433:Drivers/STM32F0xx_HAL_Driver/Src/stm32f0xx_ll_usb.c ****               ep->xfer_len_db = 0U;
 434:Drivers/STM32F0xx_HAL_Driver/Src/stm32f0xx_ll_usb.c ****             }
 435:Drivers/STM32F0xx_HAL_Driver/Src/stm32f0xx_ll_usb.c **** 
 436:Drivers/STM32F0xx_HAL_Driver/Src/stm32f0xx_ll_usb.c ****             /* Set the Double buffer counter for pmabuffer0 */
 437:Drivers/STM32F0xx_HAL_Driver/Src/stm32f0xx_ll_usb.c ****             PCD_SET_EP_DBUF0_CNT(USBx, ep->num, ep->is_in, len);
 438:Drivers/STM32F0xx_HAL_Driver/Src/stm32f0xx_ll_usb.c ****             pmabuffer = ep->pmaaddr0;
 439:Drivers/STM32F0xx_HAL_Driver/Src/stm32f0xx_ll_usb.c **** 
 440:Drivers/STM32F0xx_HAL_Driver/Src/stm32f0xx_ll_usb.c ****             /* Write the user buffer to USB PMA */
 441:Drivers/STM32F0xx_HAL_Driver/Src/stm32f0xx_ll_usb.c ****             USB_WritePMA(USBx, ep->xfer_buff, pmabuffer, (uint16_t)len);
 442:Drivers/STM32F0xx_HAL_Driver/Src/stm32f0xx_ll_usb.c ****           }
 443:Drivers/STM32F0xx_HAL_Driver/Src/stm32f0xx_ll_usb.c ****           else
 444:Drivers/STM32F0xx_HAL_Driver/Src/stm32f0xx_ll_usb.c ****           {
 445:Drivers/STM32F0xx_HAL_Driver/Src/stm32f0xx_ll_usb.c ****             /* Set the Double buffer counter for pmabuffer0 */
 446:Drivers/STM32F0xx_HAL_Driver/Src/stm32f0xx_ll_usb.c ****             PCD_SET_EP_DBUF0_CNT(USBx, ep->num, ep->is_in, len);
 447:Drivers/STM32F0xx_HAL_Driver/Src/stm32f0xx_ll_usb.c ****             pmabuffer = ep->pmaaddr0;
 448:Drivers/STM32F0xx_HAL_Driver/Src/stm32f0xx_ll_usb.c **** 
 449:Drivers/STM32F0xx_HAL_Driver/Src/stm32f0xx_ll_usb.c ****             /* Write the user buffer to USB PMA */
 450:Drivers/STM32F0xx_HAL_Driver/Src/stm32f0xx_ll_usb.c ****             USB_WritePMA(USBx, ep->xfer_buff, pmabuffer, (uint16_t)len);
 451:Drivers/STM32F0xx_HAL_Driver/Src/stm32f0xx_ll_usb.c ****             ep->xfer_buff += len;
 452:Drivers/STM32F0xx_HAL_Driver/Src/stm32f0xx_ll_usb.c **** 
 453:Drivers/STM32F0xx_HAL_Driver/Src/stm32f0xx_ll_usb.c ****             if (ep->xfer_len_db > ep->maxpacket)
 454:Drivers/STM32F0xx_HAL_Driver/Src/stm32f0xx_ll_usb.c ****             {
 455:Drivers/STM32F0xx_HAL_Driver/Src/stm32f0xx_ll_usb.c ****               ep->xfer_len_db -= len;
 456:Drivers/STM32F0xx_HAL_Driver/Src/stm32f0xx_ll_usb.c ****             }
 457:Drivers/STM32F0xx_HAL_Driver/Src/stm32f0xx_ll_usb.c ****             else
 458:Drivers/STM32F0xx_HAL_Driver/Src/stm32f0xx_ll_usb.c ****             {
 459:Drivers/STM32F0xx_HAL_Driver/Src/stm32f0xx_ll_usb.c ****               len = ep->xfer_len_db;
 460:Drivers/STM32F0xx_HAL_Driver/Src/stm32f0xx_ll_usb.c ****               ep->xfer_len_db = 0U;
 461:Drivers/STM32F0xx_HAL_Driver/Src/stm32f0xx_ll_usb.c ****             }
 462:Drivers/STM32F0xx_HAL_Driver/Src/stm32f0xx_ll_usb.c **** 
 463:Drivers/STM32F0xx_HAL_Driver/Src/stm32f0xx_ll_usb.c ****             /* Set the Double buffer counter for pmabuffer1 */
 464:Drivers/STM32F0xx_HAL_Driver/Src/stm32f0xx_ll_usb.c ****             PCD_SET_EP_DBUF1_CNT(USBx, ep->num, ep->is_in, len);
 465:Drivers/STM32F0xx_HAL_Driver/Src/stm32f0xx_ll_usb.c ****             pmabuffer = ep->pmaaddr1;
 466:Drivers/STM32F0xx_HAL_Driver/Src/stm32f0xx_ll_usb.c **** 
 467:Drivers/STM32F0xx_HAL_Driver/Src/stm32f0xx_ll_usb.c ****             /* Write the user buffer to USB PMA */
 468:Drivers/STM32F0xx_HAL_Driver/Src/stm32f0xx_ll_usb.c ****             USB_WritePMA(USBx, ep->xfer_buff, pmabuffer, (uint16_t)len);
 469:Drivers/STM32F0xx_HAL_Driver/Src/stm32f0xx_ll_usb.c ****           }
 470:Drivers/STM32F0xx_HAL_Driver/Src/stm32f0xx_ll_usb.c ****         }
 471:Drivers/STM32F0xx_HAL_Driver/Src/stm32f0xx_ll_usb.c ****         /* auto Switch to single buffer mode when transfer <Mps no need to manage in double buffer 
 472:Drivers/STM32F0xx_HAL_Driver/Src/stm32f0xx_ll_usb.c ****         else
ARM GAS  /var/folders/kr/g9ry2bg56g773797gdtkvvkw0000gn/T//cc7eQgtd.s 			page 40


 473:Drivers/STM32F0xx_HAL_Driver/Src/stm32f0xx_ll_usb.c ****         {
 474:Drivers/STM32F0xx_HAL_Driver/Src/stm32f0xx_ll_usb.c ****           len = ep->xfer_len_db;
 475:Drivers/STM32F0xx_HAL_Driver/Src/stm32f0xx_ll_usb.c **** 
 476:Drivers/STM32F0xx_HAL_Driver/Src/stm32f0xx_ll_usb.c ****           /* disable double buffer mode for Bulk endpoint */
 477:Drivers/STM32F0xx_HAL_Driver/Src/stm32f0xx_ll_usb.c ****           PCD_CLEAR_BULK_EP_DBUF(USBx, ep->num);
 478:Drivers/STM32F0xx_HAL_Driver/Src/stm32f0xx_ll_usb.c **** 
 479:Drivers/STM32F0xx_HAL_Driver/Src/stm32f0xx_ll_usb.c ****           /* Set Tx count with nbre of byte to be transmitted */
 480:Drivers/STM32F0xx_HAL_Driver/Src/stm32f0xx_ll_usb.c ****           PCD_SET_EP_TX_CNT(USBx, ep->num, len);
 481:Drivers/STM32F0xx_HAL_Driver/Src/stm32f0xx_ll_usb.c ****           pmabuffer = ep->pmaaddr0;
 482:Drivers/STM32F0xx_HAL_Driver/Src/stm32f0xx_ll_usb.c **** 
 483:Drivers/STM32F0xx_HAL_Driver/Src/stm32f0xx_ll_usb.c ****           /* Write the user buffer to USB PMA */
 484:Drivers/STM32F0xx_HAL_Driver/Src/stm32f0xx_ll_usb.c ****           USB_WritePMA(USBx, ep->xfer_buff, pmabuffer, (uint16_t)len);
 485:Drivers/STM32F0xx_HAL_Driver/Src/stm32f0xx_ll_usb.c ****         }
 486:Drivers/STM32F0xx_HAL_Driver/Src/stm32f0xx_ll_usb.c ****       }
 487:Drivers/STM32F0xx_HAL_Driver/Src/stm32f0xx_ll_usb.c ****       else /* manage isochronous double buffer IN mode */
 488:Drivers/STM32F0xx_HAL_Driver/Src/stm32f0xx_ll_usb.c ****       {
 489:Drivers/STM32F0xx_HAL_Driver/Src/stm32f0xx_ll_usb.c ****         /* each Time to write in PMA xfer_len_db will */
 490:Drivers/STM32F0xx_HAL_Driver/Src/stm32f0xx_ll_usb.c ****         ep->xfer_len_db -= len;
 491:Drivers/STM32F0xx_HAL_Driver/Src/stm32f0xx_ll_usb.c **** 
 492:Drivers/STM32F0xx_HAL_Driver/Src/stm32f0xx_ll_usb.c ****         /* Fill the data buffer */
 493:Drivers/STM32F0xx_HAL_Driver/Src/stm32f0xx_ll_usb.c ****         if ((PCD_GET_ENDPOINT(USBx, ep->num) & USB_EP_DTOG_TX) != 0U)
 494:Drivers/STM32F0xx_HAL_Driver/Src/stm32f0xx_ll_usb.c ****         {
 495:Drivers/STM32F0xx_HAL_Driver/Src/stm32f0xx_ll_usb.c ****           /* Set the Double buffer counter for pmabuffer1 */
 496:Drivers/STM32F0xx_HAL_Driver/Src/stm32f0xx_ll_usb.c ****           PCD_SET_EP_DBUF1_CNT(USBx, ep->num, ep->is_in, len);
 497:Drivers/STM32F0xx_HAL_Driver/Src/stm32f0xx_ll_usb.c ****           pmabuffer = ep->pmaaddr1;
 498:Drivers/STM32F0xx_HAL_Driver/Src/stm32f0xx_ll_usb.c **** 
 499:Drivers/STM32F0xx_HAL_Driver/Src/stm32f0xx_ll_usb.c ****           /* Write the user buffer to USB PMA */
 500:Drivers/STM32F0xx_HAL_Driver/Src/stm32f0xx_ll_usb.c ****           USB_WritePMA(USBx, ep->xfer_buff, pmabuffer, (uint16_t)len);
 501:Drivers/STM32F0xx_HAL_Driver/Src/stm32f0xx_ll_usb.c ****         }
 502:Drivers/STM32F0xx_HAL_Driver/Src/stm32f0xx_ll_usb.c ****         else
 503:Drivers/STM32F0xx_HAL_Driver/Src/stm32f0xx_ll_usb.c ****         {
 504:Drivers/STM32F0xx_HAL_Driver/Src/stm32f0xx_ll_usb.c ****           /* Set the Double buffer counter for pmabuffer0 */
 505:Drivers/STM32F0xx_HAL_Driver/Src/stm32f0xx_ll_usb.c ****           PCD_SET_EP_DBUF0_CNT(USBx, ep->num, ep->is_in, len);
 506:Drivers/STM32F0xx_HAL_Driver/Src/stm32f0xx_ll_usb.c ****           pmabuffer = ep->pmaaddr0;
 507:Drivers/STM32F0xx_HAL_Driver/Src/stm32f0xx_ll_usb.c **** 
 508:Drivers/STM32F0xx_HAL_Driver/Src/stm32f0xx_ll_usb.c ****           /* Write the user buffer to USB PMA */
 509:Drivers/STM32F0xx_HAL_Driver/Src/stm32f0xx_ll_usb.c ****           USB_WritePMA(USBx, ep->xfer_buff, pmabuffer, (uint16_t)len);
 510:Drivers/STM32F0xx_HAL_Driver/Src/stm32f0xx_ll_usb.c ****         }
 511:Drivers/STM32F0xx_HAL_Driver/Src/stm32f0xx_ll_usb.c ****       }
 512:Drivers/STM32F0xx_HAL_Driver/Src/stm32f0xx_ll_usb.c ****     }
 513:Drivers/STM32F0xx_HAL_Driver/Src/stm32f0xx_ll_usb.c **** #endif /* (USE_USB_DOUBLE_BUFFER == 1U) */
 514:Drivers/STM32F0xx_HAL_Driver/Src/stm32f0xx_ll_usb.c **** 
 515:Drivers/STM32F0xx_HAL_Driver/Src/stm32f0xx_ll_usb.c ****     PCD_SET_EP_TX_STATUS(USBx, ep->num, USB_EP_TX_VALID);
 516:Drivers/STM32F0xx_HAL_Driver/Src/stm32f0xx_ll_usb.c ****   }
 517:Drivers/STM32F0xx_HAL_Driver/Src/stm32f0xx_ll_usb.c ****   else /* OUT endpoint */
 518:Drivers/STM32F0xx_HAL_Driver/Src/stm32f0xx_ll_usb.c ****   {
 519:Drivers/STM32F0xx_HAL_Driver/Src/stm32f0xx_ll_usb.c ****     if (ep->doublebuffer == 0U)
 520:Drivers/STM32F0xx_HAL_Driver/Src/stm32f0xx_ll_usb.c ****     {
 521:Drivers/STM32F0xx_HAL_Driver/Src/stm32f0xx_ll_usb.c ****       /* Multi packet transfer */
 522:Drivers/STM32F0xx_HAL_Driver/Src/stm32f0xx_ll_usb.c ****       if (ep->xfer_len > ep->maxpacket)
 523:Drivers/STM32F0xx_HAL_Driver/Src/stm32f0xx_ll_usb.c ****       {
 524:Drivers/STM32F0xx_HAL_Driver/Src/stm32f0xx_ll_usb.c ****         len = ep->maxpacket;
 525:Drivers/STM32F0xx_HAL_Driver/Src/stm32f0xx_ll_usb.c ****         ep->xfer_len -= len;
 526:Drivers/STM32F0xx_HAL_Driver/Src/stm32f0xx_ll_usb.c ****       }
 527:Drivers/STM32F0xx_HAL_Driver/Src/stm32f0xx_ll_usb.c ****       else
 528:Drivers/STM32F0xx_HAL_Driver/Src/stm32f0xx_ll_usb.c ****       {
 529:Drivers/STM32F0xx_HAL_Driver/Src/stm32f0xx_ll_usb.c ****         len = ep->xfer_len;
ARM GAS  /var/folders/kr/g9ry2bg56g773797gdtkvvkw0000gn/T//cc7eQgtd.s 			page 41


 530:Drivers/STM32F0xx_HAL_Driver/Src/stm32f0xx_ll_usb.c ****         ep->xfer_len = 0U;
 531:Drivers/STM32F0xx_HAL_Driver/Src/stm32f0xx_ll_usb.c ****       }
 532:Drivers/STM32F0xx_HAL_Driver/Src/stm32f0xx_ll_usb.c ****       /* configure and validate Rx endpoint */
 533:Drivers/STM32F0xx_HAL_Driver/Src/stm32f0xx_ll_usb.c ****       PCD_SET_EP_RX_CNT(USBx, ep->num, len);
 534:Drivers/STM32F0xx_HAL_Driver/Src/stm32f0xx_ll_usb.c ****     }
 535:Drivers/STM32F0xx_HAL_Driver/Src/stm32f0xx_ll_usb.c **** #if (USE_USB_DOUBLE_BUFFER == 1U)
 536:Drivers/STM32F0xx_HAL_Driver/Src/stm32f0xx_ll_usb.c ****     else
 537:Drivers/STM32F0xx_HAL_Driver/Src/stm32f0xx_ll_usb.c ****     {
 538:Drivers/STM32F0xx_HAL_Driver/Src/stm32f0xx_ll_usb.c ****       /* First Transfer Coming From HAL_PCD_EP_Receive & From ISR */
 539:Drivers/STM32F0xx_HAL_Driver/Src/stm32f0xx_ll_usb.c ****       /* Set the Double buffer counter */
 540:Drivers/STM32F0xx_HAL_Driver/Src/stm32f0xx_ll_usb.c ****       if (ep->type == EP_TYPE_BULK)
 541:Drivers/STM32F0xx_HAL_Driver/Src/stm32f0xx_ll_usb.c ****       {
 542:Drivers/STM32F0xx_HAL_Driver/Src/stm32f0xx_ll_usb.c ****         PCD_SET_EP_DBUF_CNT(USBx, ep->num, ep->is_in, ep->maxpacket);
 543:Drivers/STM32F0xx_HAL_Driver/Src/stm32f0xx_ll_usb.c **** 
 544:Drivers/STM32F0xx_HAL_Driver/Src/stm32f0xx_ll_usb.c ****         /* Coming from ISR */
 545:Drivers/STM32F0xx_HAL_Driver/Src/stm32f0xx_ll_usb.c ****         if (ep->xfer_count != 0U)
 546:Drivers/STM32F0xx_HAL_Driver/Src/stm32f0xx_ll_usb.c ****         {
 547:Drivers/STM32F0xx_HAL_Driver/Src/stm32f0xx_ll_usb.c ****           /* update last value to check if there is blocking state */
 548:Drivers/STM32F0xx_HAL_Driver/Src/stm32f0xx_ll_usb.c ****           wEPVal = PCD_GET_ENDPOINT(USBx, ep->num);
 549:Drivers/STM32F0xx_HAL_Driver/Src/stm32f0xx_ll_usb.c **** 
 550:Drivers/STM32F0xx_HAL_Driver/Src/stm32f0xx_ll_usb.c ****           /*Blocking State */
 551:Drivers/STM32F0xx_HAL_Driver/Src/stm32f0xx_ll_usb.c ****           if ((((wEPVal & USB_EP_DTOG_RX) != 0U) && ((wEPVal & USB_EP_DTOG_TX) != 0U)) ||
 552:Drivers/STM32F0xx_HAL_Driver/Src/stm32f0xx_ll_usb.c ****               (((wEPVal & USB_EP_DTOG_RX) == 0U) && ((wEPVal & USB_EP_DTOG_TX) == 0U)))
 553:Drivers/STM32F0xx_HAL_Driver/Src/stm32f0xx_ll_usb.c ****           {
 554:Drivers/STM32F0xx_HAL_Driver/Src/stm32f0xx_ll_usb.c ****             PCD_FREE_USER_BUFFER(USBx, ep->num, 0U);
 555:Drivers/STM32F0xx_HAL_Driver/Src/stm32f0xx_ll_usb.c ****           }
 556:Drivers/STM32F0xx_HAL_Driver/Src/stm32f0xx_ll_usb.c ****         }
 557:Drivers/STM32F0xx_HAL_Driver/Src/stm32f0xx_ll_usb.c ****       }
 558:Drivers/STM32F0xx_HAL_Driver/Src/stm32f0xx_ll_usb.c ****       /* iso out double */
 559:Drivers/STM32F0xx_HAL_Driver/Src/stm32f0xx_ll_usb.c ****       else if (ep->type == EP_TYPE_ISOC)
 560:Drivers/STM32F0xx_HAL_Driver/Src/stm32f0xx_ll_usb.c ****       {
 561:Drivers/STM32F0xx_HAL_Driver/Src/stm32f0xx_ll_usb.c ****         /* Multi packet transfer */
 562:Drivers/STM32F0xx_HAL_Driver/Src/stm32f0xx_ll_usb.c ****         if (ep->xfer_len > ep->maxpacket)
 563:Drivers/STM32F0xx_HAL_Driver/Src/stm32f0xx_ll_usb.c ****         {
 564:Drivers/STM32F0xx_HAL_Driver/Src/stm32f0xx_ll_usb.c ****           len = ep->maxpacket;
 565:Drivers/STM32F0xx_HAL_Driver/Src/stm32f0xx_ll_usb.c ****           ep->xfer_len -= len;
 566:Drivers/STM32F0xx_HAL_Driver/Src/stm32f0xx_ll_usb.c ****         }
 567:Drivers/STM32F0xx_HAL_Driver/Src/stm32f0xx_ll_usb.c ****         else
 568:Drivers/STM32F0xx_HAL_Driver/Src/stm32f0xx_ll_usb.c ****         {
 569:Drivers/STM32F0xx_HAL_Driver/Src/stm32f0xx_ll_usb.c ****           len = ep->xfer_len;
 570:Drivers/STM32F0xx_HAL_Driver/Src/stm32f0xx_ll_usb.c ****           ep->xfer_len = 0U;
 571:Drivers/STM32F0xx_HAL_Driver/Src/stm32f0xx_ll_usb.c ****         }
 572:Drivers/STM32F0xx_HAL_Driver/Src/stm32f0xx_ll_usb.c ****         PCD_SET_EP_DBUF_CNT(USBx, ep->num, ep->is_in, len);
 573:Drivers/STM32F0xx_HAL_Driver/Src/stm32f0xx_ll_usb.c ****       }
 574:Drivers/STM32F0xx_HAL_Driver/Src/stm32f0xx_ll_usb.c ****       else
 575:Drivers/STM32F0xx_HAL_Driver/Src/stm32f0xx_ll_usb.c ****       {
 576:Drivers/STM32F0xx_HAL_Driver/Src/stm32f0xx_ll_usb.c ****         return HAL_ERROR;
 577:Drivers/STM32F0xx_HAL_Driver/Src/stm32f0xx_ll_usb.c ****       }
 578:Drivers/STM32F0xx_HAL_Driver/Src/stm32f0xx_ll_usb.c ****     }
 579:Drivers/STM32F0xx_HAL_Driver/Src/stm32f0xx_ll_usb.c **** #endif /* (USE_USB_DOUBLE_BUFFER == 1U) */
 580:Drivers/STM32F0xx_HAL_Driver/Src/stm32f0xx_ll_usb.c **** 
 581:Drivers/STM32F0xx_HAL_Driver/Src/stm32f0xx_ll_usb.c ****     PCD_SET_EP_RX_STATUS(USBx, ep->num, USB_EP_RX_VALID);
 582:Drivers/STM32F0xx_HAL_Driver/Src/stm32f0xx_ll_usb.c ****   }
 583:Drivers/STM32F0xx_HAL_Driver/Src/stm32f0xx_ll_usb.c **** 
 584:Drivers/STM32F0xx_HAL_Driver/Src/stm32f0xx_ll_usb.c ****   return HAL_OK;
 585:Drivers/STM32F0xx_HAL_Driver/Src/stm32f0xx_ll_usb.c **** }
 586:Drivers/STM32F0xx_HAL_Driver/Src/stm32f0xx_ll_usb.c **** 
ARM GAS  /var/folders/kr/g9ry2bg56g773797gdtkvvkw0000gn/T//cc7eQgtd.s 			page 42


 587:Drivers/STM32F0xx_HAL_Driver/Src/stm32f0xx_ll_usb.c **** 
 588:Drivers/STM32F0xx_HAL_Driver/Src/stm32f0xx_ll_usb.c **** /**
 589:Drivers/STM32F0xx_HAL_Driver/Src/stm32f0xx_ll_usb.c ****   * @brief  USB_EPSetStall set a stall condition over an EP
 590:Drivers/STM32F0xx_HAL_Driver/Src/stm32f0xx_ll_usb.c ****   * @param  USBx Selected device
 591:Drivers/STM32F0xx_HAL_Driver/Src/stm32f0xx_ll_usb.c ****   * @param  ep pointer to endpoint structure
 592:Drivers/STM32F0xx_HAL_Driver/Src/stm32f0xx_ll_usb.c ****   * @retval HAL status
 593:Drivers/STM32F0xx_HAL_Driver/Src/stm32f0xx_ll_usb.c ****   */
 594:Drivers/STM32F0xx_HAL_Driver/Src/stm32f0xx_ll_usb.c **** HAL_StatusTypeDef USB_EPSetStall(USB_TypeDef *USBx, USB_EPTypeDef *ep)
 595:Drivers/STM32F0xx_HAL_Driver/Src/stm32f0xx_ll_usb.c **** {
 1579              		.loc 1 595 1 view -0
 1580              		.cfi_startproc
 1581              		@ args = 0, pretend = 0, frame = 0
 1582              		@ frame_needed = 0, uses_anonymous_args = 0
 1583              		@ link register save eliminated.
 596:Drivers/STM32F0xx_HAL_Driver/Src/stm32f0xx_ll_usb.c ****   if (ep->is_in != 0U)
 1584              		.loc 1 596 3 view .LVU487
 1585              		.loc 1 596 9 is_stmt 0 view .LVU488
 1586 0000 4B78     		ldrb	r3, [r1, #1]
 1587              		.loc 1 596 6 view .LVU489
 1588 0002 002B     		cmp	r3, #0
 1589 0004 0ED0     		beq	.L71
 597:Drivers/STM32F0xx_HAL_Driver/Src/stm32f0xx_ll_usb.c ****   {
 598:Drivers/STM32F0xx_HAL_Driver/Src/stm32f0xx_ll_usb.c ****     PCD_SET_EP_TX_STATUS(USBx, ep->num, USB_EP_TX_STALL);
 1590              		.loc 1 598 5 is_stmt 1 view .LVU490
 1591              	.LBB54:
 1592              		.loc 1 598 5 view .LVU491
 1593              		.loc 1 598 5 view .LVU492
 1594 0006 0B78     		ldrb	r3, [r1]
 1595 0008 9B00     		lsls	r3, r3, #2
 1596 000a C018     		adds	r0, r0, r3
 1597              	.LVL171:
 1598              		.loc 1 598 5 is_stmt 0 view .LVU493
 1599 000c 0388     		ldrh	r3, [r0]
 1600 000e 0C4A     		ldr	r2, .L73
 1601 0010 1340     		ands	r3, r2
 1602              	.LVL172:
 1603              		.loc 1 598 5 is_stmt 1 view .LVU494
 1604              		.loc 1 598 5 discriminator 1 view .LVU495
 1605 0012 1022     		movs	r2, #16
 1606 0014 5340     		eors	r3, r2
 1607              	.LVL173:
 1608              		.loc 1 598 5 is_stmt 0 discriminator 1 view .LVU496
 1609 0016 9BB2     		uxth	r3, r3
 1610              	.LVL174:
 1611              		.loc 1 598 5 is_stmt 1 discriminator 3 view .LVU497
 1612              		.loc 1 598 5 discriminator 6 view .LVU498
 1613 0018 0A4A     		ldr	r2, .L73+4
 1614 001a 1343     		orrs	r3, r2
 1615              	.LVL175:
 1616              		.loc 1 598 5 is_stmt 0 discriminator 6 view .LVU499
 1617 001c 9BB2     		uxth	r3, r3
 1618 001e 0380     		strh	r3, [r0]
 1619              	.LBE54:
 1620              		.loc 1 598 5 is_stmt 1 discriminator 6 view .LVU500
 1621              	.LVL176:
 1622              	.L72:
 599:Drivers/STM32F0xx_HAL_Driver/Src/stm32f0xx_ll_usb.c ****   }
ARM GAS  /var/folders/kr/g9ry2bg56g773797gdtkvvkw0000gn/T//cc7eQgtd.s 			page 43


 600:Drivers/STM32F0xx_HAL_Driver/Src/stm32f0xx_ll_usb.c ****   else
 601:Drivers/STM32F0xx_HAL_Driver/Src/stm32f0xx_ll_usb.c ****   {
 602:Drivers/STM32F0xx_HAL_Driver/Src/stm32f0xx_ll_usb.c ****     PCD_SET_EP_RX_STATUS(USBx, ep->num, USB_EP_RX_STALL);
 1623              		.loc 1 602 5 discriminator 7 view .LVU501
 603:Drivers/STM32F0xx_HAL_Driver/Src/stm32f0xx_ll_usb.c ****   }
 604:Drivers/STM32F0xx_HAL_Driver/Src/stm32f0xx_ll_usb.c **** 
 605:Drivers/STM32F0xx_HAL_Driver/Src/stm32f0xx_ll_usb.c ****   return HAL_OK;
 1624              		.loc 1 605 3 view .LVU502
 606:Drivers/STM32F0xx_HAL_Driver/Src/stm32f0xx_ll_usb.c **** }
 1625              		.loc 1 606 1 is_stmt 0 view .LVU503
 1626 0020 0020     		movs	r0, #0
 1627              		@ sp needed
 1628 0022 7047     		bx	lr
 1629              	.LVL177:
 1630              	.L71:
 602:Drivers/STM32F0xx_HAL_Driver/Src/stm32f0xx_ll_usb.c ****   }
 1631              		.loc 1 602 5 is_stmt 1 view .LVU504
 1632              	.LBB55:
 602:Drivers/STM32F0xx_HAL_Driver/Src/stm32f0xx_ll_usb.c ****   }
 1633              		.loc 1 602 5 view .LVU505
 602:Drivers/STM32F0xx_HAL_Driver/Src/stm32f0xx_ll_usb.c ****   }
 1634              		.loc 1 602 5 view .LVU506
 1635 0024 0B78     		ldrb	r3, [r1]
 1636 0026 9B00     		lsls	r3, r3, #2
 1637 0028 C018     		adds	r0, r0, r3
 1638              	.LVL178:
 602:Drivers/STM32F0xx_HAL_Driver/Src/stm32f0xx_ll_usb.c ****   }
 1639              		.loc 1 602 5 is_stmt 0 view .LVU507
 1640 002a 0388     		ldrh	r3, [r0]
 1641 002c 064A     		ldr	r2, .L73+8
 1642 002e 1340     		ands	r3, r2
 1643              	.LVL179:
 602:Drivers/STM32F0xx_HAL_Driver/Src/stm32f0xx_ll_usb.c ****   }
 1644              		.loc 1 602 5 is_stmt 1 view .LVU508
 602:Drivers/STM32F0xx_HAL_Driver/Src/stm32f0xx_ll_usb.c ****   }
 1645              		.loc 1 602 5 discriminator 1 view .LVU509
 1646 0030 8022     		movs	r2, #128
 1647 0032 5201     		lsls	r2, r2, #5
 1648 0034 5A40     		eors	r2, r3
 1649              	.LVL180:
 602:Drivers/STM32F0xx_HAL_Driver/Src/stm32f0xx_ll_usb.c ****   }
 1650              		.loc 1 602 5 discriminator 3 view .LVU510
 602:Drivers/STM32F0xx_HAL_Driver/Src/stm32f0xx_ll_usb.c ****   }
 1651              		.loc 1 602 5 discriminator 6 view .LVU511
 1652 0036 034B     		ldr	r3, .L73+4
 1653 0038 1343     		orrs	r3, r2
 1654 003a 9BB2     		uxth	r3, r3
 1655 003c 0380     		strh	r3, [r0]
 1656 003e EFE7     		b	.L72
 1657              	.L74:
 1658              		.align	2
 1659              	.L73:
 1660 0040 BF8FFFFF 		.word	-28737
 1661 0044 8080FFFF 		.word	-32640
 1662 0048 8FBFFFFF 		.word	-16497
 1663              	.LBE55:
 1664              		.cfi_endproc
ARM GAS  /var/folders/kr/g9ry2bg56g773797gdtkvvkw0000gn/T//cc7eQgtd.s 			page 44


 1665              	.LFE48:
 1667              		.section	.text.USB_EPClearStall,"ax",%progbits
 1668              		.align	1
 1669              		.global	USB_EPClearStall
 1670              		.syntax unified
 1671              		.code	16
 1672              		.thumb_func
 1674              	USB_EPClearStall:
 1675              	.LVL181:
 1676              	.LFB49:
 607:Drivers/STM32F0xx_HAL_Driver/Src/stm32f0xx_ll_usb.c **** 
 608:Drivers/STM32F0xx_HAL_Driver/Src/stm32f0xx_ll_usb.c **** /**
 609:Drivers/STM32F0xx_HAL_Driver/Src/stm32f0xx_ll_usb.c ****   * @brief  USB_EPClearStall Clear a stall condition over an EP
 610:Drivers/STM32F0xx_HAL_Driver/Src/stm32f0xx_ll_usb.c ****   * @param  USBx Selected device
 611:Drivers/STM32F0xx_HAL_Driver/Src/stm32f0xx_ll_usb.c ****   * @param  ep pointer to endpoint structure
 612:Drivers/STM32F0xx_HAL_Driver/Src/stm32f0xx_ll_usb.c ****   * @retval HAL status
 613:Drivers/STM32F0xx_HAL_Driver/Src/stm32f0xx_ll_usb.c ****   */
 614:Drivers/STM32F0xx_HAL_Driver/Src/stm32f0xx_ll_usb.c **** HAL_StatusTypeDef USB_EPClearStall(USB_TypeDef *USBx, USB_EPTypeDef *ep)
 615:Drivers/STM32F0xx_HAL_Driver/Src/stm32f0xx_ll_usb.c **** {
 1677              		.loc 1 615 1 view -0
 1678              		.cfi_startproc
 1679              		@ args = 0, pretend = 0, frame = 0
 1680              		@ frame_needed = 0, uses_anonymous_args = 0
 1681              		.loc 1 615 1 is_stmt 0 view .LVU513
 1682 0000 10B5     		push	{r4, lr}
 1683              	.LCFI4:
 1684              		.cfi_def_cfa_offset 8
 1685              		.cfi_offset 4, -8
 1686              		.cfi_offset 14, -4
 616:Drivers/STM32F0xx_HAL_Driver/Src/stm32f0xx_ll_usb.c ****   if (ep->doublebuffer == 0U)
 1687              		.loc 1 616 3 is_stmt 1 view .LVU514
 1688              		.loc 1 616 9 is_stmt 0 view .LVU515
 1689 0002 0B7B     		ldrb	r3, [r1, #12]
 1690              		.loc 1 616 6 view .LVU516
 1691 0004 002B     		cmp	r3, #0
 1692 0006 3AD1     		bne	.L76
 617:Drivers/STM32F0xx_HAL_Driver/Src/stm32f0xx_ll_usb.c ****   {
 618:Drivers/STM32F0xx_HAL_Driver/Src/stm32f0xx_ll_usb.c ****     if (ep->is_in != 0U)
 1693              		.loc 1 618 5 is_stmt 1 view .LVU517
 1694              		.loc 1 618 11 is_stmt 0 view .LVU518
 1695 0008 4B78     		ldrb	r3, [r1, #1]
 1696              		.loc 1 618 8 view .LVU519
 1697 000a 002B     		cmp	r3, #0
 1698 000c 1DD0     		beq	.L77
 619:Drivers/STM32F0xx_HAL_Driver/Src/stm32f0xx_ll_usb.c ****     {
 620:Drivers/STM32F0xx_HAL_Driver/Src/stm32f0xx_ll_usb.c ****       PCD_CLEAR_TX_DTOG(USBx, ep->num);
 1699              		.loc 1 620 7 is_stmt 1 view .LVU520
 1700              	.LBB56:
 1701              		.loc 1 620 7 view .LVU521
 1702              		.loc 1 620 7 view .LVU522
 1703 000e 0B78     		ldrb	r3, [r1]
 1704 0010 9B00     		lsls	r3, r3, #2
 1705 0012 C318     		adds	r3, r0, r3
 1706 0014 1A88     		ldrh	r2, [r3]
 1707              	.LVL182:
 1708              		.loc 1 620 7 view .LVU523
 1709 0016 5206     		lsls	r2, r2, #25
ARM GAS  /var/folders/kr/g9ry2bg56g773797gdtkvvkw0000gn/T//cc7eQgtd.s 			page 45


 1710 0018 06D5     		bpl	.L78
 1711              	.LVL183:
 1712              		.loc 1 620 7 discriminator 1 view .LVU524
 1713              	.LBB57:
 1714              		.loc 1 620 7 discriminator 1 view .LVU525
 1715              		.loc 1 620 7 discriminator 1 view .LVU526
 1716 001a 1C88     		ldrh	r4, [r3]
 1717 001c 194A     		ldr	r2, .L82
 1718 001e 1440     		ands	r4, r2
 1719              	.LVL184:
 1720              		.loc 1 620 7 discriminator 1 view .LVU527
 1721 0020 194A     		ldr	r2, .L82+4
 1722 0022 2243     		orrs	r2, r4
 1723 0024 92B2     		uxth	r2, r2
 1724 0026 1A80     		strh	r2, [r3]
 1725              	.LVL185:
 1726              	.L78:
 1727              		.loc 1 620 7 is_stmt 0 discriminator 1 view .LVU528
 1728              	.LBE57:
 1729              		.loc 1 620 7 is_stmt 1 discriminator 3 view .LVU529
 1730              	.LBE56:
 1731              		.loc 1 620 7 discriminator 3 view .LVU530
 621:Drivers/STM32F0xx_HAL_Driver/Src/stm32f0xx_ll_usb.c **** 
 622:Drivers/STM32F0xx_HAL_Driver/Src/stm32f0xx_ll_usb.c ****       if (ep->type != EP_TYPE_ISOC)
 1732              		.loc 1 622 7 view .LVU531
 1733              		.loc 1 622 13 is_stmt 0 view .LVU532
 1734 0028 CB78     		ldrb	r3, [r1, #3]
 1735              		.loc 1 622 10 view .LVU533
 1736 002a 012B     		cmp	r3, #1
 1737 002c 27D0     		beq	.L76
 623:Drivers/STM32F0xx_HAL_Driver/Src/stm32f0xx_ll_usb.c ****       {
 624:Drivers/STM32F0xx_HAL_Driver/Src/stm32f0xx_ll_usb.c ****         /* Configure NAK status for the Endpoint */
 625:Drivers/STM32F0xx_HAL_Driver/Src/stm32f0xx_ll_usb.c ****         PCD_SET_EP_TX_STATUS(USBx, ep->num, USB_EP_TX_NAK);
 1738              		.loc 1 625 9 is_stmt 1 view .LVU534
 1739              	.LBB58:
 1740              		.loc 1 625 9 view .LVU535
 1741              		.loc 1 625 9 view .LVU536
 1742 002e 0A78     		ldrb	r2, [r1]
 1743 0030 9200     		lsls	r2, r2, #2
 1744 0032 8218     		adds	r2, r0, r2
 1745 0034 1388     		ldrh	r3, [r2]
 1746 0036 1549     		ldr	r1, .L82+8
 1747              	.LVL186:
 1748              		.loc 1 625 9 is_stmt 0 view .LVU537
 1749 0038 0B40     		ands	r3, r1
 1750              	.LVL187:
 1751              		.loc 1 625 9 is_stmt 1 view .LVU538
 1752              		.loc 1 625 9 discriminator 3 view .LVU539
 1753              		.loc 1 625 9 discriminator 4 view .LVU540
 1754 003a 2021     		movs	r1, #32
 1755 003c 4B40     		eors	r3, r1
 1756              	.LVL188:
 1757              		.loc 1 625 9 is_stmt 0 discriminator 4 view .LVU541
 1758 003e 9BB2     		uxth	r3, r3
 1759              	.LVL189:
 1760              		.loc 1 625 9 is_stmt 1 discriminator 6 view .LVU542
 1761 0040 1349     		ldr	r1, .L82+12
ARM GAS  /var/folders/kr/g9ry2bg56g773797gdtkvvkw0000gn/T//cc7eQgtd.s 			page 46


 1762 0042 0B43     		orrs	r3, r1
 1763              	.LVL190:
 1764              		.loc 1 625 9 is_stmt 0 discriminator 6 view .LVU543
 1765 0044 9BB2     		uxth	r3, r3
 1766 0046 1380     		strh	r3, [r2]
 1767 0048 19E0     		b	.L76
 1768              	.LVL191:
 1769              	.L77:
 1770              		.loc 1 625 9 discriminator 6 view .LVU544
 1771              	.LBE58:
 626:Drivers/STM32F0xx_HAL_Driver/Src/stm32f0xx_ll_usb.c ****       }
 627:Drivers/STM32F0xx_HAL_Driver/Src/stm32f0xx_ll_usb.c ****     }
 628:Drivers/STM32F0xx_HAL_Driver/Src/stm32f0xx_ll_usb.c ****     else
 629:Drivers/STM32F0xx_HAL_Driver/Src/stm32f0xx_ll_usb.c ****     {
 630:Drivers/STM32F0xx_HAL_Driver/Src/stm32f0xx_ll_usb.c ****       PCD_CLEAR_RX_DTOG(USBx, ep->num);
 1772              		.loc 1 630 7 is_stmt 1 view .LVU545
 1773              	.LBB59:
 1774              		.loc 1 630 7 view .LVU546
 1775              		.loc 1 630 7 view .LVU547
 1776 004a 0B78     		ldrb	r3, [r1]
 1777 004c 9B00     		lsls	r3, r3, #2
 1778 004e C318     		adds	r3, r0, r3
 1779 0050 1A88     		ldrh	r2, [r3]
 1780              	.LVL192:
 1781              		.loc 1 630 7 view .LVU548
 1782 0052 5204     		lsls	r2, r2, #17
 1783 0054 06D5     		bpl	.L79
 1784              	.LVL193:
 1785              		.loc 1 630 7 discriminator 1 view .LVU549
 1786              	.LBB60:
 1787              		.loc 1 630 7 discriminator 1 view .LVU550
 1788              		.loc 1 630 7 discriminator 1 view .LVU551
 1789 0056 1C88     		ldrh	r4, [r3]
 1790 0058 0A4A     		ldr	r2, .L82
 1791 005a 1440     		ands	r4, r2
 1792              	.LVL194:
 1793              		.loc 1 630 7 discriminator 1 view .LVU552
 1794 005c 0D4A     		ldr	r2, .L82+16
 1795 005e 2243     		orrs	r2, r4
 1796 0060 92B2     		uxth	r2, r2
 1797 0062 1A80     		strh	r2, [r3]
 1798              	.LVL195:
 1799              	.L79:
 1800              		.loc 1 630 7 is_stmt 0 discriminator 1 view .LVU553
 1801              	.LBE60:
 1802              		.loc 1 630 7 is_stmt 1 discriminator 3 view .LVU554
 1803              	.LBE59:
 1804              		.loc 1 630 7 discriminator 3 view .LVU555
 631:Drivers/STM32F0xx_HAL_Driver/Src/stm32f0xx_ll_usb.c **** 
 632:Drivers/STM32F0xx_HAL_Driver/Src/stm32f0xx_ll_usb.c ****       /* Configure VALID status for the Endpoint */
 633:Drivers/STM32F0xx_HAL_Driver/Src/stm32f0xx_ll_usb.c ****       PCD_SET_EP_RX_STATUS(USBx, ep->num, USB_EP_RX_VALID);
 1805              		.loc 1 633 7 view .LVU556
 1806              	.LBB61:
 1807              		.loc 1 633 7 view .LVU557
 1808              		.loc 1 633 7 view .LVU558
 1809 0064 0B78     		ldrb	r3, [r1]
 1810 0066 9B00     		lsls	r3, r3, #2
ARM GAS  /var/folders/kr/g9ry2bg56g773797gdtkvvkw0000gn/T//cc7eQgtd.s 			page 47


 1811 0068 C018     		adds	r0, r0, r3
 1812              	.LVL196:
 1813              		.loc 1 633 7 is_stmt 0 view .LVU559
 1814 006a 0388     		ldrh	r3, [r0]
 1815 006c 0A4A     		ldr	r2, .L82+20
 1816 006e 1340     		ands	r3, r2
 1817              	.LVL197:
 1818              		.loc 1 633 7 is_stmt 1 view .LVU560
 1819              		.loc 1 633 7 discriminator 1 view .LVU561
 1820              		.loc 1 633 7 discriminator 3 view .LVU562
 1821              		.loc 1 633 7 discriminator 4 view .LVU563
 1822 0070 C022     		movs	r2, #192
 1823 0072 9201     		lsls	r2, r2, #6
 1824 0074 5A40     		eors	r2, r3
 1825              	.LVL198:
 1826              		.loc 1 633 7 discriminator 6 view .LVU564
 1827 0076 064B     		ldr	r3, .L82+12
 1828 0078 1343     		orrs	r3, r2
 1829 007a 9BB2     		uxth	r3, r3
 1830 007c 0380     		strh	r3, [r0]
 1831              	.LVL199:
 1832              	.L76:
 1833              		.loc 1 633 7 is_stmt 0 discriminator 6 view .LVU565
 1834              	.LBE61:
 1835              		.loc 1 633 7 is_stmt 1 discriminator 7 view .LVU566
 634:Drivers/STM32F0xx_HAL_Driver/Src/stm32f0xx_ll_usb.c ****     }
 635:Drivers/STM32F0xx_HAL_Driver/Src/stm32f0xx_ll_usb.c ****   }
 636:Drivers/STM32F0xx_HAL_Driver/Src/stm32f0xx_ll_usb.c **** 
 637:Drivers/STM32F0xx_HAL_Driver/Src/stm32f0xx_ll_usb.c ****   return HAL_OK;
 1836              		.loc 1 637 3 view .LVU567
 638:Drivers/STM32F0xx_HAL_Driver/Src/stm32f0xx_ll_usb.c **** }
 1837              		.loc 1 638 1 is_stmt 0 view .LVU568
 1838 007e 0020     		movs	r0, #0
 1839              		@ sp needed
 1840 0080 10BD     		pop	{r4, pc}
 1841              	.L83:
 1842 0082 C046     		.align	2
 1843              	.L82:
 1844 0084 8F8FFFFF 		.word	-28785
 1845 0088 C080FFFF 		.word	-32576
 1846 008c BF8FFFFF 		.word	-28737
 1847 0090 8080FFFF 		.word	-32640
 1848 0094 80C0FFFF 		.word	-16256
 1849 0098 8FBFFFFF 		.word	-16497
 1850              		.cfi_endproc
 1851              	.LFE49:
 1853              		.section	.text.USB_EPStopXfer,"ax",%progbits
 1854              		.align	1
 1855              		.global	USB_EPStopXfer
 1856              		.syntax unified
 1857              		.code	16
 1858              		.thumb_func
 1860              	USB_EPStopXfer:
 1861              	.LVL200:
 1862              	.LFB50:
 639:Drivers/STM32F0xx_HAL_Driver/Src/stm32f0xx_ll_usb.c **** 
 640:Drivers/STM32F0xx_HAL_Driver/Src/stm32f0xx_ll_usb.c **** /**
ARM GAS  /var/folders/kr/g9ry2bg56g773797gdtkvvkw0000gn/T//cc7eQgtd.s 			page 48


 641:Drivers/STM32F0xx_HAL_Driver/Src/stm32f0xx_ll_usb.c ****    * @brief  USB_EPStoptXfer  Stop transfer on an EP
 642:Drivers/STM32F0xx_HAL_Driver/Src/stm32f0xx_ll_usb.c ****    * @param  USBx  usb device instance
 643:Drivers/STM32F0xx_HAL_Driver/Src/stm32f0xx_ll_usb.c ****    * @param  ep pointer to endpoint structure
 644:Drivers/STM32F0xx_HAL_Driver/Src/stm32f0xx_ll_usb.c ****    * @retval HAL status
 645:Drivers/STM32F0xx_HAL_Driver/Src/stm32f0xx_ll_usb.c ****    */
 646:Drivers/STM32F0xx_HAL_Driver/Src/stm32f0xx_ll_usb.c **** HAL_StatusTypeDef USB_EPStopXfer(USB_TypeDef *USBx, USB_EPTypeDef *ep)
 647:Drivers/STM32F0xx_HAL_Driver/Src/stm32f0xx_ll_usb.c **** {
 1863              		.loc 1 647 1 is_stmt 1 view -0
 1864              		.cfi_startproc
 1865              		@ args = 0, pretend = 0, frame = 0
 1866              		@ frame_needed = 0, uses_anonymous_args = 0
 1867              		@ link register save eliminated.
 648:Drivers/STM32F0xx_HAL_Driver/Src/stm32f0xx_ll_usb.c ****   /* IN endpoint */
 649:Drivers/STM32F0xx_HAL_Driver/Src/stm32f0xx_ll_usb.c ****   if (ep->is_in == 1U)
 1868              		.loc 1 649 3 view .LVU570
 1869              		.loc 1 649 9 is_stmt 0 view .LVU571
 1870 0000 4B78     		ldrb	r3, [r1, #1]
 1871              		.loc 1 649 6 view .LVU572
 1872 0002 012B     		cmp	r3, #1
 1873 0004 14D0     		beq	.L89
 650:Drivers/STM32F0xx_HAL_Driver/Src/stm32f0xx_ll_usb.c ****   {
 651:Drivers/STM32F0xx_HAL_Driver/Src/stm32f0xx_ll_usb.c ****     if (ep->doublebuffer == 0U)
 652:Drivers/STM32F0xx_HAL_Driver/Src/stm32f0xx_ll_usb.c ****     {
 653:Drivers/STM32F0xx_HAL_Driver/Src/stm32f0xx_ll_usb.c ****       if (ep->type != EP_TYPE_ISOC)
 654:Drivers/STM32F0xx_HAL_Driver/Src/stm32f0xx_ll_usb.c ****       {
 655:Drivers/STM32F0xx_HAL_Driver/Src/stm32f0xx_ll_usb.c ****         /* Configure NAK status for the Endpoint */
 656:Drivers/STM32F0xx_HAL_Driver/Src/stm32f0xx_ll_usb.c ****         PCD_SET_EP_TX_STATUS(USBx, ep->num, USB_EP_TX_NAK);
 657:Drivers/STM32F0xx_HAL_Driver/Src/stm32f0xx_ll_usb.c ****       }
 658:Drivers/STM32F0xx_HAL_Driver/Src/stm32f0xx_ll_usb.c ****       else
 659:Drivers/STM32F0xx_HAL_Driver/Src/stm32f0xx_ll_usb.c ****       {
 660:Drivers/STM32F0xx_HAL_Driver/Src/stm32f0xx_ll_usb.c ****         /* Configure TX Endpoint to disabled state */
 661:Drivers/STM32F0xx_HAL_Driver/Src/stm32f0xx_ll_usb.c ****         PCD_SET_EP_TX_STATUS(USBx, ep->num, USB_EP_TX_DIS);
 662:Drivers/STM32F0xx_HAL_Driver/Src/stm32f0xx_ll_usb.c ****       }
 663:Drivers/STM32F0xx_HAL_Driver/Src/stm32f0xx_ll_usb.c ****     }
 664:Drivers/STM32F0xx_HAL_Driver/Src/stm32f0xx_ll_usb.c ****   }
 665:Drivers/STM32F0xx_HAL_Driver/Src/stm32f0xx_ll_usb.c ****   else /* OUT endpoint */
 666:Drivers/STM32F0xx_HAL_Driver/Src/stm32f0xx_ll_usb.c ****   {
 667:Drivers/STM32F0xx_HAL_Driver/Src/stm32f0xx_ll_usb.c ****     if (ep->doublebuffer == 0U)
 1874              		.loc 1 667 5 is_stmt 1 view .LVU573
 1875              		.loc 1 667 11 is_stmt 0 view .LVU574
 1876 0006 0B7B     		ldrb	r3, [r1, #12]
 1877              		.loc 1 667 8 view .LVU575
 1878 0008 002B     		cmp	r3, #0
 1879 000a 0FD1     		bne	.L86
 668:Drivers/STM32F0xx_HAL_Driver/Src/stm32f0xx_ll_usb.c ****     {
 669:Drivers/STM32F0xx_HAL_Driver/Src/stm32f0xx_ll_usb.c ****       if (ep->type != EP_TYPE_ISOC)
 1880              		.loc 1 669 7 is_stmt 1 view .LVU576
 1881              		.loc 1 669 13 is_stmt 0 view .LVU577
 1882 000c CB78     		ldrb	r3, [r1, #3]
 1883              		.loc 1 669 10 view .LVU578
 1884 000e 012B     		cmp	r3, #1
 1885 0010 2DD0     		beq	.L88
 670:Drivers/STM32F0xx_HAL_Driver/Src/stm32f0xx_ll_usb.c ****       {
 671:Drivers/STM32F0xx_HAL_Driver/Src/stm32f0xx_ll_usb.c ****         /* Configure NAK status for the Endpoint */
 672:Drivers/STM32F0xx_HAL_Driver/Src/stm32f0xx_ll_usb.c ****         PCD_SET_EP_RX_STATUS(USBx, ep->num, USB_EP_RX_NAK);
 1886              		.loc 1 672 9 is_stmt 1 view .LVU579
 1887              	.LBB62:
ARM GAS  /var/folders/kr/g9ry2bg56g773797gdtkvvkw0000gn/T//cc7eQgtd.s 			page 49


 1888              		.loc 1 672 9 view .LVU580
 1889              		.loc 1 672 9 view .LVU581
 1890 0012 0B78     		ldrb	r3, [r1]
 1891 0014 9B00     		lsls	r3, r3, #2
 1892 0016 C318     		adds	r3, r0, r3
 1893 0018 1A88     		ldrh	r2, [r3]
 1894 001a 1A49     		ldr	r1, .L90
 1895              	.LVL201:
 1896              		.loc 1 672 9 is_stmt 0 view .LVU582
 1897 001c 0A40     		ands	r2, r1
 1898              	.LVL202:
 1899              		.loc 1 672 9 is_stmt 1 view .LVU583
 1900              		.loc 1 672 9 discriminator 3 view .LVU584
 1901              		.loc 1 672 9 discriminator 4 view .LVU585
 1902 001e 8021     		movs	r1, #128
 1903 0020 8901     		lsls	r1, r1, #6
 1904 0022 5140     		eors	r1, r2
 1905              	.LVL203:
 1906              		.loc 1 672 9 discriminator 6 view .LVU586
 1907 0024 184A     		ldr	r2, .L90+4
 1908 0026 0A43     		orrs	r2, r1
 1909 0028 92B2     		uxth	r2, r2
 1910 002a 1A80     		strh	r2, [r3]
 1911              	.LBE62:
 1912              		.loc 1 672 9 discriminator 6 view .LVU587
 1913              	.LVL204:
 1914              	.L86:
 673:Drivers/STM32F0xx_HAL_Driver/Src/stm32f0xx_ll_usb.c ****       }
 674:Drivers/STM32F0xx_HAL_Driver/Src/stm32f0xx_ll_usb.c ****       else
 675:Drivers/STM32F0xx_HAL_Driver/Src/stm32f0xx_ll_usb.c ****       {
 676:Drivers/STM32F0xx_HAL_Driver/Src/stm32f0xx_ll_usb.c ****         /* Configure RX Endpoint to disabled state */
 677:Drivers/STM32F0xx_HAL_Driver/Src/stm32f0xx_ll_usb.c ****         PCD_SET_EP_RX_STATUS(USBx, ep->num, USB_EP_RX_DIS);
 1915              		.loc 1 677 9 discriminator 7 view .LVU588
 678:Drivers/STM32F0xx_HAL_Driver/Src/stm32f0xx_ll_usb.c ****       }
 679:Drivers/STM32F0xx_HAL_Driver/Src/stm32f0xx_ll_usb.c ****     }
 680:Drivers/STM32F0xx_HAL_Driver/Src/stm32f0xx_ll_usb.c ****   }
 681:Drivers/STM32F0xx_HAL_Driver/Src/stm32f0xx_ll_usb.c **** 
 682:Drivers/STM32F0xx_HAL_Driver/Src/stm32f0xx_ll_usb.c ****   return HAL_OK;
 1916              		.loc 1 682 3 view .LVU589
 683:Drivers/STM32F0xx_HAL_Driver/Src/stm32f0xx_ll_usb.c **** }
 1917              		.loc 1 683 1 is_stmt 0 view .LVU590
 1918 002c 0020     		movs	r0, #0
 1919              		@ sp needed
 1920 002e 7047     		bx	lr
 1921              	.LVL205:
 1922              	.L89:
 651:Drivers/STM32F0xx_HAL_Driver/Src/stm32f0xx_ll_usb.c ****     {
 1923              		.loc 1 651 5 is_stmt 1 view .LVU591
 651:Drivers/STM32F0xx_HAL_Driver/Src/stm32f0xx_ll_usb.c ****     {
 1924              		.loc 1 651 11 is_stmt 0 view .LVU592
 1925 0030 0B7B     		ldrb	r3, [r1, #12]
 651:Drivers/STM32F0xx_HAL_Driver/Src/stm32f0xx_ll_usb.c ****     {
 1926              		.loc 1 651 8 view .LVU593
 1927 0032 002B     		cmp	r3, #0
 1928 0034 FAD1     		bne	.L86
 653:Drivers/STM32F0xx_HAL_Driver/Src/stm32f0xx_ll_usb.c ****       {
 1929              		.loc 1 653 7 is_stmt 1 view .LVU594
ARM GAS  /var/folders/kr/g9ry2bg56g773797gdtkvvkw0000gn/T//cc7eQgtd.s 			page 50


 653:Drivers/STM32F0xx_HAL_Driver/Src/stm32f0xx_ll_usb.c ****       {
 1930              		.loc 1 653 13 is_stmt 0 view .LVU595
 1931 0036 CB78     		ldrb	r3, [r1, #3]
 653:Drivers/STM32F0xx_HAL_Driver/Src/stm32f0xx_ll_usb.c ****       {
 1932              		.loc 1 653 10 view .LVU596
 1933 0038 012B     		cmp	r3, #1
 1934 003a 0DD0     		beq	.L87
 656:Drivers/STM32F0xx_HAL_Driver/Src/stm32f0xx_ll_usb.c ****       }
 1935              		.loc 1 656 9 is_stmt 1 view .LVU597
 1936              	.LBB63:
 656:Drivers/STM32F0xx_HAL_Driver/Src/stm32f0xx_ll_usb.c ****       }
 1937              		.loc 1 656 9 view .LVU598
 656:Drivers/STM32F0xx_HAL_Driver/Src/stm32f0xx_ll_usb.c ****       }
 1938              		.loc 1 656 9 view .LVU599
 1939 003c 0A78     		ldrb	r2, [r1]
 1940 003e 9200     		lsls	r2, r2, #2
 1941 0040 8218     		adds	r2, r0, r2
 1942 0042 1388     		ldrh	r3, [r2]
 1943 0044 1149     		ldr	r1, .L90+8
 1944              	.LVL206:
 656:Drivers/STM32F0xx_HAL_Driver/Src/stm32f0xx_ll_usb.c ****       }
 1945              		.loc 1 656 9 is_stmt 0 view .LVU600
 1946 0046 0B40     		ands	r3, r1
 1947              	.LVL207:
 656:Drivers/STM32F0xx_HAL_Driver/Src/stm32f0xx_ll_usb.c ****       }
 1948              		.loc 1 656 9 is_stmt 1 view .LVU601
 656:Drivers/STM32F0xx_HAL_Driver/Src/stm32f0xx_ll_usb.c ****       }
 1949              		.loc 1 656 9 discriminator 3 view .LVU602
 656:Drivers/STM32F0xx_HAL_Driver/Src/stm32f0xx_ll_usb.c ****       }
 1950              		.loc 1 656 9 discriminator 4 view .LVU603
 1951 0048 2021     		movs	r1, #32
 1952 004a 4B40     		eors	r3, r1
 1953              	.LVL208:
 656:Drivers/STM32F0xx_HAL_Driver/Src/stm32f0xx_ll_usb.c ****       }
 1954              		.loc 1 656 9 is_stmt 0 discriminator 4 view .LVU604
 1955 004c 9BB2     		uxth	r3, r3
 1956              	.LVL209:
 656:Drivers/STM32F0xx_HAL_Driver/Src/stm32f0xx_ll_usb.c ****       }
 1957              		.loc 1 656 9 is_stmt 1 discriminator 6 view .LVU605
 1958 004e 0E49     		ldr	r1, .L90+4
 1959 0050 0B43     		orrs	r3, r1
 1960              	.LVL210:
 656:Drivers/STM32F0xx_HAL_Driver/Src/stm32f0xx_ll_usb.c ****       }
 1961              		.loc 1 656 9 is_stmt 0 discriminator 6 view .LVU606
 1962 0052 9BB2     		uxth	r3, r3
 1963 0054 1380     		strh	r3, [r2]
 1964              	.LBE63:
 656:Drivers/STM32F0xx_HAL_Driver/Src/stm32f0xx_ll_usb.c ****       }
 1965              		.loc 1 656 9 is_stmt 1 discriminator 6 view .LVU607
 1966 0056 E9E7     		b	.L86
 1967              	.LVL211:
 1968              	.L87:
 661:Drivers/STM32F0xx_HAL_Driver/Src/stm32f0xx_ll_usb.c ****       }
 1969              		.loc 1 661 9 view .LVU608
 1970              	.LBB64:
 661:Drivers/STM32F0xx_HAL_Driver/Src/stm32f0xx_ll_usb.c ****       }
 1971              		.loc 1 661 9 view .LVU609
ARM GAS  /var/folders/kr/g9ry2bg56g773797gdtkvvkw0000gn/T//cc7eQgtd.s 			page 51


 661:Drivers/STM32F0xx_HAL_Driver/Src/stm32f0xx_ll_usb.c ****       }
 1972              		.loc 1 661 9 view .LVU610
 1973 0058 0B78     		ldrb	r3, [r1]
 1974 005a 9B00     		lsls	r3, r3, #2
 1975 005c C318     		adds	r3, r0, r3
 1976 005e 1988     		ldrh	r1, [r3]
 1977              	.LVL212:
 661:Drivers/STM32F0xx_HAL_Driver/Src/stm32f0xx_ll_usb.c ****       }
 1978              		.loc 1 661 9 is_stmt 0 view .LVU611
 1979 0060 0A4A     		ldr	r2, .L90+8
 1980 0062 1140     		ands	r1, r2
 1981              	.LVL213:
 661:Drivers/STM32F0xx_HAL_Driver/Src/stm32f0xx_ll_usb.c ****       }
 1982              		.loc 1 661 9 is_stmt 1 view .LVU612
 661:Drivers/STM32F0xx_HAL_Driver/Src/stm32f0xx_ll_usb.c ****       }
 1983              		.loc 1 661 9 discriminator 3 view .LVU613
 661:Drivers/STM32F0xx_HAL_Driver/Src/stm32f0xx_ll_usb.c ****       }
 1984              		.loc 1 661 9 discriminator 6 view .LVU614
 1985 0064 084A     		ldr	r2, .L90+4
 1986 0066 0A43     		orrs	r2, r1
 1987 0068 92B2     		uxth	r2, r2
 1988 006a 1A80     		strh	r2, [r3]
 1989 006c DEE7     		b	.L86
 1990              	.LVL214:
 1991              	.L88:
 661:Drivers/STM32F0xx_HAL_Driver/Src/stm32f0xx_ll_usb.c ****       }
 1992              		.loc 1 661 9 is_stmt 0 discriminator 6 view .LVU615
 1993              	.LBE64:
 677:Drivers/STM32F0xx_HAL_Driver/Src/stm32f0xx_ll_usb.c ****       }
 1994              		.loc 1 677 9 is_stmt 1 view .LVU616
 1995              	.LBB65:
 677:Drivers/STM32F0xx_HAL_Driver/Src/stm32f0xx_ll_usb.c ****       }
 1996              		.loc 1 677 9 view .LVU617
 677:Drivers/STM32F0xx_HAL_Driver/Src/stm32f0xx_ll_usb.c ****       }
 1997              		.loc 1 677 9 view .LVU618
 1998 006e 0B78     		ldrb	r3, [r1]
 1999 0070 9B00     		lsls	r3, r3, #2
 2000 0072 C018     		adds	r0, r0, r3
 2001              	.LVL215:
 677:Drivers/STM32F0xx_HAL_Driver/Src/stm32f0xx_ll_usb.c ****       }
 2002              		.loc 1 677 9 is_stmt 0 view .LVU619
 2003 0074 0288     		ldrh	r2, [r0]
 2004 0076 034B     		ldr	r3, .L90
 2005 0078 1A40     		ands	r2, r3
 2006              	.LVL216:
 677:Drivers/STM32F0xx_HAL_Driver/Src/stm32f0xx_ll_usb.c ****       }
 2007              		.loc 1 677 9 is_stmt 1 view .LVU620
 677:Drivers/STM32F0xx_HAL_Driver/Src/stm32f0xx_ll_usb.c ****       }
 2008              		.loc 1 677 9 discriminator 3 view .LVU621
 677:Drivers/STM32F0xx_HAL_Driver/Src/stm32f0xx_ll_usb.c ****       }
 2009              		.loc 1 677 9 discriminator 6 view .LVU622
 2010 007a 034B     		ldr	r3, .L90+4
 2011 007c 1343     		orrs	r3, r2
 2012 007e 9BB2     		uxth	r3, r3
 2013 0080 0380     		strh	r3, [r0]
 2014 0082 D3E7     		b	.L86
 2015              	.L91:
ARM GAS  /var/folders/kr/g9ry2bg56g773797gdtkvvkw0000gn/T//cc7eQgtd.s 			page 52


 2016              		.align	2
 2017              	.L90:
 2018 0084 8FBFFFFF 		.word	-16497
 2019 0088 8080FFFF 		.word	-32640
 2020 008c BF8FFFFF 		.word	-28737
 2021              	.LBE65:
 2022              		.cfi_endproc
 2023              	.LFE50:
 2025              		.section	.text.USB_StopDevice,"ax",%progbits
 2026              		.align	1
 2027              		.global	USB_StopDevice
 2028              		.syntax unified
 2029              		.code	16
 2030              		.thumb_func
 2032              	USB_StopDevice:
 2033              	.LVL217:
 2034              	.LFB51:
 684:Drivers/STM32F0xx_HAL_Driver/Src/stm32f0xx_ll_usb.c **** #endif /* defined (HAL_PCD_MODULE_ENABLED) */
 685:Drivers/STM32F0xx_HAL_Driver/Src/stm32f0xx_ll_usb.c **** 
 686:Drivers/STM32F0xx_HAL_Driver/Src/stm32f0xx_ll_usb.c **** /**
 687:Drivers/STM32F0xx_HAL_Driver/Src/stm32f0xx_ll_usb.c ****   * @brief  USB_StopDevice Stop the usb device mode
 688:Drivers/STM32F0xx_HAL_Driver/Src/stm32f0xx_ll_usb.c ****   * @param  USBx Selected device
 689:Drivers/STM32F0xx_HAL_Driver/Src/stm32f0xx_ll_usb.c ****   * @retval HAL status
 690:Drivers/STM32F0xx_HAL_Driver/Src/stm32f0xx_ll_usb.c ****   */
 691:Drivers/STM32F0xx_HAL_Driver/Src/stm32f0xx_ll_usb.c **** HAL_StatusTypeDef USB_StopDevice(USB_TypeDef *USBx)
 692:Drivers/STM32F0xx_HAL_Driver/Src/stm32f0xx_ll_usb.c **** {
 2035              		.loc 1 692 1 view -0
 2036              		.cfi_startproc
 2037              		@ args = 0, pretend = 0, frame = 0
 2038              		@ frame_needed = 0, uses_anonymous_args = 0
 2039              		@ link register save eliminated.
 693:Drivers/STM32F0xx_HAL_Driver/Src/stm32f0xx_ll_usb.c ****   /* disable all interrupts and force USB reset */
 694:Drivers/STM32F0xx_HAL_Driver/Src/stm32f0xx_ll_usb.c ****   USBx->CNTR = (uint16_t)USB_CNTR_FRES;
 2040              		.loc 1 694 3 view .LVU624
 2041              		.loc 1 694 14 is_stmt 0 view .LVU625
 2042 0000 4023     		movs	r3, #64
 2043 0002 0122     		movs	r2, #1
 2044 0004 C252     		strh	r2, [r0, r3]
 695:Drivers/STM32F0xx_HAL_Driver/Src/stm32f0xx_ll_usb.c **** 
 696:Drivers/STM32F0xx_HAL_Driver/Src/stm32f0xx_ll_usb.c ****   /* clear interrupt status register */
 697:Drivers/STM32F0xx_HAL_Driver/Src/stm32f0xx_ll_usb.c ****   USBx->ISTR = 0U;
 2045              		.loc 1 697 3 is_stmt 1 view .LVU626
 2046              		.loc 1 697 14 is_stmt 0 view .LVU627
 2047 0006 4332     		adds	r2, r2, #67
 2048 0008 0021     		movs	r1, #0
 2049 000a 8152     		strh	r1, [r0, r2]
 698:Drivers/STM32F0xx_HAL_Driver/Src/stm32f0xx_ll_usb.c **** 
 699:Drivers/STM32F0xx_HAL_Driver/Src/stm32f0xx_ll_usb.c ****   /* switch-off device */
 700:Drivers/STM32F0xx_HAL_Driver/Src/stm32f0xx_ll_usb.c ****   USBx->CNTR = (uint16_t)(USB_CNTR_FRES | USB_CNTR_PDWN);
 2050              		.loc 1 700 3 is_stmt 1 view .LVU628
 2051              		.loc 1 700 14 is_stmt 0 view .LVU629
 2052 000c 413A     		subs	r2, r2, #65
 2053 000e C252     		strh	r2, [r0, r3]
 701:Drivers/STM32F0xx_HAL_Driver/Src/stm32f0xx_ll_usb.c **** 
 702:Drivers/STM32F0xx_HAL_Driver/Src/stm32f0xx_ll_usb.c ****   return HAL_OK;
 2054              		.loc 1 702 3 is_stmt 1 view .LVU630
 703:Drivers/STM32F0xx_HAL_Driver/Src/stm32f0xx_ll_usb.c **** }
ARM GAS  /var/folders/kr/g9ry2bg56g773797gdtkvvkw0000gn/T//cc7eQgtd.s 			page 53


 2055              		.loc 1 703 1 is_stmt 0 view .LVU631
 2056 0010 0020     		movs	r0, #0
 2057              	.LVL218:
 2058              		.loc 1 703 1 view .LVU632
 2059              		@ sp needed
 2060 0012 7047     		bx	lr
 2061              		.cfi_endproc
 2062              	.LFE51:
 2064              		.section	.text.USB_SetDevAddress,"ax",%progbits
 2065              		.align	1
 2066              		.global	USB_SetDevAddress
 2067              		.syntax unified
 2068              		.code	16
 2069              		.thumb_func
 2071              	USB_SetDevAddress:
 2072              	.LVL219:
 2073              	.LFB52:
 704:Drivers/STM32F0xx_HAL_Driver/Src/stm32f0xx_ll_usb.c **** 
 705:Drivers/STM32F0xx_HAL_Driver/Src/stm32f0xx_ll_usb.c **** /**
 706:Drivers/STM32F0xx_HAL_Driver/Src/stm32f0xx_ll_usb.c ****   * @brief  USB_SetDevAddress Stop the usb device mode
 707:Drivers/STM32F0xx_HAL_Driver/Src/stm32f0xx_ll_usb.c ****   * @param  USBx Selected device
 708:Drivers/STM32F0xx_HAL_Driver/Src/stm32f0xx_ll_usb.c ****   * @param  address new device address to be assigned
 709:Drivers/STM32F0xx_HAL_Driver/Src/stm32f0xx_ll_usb.c ****   *          This parameter can be a value from 0 to 255
 710:Drivers/STM32F0xx_HAL_Driver/Src/stm32f0xx_ll_usb.c ****   * @retval HAL status
 711:Drivers/STM32F0xx_HAL_Driver/Src/stm32f0xx_ll_usb.c ****   */
 712:Drivers/STM32F0xx_HAL_Driver/Src/stm32f0xx_ll_usb.c **** HAL_StatusTypeDef  USB_SetDevAddress(USB_TypeDef *USBx, uint8_t address)
 713:Drivers/STM32F0xx_HAL_Driver/Src/stm32f0xx_ll_usb.c **** {
 2074              		.loc 1 713 1 is_stmt 1 view -0
 2075              		.cfi_startproc
 2076              		@ args = 0, pretend = 0, frame = 0
 2077              		@ frame_needed = 0, uses_anonymous_args = 0
 2078              		@ link register save eliminated.
 714:Drivers/STM32F0xx_HAL_Driver/Src/stm32f0xx_ll_usb.c ****   if (address == 0U)
 2079              		.loc 1 714 3 view .LVU634
 2080              		.loc 1 714 6 is_stmt 0 view .LVU635
 2081 0000 0029     		cmp	r1, #0
 2082 0002 02D1     		bne	.L94
 715:Drivers/STM32F0xx_HAL_Driver/Src/stm32f0xx_ll_usb.c ****   {
 716:Drivers/STM32F0xx_HAL_Driver/Src/stm32f0xx_ll_usb.c ****     /* set device address and enable function */
 717:Drivers/STM32F0xx_HAL_Driver/Src/stm32f0xx_ll_usb.c ****     USBx->DADDR = (uint16_t)USB_DADDR_EF;
 2083              		.loc 1 717 5 is_stmt 1 view .LVU636
 2084              		.loc 1 717 17 is_stmt 0 view .LVU637
 2085 0004 4C23     		movs	r3, #76
 2086 0006 8022     		movs	r2, #128
 2087 0008 C252     		strh	r2, [r0, r3]
 2088              	.L94:
 718:Drivers/STM32F0xx_HAL_Driver/Src/stm32f0xx_ll_usb.c ****   }
 719:Drivers/STM32F0xx_HAL_Driver/Src/stm32f0xx_ll_usb.c **** 
 720:Drivers/STM32F0xx_HAL_Driver/Src/stm32f0xx_ll_usb.c ****   return HAL_OK;
 2089              		.loc 1 720 3 is_stmt 1 view .LVU638
 721:Drivers/STM32F0xx_HAL_Driver/Src/stm32f0xx_ll_usb.c **** }
 2090              		.loc 1 721 1 is_stmt 0 view .LVU639
 2091 000a 0020     		movs	r0, #0
 2092              	.LVL220:
 2093              		.loc 1 721 1 view .LVU640
 2094              		@ sp needed
 2095 000c 7047     		bx	lr
ARM GAS  /var/folders/kr/g9ry2bg56g773797gdtkvvkw0000gn/T//cc7eQgtd.s 			page 54


 2096              		.cfi_endproc
 2097              	.LFE52:
 2099              		.section	.text.USB_DevConnect,"ax",%progbits
 2100              		.align	1
 2101              		.global	USB_DevConnect
 2102              		.syntax unified
 2103              		.code	16
 2104              		.thumb_func
 2106              	USB_DevConnect:
 2107              	.LVL221:
 2108              	.LFB53:
 722:Drivers/STM32F0xx_HAL_Driver/Src/stm32f0xx_ll_usb.c **** 
 723:Drivers/STM32F0xx_HAL_Driver/Src/stm32f0xx_ll_usb.c **** /**
 724:Drivers/STM32F0xx_HAL_Driver/Src/stm32f0xx_ll_usb.c ****   * @brief  USB_DevConnect Connect the USB device by enabling the pull-up/pull-down
 725:Drivers/STM32F0xx_HAL_Driver/Src/stm32f0xx_ll_usb.c ****   * @param  USBx Selected device
 726:Drivers/STM32F0xx_HAL_Driver/Src/stm32f0xx_ll_usb.c ****   * @retval HAL status
 727:Drivers/STM32F0xx_HAL_Driver/Src/stm32f0xx_ll_usb.c ****   */
 728:Drivers/STM32F0xx_HAL_Driver/Src/stm32f0xx_ll_usb.c **** HAL_StatusTypeDef  USB_DevConnect(USB_TypeDef *USBx)
 729:Drivers/STM32F0xx_HAL_Driver/Src/stm32f0xx_ll_usb.c **** {
 2109              		.loc 1 729 1 is_stmt 1 view -0
 2110              		.cfi_startproc
 2111              		@ args = 0, pretend = 0, frame = 0
 2112              		@ frame_needed = 0, uses_anonymous_args = 0
 2113              		@ link register save eliminated.
 730:Drivers/STM32F0xx_HAL_Driver/Src/stm32f0xx_ll_usb.c ****   /* Enabling DP Pull-UP bit to Connect internal PU resistor on USB DP line */
 731:Drivers/STM32F0xx_HAL_Driver/Src/stm32f0xx_ll_usb.c ****   USBx->BCDR |= (uint16_t)USB_BCDR_DPPU;
 2114              		.loc 1 731 3 view .LVU642
 2115              		.loc 1 731 7 is_stmt 0 view .LVU643
 2116 0000 5822     		movs	r2, #88
 2117 0002 835A     		ldrh	r3, [r0, r2]
 2118              		.loc 1 731 14 view .LVU644
 2119 0004 0249     		ldr	r1, .L96
 2120 0006 0B43     		orrs	r3, r1
 2121 0008 9BB2     		uxth	r3, r3
 2122 000a 8352     		strh	r3, [r0, r2]
 732:Drivers/STM32F0xx_HAL_Driver/Src/stm32f0xx_ll_usb.c **** 
 733:Drivers/STM32F0xx_HAL_Driver/Src/stm32f0xx_ll_usb.c ****   return HAL_OK;
 2123              		.loc 1 733 3 is_stmt 1 view .LVU645
 734:Drivers/STM32F0xx_HAL_Driver/Src/stm32f0xx_ll_usb.c **** }
 2124              		.loc 1 734 1 is_stmt 0 view .LVU646
 2125 000c 0020     		movs	r0, #0
 2126              	.LVL222:
 2127              		.loc 1 734 1 view .LVU647
 2128              		@ sp needed
 2129 000e 7047     		bx	lr
 2130              	.L97:
 2131              		.align	2
 2132              	.L96:
 2133 0010 0080FFFF 		.word	-32768
 2134              		.cfi_endproc
 2135              	.LFE53:
 2137              		.section	.text.USB_DevDisconnect,"ax",%progbits
 2138              		.align	1
 2139              		.global	USB_DevDisconnect
 2140              		.syntax unified
 2141              		.code	16
 2142              		.thumb_func
ARM GAS  /var/folders/kr/g9ry2bg56g773797gdtkvvkw0000gn/T//cc7eQgtd.s 			page 55


 2144              	USB_DevDisconnect:
 2145              	.LVL223:
 2146              	.LFB54:
 735:Drivers/STM32F0xx_HAL_Driver/Src/stm32f0xx_ll_usb.c **** 
 736:Drivers/STM32F0xx_HAL_Driver/Src/stm32f0xx_ll_usb.c **** /**
 737:Drivers/STM32F0xx_HAL_Driver/Src/stm32f0xx_ll_usb.c ****   * @brief  USB_DevDisconnect Disconnect the USB device by disabling the pull-up/pull-down
 738:Drivers/STM32F0xx_HAL_Driver/Src/stm32f0xx_ll_usb.c ****   * @param  USBx Selected device
 739:Drivers/STM32F0xx_HAL_Driver/Src/stm32f0xx_ll_usb.c ****   * @retval HAL status
 740:Drivers/STM32F0xx_HAL_Driver/Src/stm32f0xx_ll_usb.c ****   */
 741:Drivers/STM32F0xx_HAL_Driver/Src/stm32f0xx_ll_usb.c **** HAL_StatusTypeDef  USB_DevDisconnect(USB_TypeDef *USBx)
 742:Drivers/STM32F0xx_HAL_Driver/Src/stm32f0xx_ll_usb.c **** {
 2147              		.loc 1 742 1 is_stmt 1 view -0
 2148              		.cfi_startproc
 2149              		@ args = 0, pretend = 0, frame = 0
 2150              		@ frame_needed = 0, uses_anonymous_args = 0
 2151              		@ link register save eliminated.
 743:Drivers/STM32F0xx_HAL_Driver/Src/stm32f0xx_ll_usb.c ****   /* Disable DP Pull-Up bit to disconnect the Internal PU resistor on USB DP line */
 744:Drivers/STM32F0xx_HAL_Driver/Src/stm32f0xx_ll_usb.c ****   USBx->BCDR &= (uint16_t)(~(USB_BCDR_DPPU));
 2152              		.loc 1 744 3 view .LVU649
 2153              		.loc 1 744 7 is_stmt 0 view .LVU650
 2154 0000 5822     		movs	r2, #88
 2155 0002 835A     		ldrh	r3, [r0, r2]
 2156              		.loc 1 744 14 view .LVU651
 2157 0004 5B04     		lsls	r3, r3, #17
 2158 0006 5B0C     		lsrs	r3, r3, #17
 2159 0008 8352     		strh	r3, [r0, r2]
 745:Drivers/STM32F0xx_HAL_Driver/Src/stm32f0xx_ll_usb.c **** 
 746:Drivers/STM32F0xx_HAL_Driver/Src/stm32f0xx_ll_usb.c ****   return HAL_OK;
 2160              		.loc 1 746 3 is_stmt 1 view .LVU652
 747:Drivers/STM32F0xx_HAL_Driver/Src/stm32f0xx_ll_usb.c **** }
 2161              		.loc 1 747 1 is_stmt 0 view .LVU653
 2162 000a 0020     		movs	r0, #0
 2163              	.LVL224:
 2164              		.loc 1 747 1 view .LVU654
 2165              		@ sp needed
 2166 000c 7047     		bx	lr
 2167              		.cfi_endproc
 2168              	.LFE54:
 2170              		.section	.text.USB_ReadInterrupts,"ax",%progbits
 2171              		.align	1
 2172              		.global	USB_ReadInterrupts
 2173              		.syntax unified
 2174              		.code	16
 2175              		.thumb_func
 2177              	USB_ReadInterrupts:
 2178              	.LVL225:
 2179              	.LFB55:
 748:Drivers/STM32F0xx_HAL_Driver/Src/stm32f0xx_ll_usb.c **** 
 749:Drivers/STM32F0xx_HAL_Driver/Src/stm32f0xx_ll_usb.c **** /**
 750:Drivers/STM32F0xx_HAL_Driver/Src/stm32f0xx_ll_usb.c ****   * @brief  USB_ReadInterrupts return the global USB interrupt status
 751:Drivers/STM32F0xx_HAL_Driver/Src/stm32f0xx_ll_usb.c ****   * @param  USBx Selected device
 752:Drivers/STM32F0xx_HAL_Driver/Src/stm32f0xx_ll_usb.c ****   * @retval USB Global Interrupt status
 753:Drivers/STM32F0xx_HAL_Driver/Src/stm32f0xx_ll_usb.c ****   */
 754:Drivers/STM32F0xx_HAL_Driver/Src/stm32f0xx_ll_usb.c **** uint32_t USB_ReadInterrupts(USB_TypeDef *USBx)
 755:Drivers/STM32F0xx_HAL_Driver/Src/stm32f0xx_ll_usb.c **** {
 2180              		.loc 1 755 1 is_stmt 1 view -0
 2181              		.cfi_startproc
ARM GAS  /var/folders/kr/g9ry2bg56g773797gdtkvvkw0000gn/T//cc7eQgtd.s 			page 56


 2182              		@ args = 0, pretend = 0, frame = 0
 2183              		@ frame_needed = 0, uses_anonymous_args = 0
 2184              		@ link register save eliminated.
 756:Drivers/STM32F0xx_HAL_Driver/Src/stm32f0xx_ll_usb.c ****   uint32_t tmpreg;
 2185              		.loc 1 756 3 view .LVU656
 757:Drivers/STM32F0xx_HAL_Driver/Src/stm32f0xx_ll_usb.c **** 
 758:Drivers/STM32F0xx_HAL_Driver/Src/stm32f0xx_ll_usb.c ****   tmpreg = USBx->ISTR;
 2186              		.loc 1 758 3 view .LVU657
 2187              		.loc 1 758 16 is_stmt 0 view .LVU658
 2188 0000 4423     		movs	r3, #68
 2189 0002 C05A     		ldrh	r0, [r0, r3]
 2190              	.LVL226:
 2191              		.loc 1 758 16 view .LVU659
 2192 0004 80B2     		uxth	r0, r0
 2193              	.LVL227:
 759:Drivers/STM32F0xx_HAL_Driver/Src/stm32f0xx_ll_usb.c ****   return tmpreg;
 2194              		.loc 1 759 3 is_stmt 1 view .LVU660
 760:Drivers/STM32F0xx_HAL_Driver/Src/stm32f0xx_ll_usb.c **** }
 2195              		.loc 1 760 1 is_stmt 0 view .LVU661
 2196              		@ sp needed
 2197 0006 7047     		bx	lr
 2198              		.cfi_endproc
 2199              	.LFE55:
 2201              		.section	.text.USB_ActivateRemoteWakeup,"ax",%progbits
 2202              		.align	1
 2203              		.global	USB_ActivateRemoteWakeup
 2204              		.syntax unified
 2205              		.code	16
 2206              		.thumb_func
 2208              	USB_ActivateRemoteWakeup:
 2209              	.LVL228:
 2210              	.LFB56:
 761:Drivers/STM32F0xx_HAL_Driver/Src/stm32f0xx_ll_usb.c **** 
 762:Drivers/STM32F0xx_HAL_Driver/Src/stm32f0xx_ll_usb.c **** /**
 763:Drivers/STM32F0xx_HAL_Driver/Src/stm32f0xx_ll_usb.c ****   * @brief  USB_ActivateRemoteWakeup : active remote wakeup signalling
 764:Drivers/STM32F0xx_HAL_Driver/Src/stm32f0xx_ll_usb.c ****   * @param  USBx Selected device
 765:Drivers/STM32F0xx_HAL_Driver/Src/stm32f0xx_ll_usb.c ****   * @retval HAL status
 766:Drivers/STM32F0xx_HAL_Driver/Src/stm32f0xx_ll_usb.c ****   */
 767:Drivers/STM32F0xx_HAL_Driver/Src/stm32f0xx_ll_usb.c **** HAL_StatusTypeDef USB_ActivateRemoteWakeup(USB_TypeDef *USBx)
 768:Drivers/STM32F0xx_HAL_Driver/Src/stm32f0xx_ll_usb.c **** {
 2211              		.loc 1 768 1 is_stmt 1 view -0
 2212              		.cfi_startproc
 2213              		@ args = 0, pretend = 0, frame = 0
 2214              		@ frame_needed = 0, uses_anonymous_args = 0
 2215              		@ link register save eliminated.
 769:Drivers/STM32F0xx_HAL_Driver/Src/stm32f0xx_ll_usb.c ****   USBx->CNTR |= (uint16_t)USB_CNTR_RESUME;
 2216              		.loc 1 769 3 view .LVU663
 2217              		.loc 1 769 7 is_stmt 0 view .LVU664
 2218 0000 4022     		movs	r2, #64
 2219 0002 835A     		ldrh	r3, [r0, r2]
 2220              		.loc 1 769 14 view .LVU665
 2221 0004 1021     		movs	r1, #16
 2222 0006 0B43     		orrs	r3, r1
 2223 0008 9BB2     		uxth	r3, r3
 2224 000a 8352     		strh	r3, [r0, r2]
 770:Drivers/STM32F0xx_HAL_Driver/Src/stm32f0xx_ll_usb.c **** 
 771:Drivers/STM32F0xx_HAL_Driver/Src/stm32f0xx_ll_usb.c ****   return HAL_OK;
ARM GAS  /var/folders/kr/g9ry2bg56g773797gdtkvvkw0000gn/T//cc7eQgtd.s 			page 57


 2225              		.loc 1 771 3 is_stmt 1 view .LVU666
 772:Drivers/STM32F0xx_HAL_Driver/Src/stm32f0xx_ll_usb.c **** }
 2226              		.loc 1 772 1 is_stmt 0 view .LVU667
 2227 000c 0020     		movs	r0, #0
 2228              	.LVL229:
 2229              		.loc 1 772 1 view .LVU668
 2230              		@ sp needed
 2231 000e 7047     		bx	lr
 2232              		.cfi_endproc
 2233              	.LFE56:
 2235              		.section	.text.USB_DeActivateRemoteWakeup,"ax",%progbits
 2236              		.align	1
 2237              		.global	USB_DeActivateRemoteWakeup
 2238              		.syntax unified
 2239              		.code	16
 2240              		.thumb_func
 2242              	USB_DeActivateRemoteWakeup:
 2243              	.LVL230:
 2244              	.LFB57:
 773:Drivers/STM32F0xx_HAL_Driver/Src/stm32f0xx_ll_usb.c **** 
 774:Drivers/STM32F0xx_HAL_Driver/Src/stm32f0xx_ll_usb.c **** /**
 775:Drivers/STM32F0xx_HAL_Driver/Src/stm32f0xx_ll_usb.c ****   * @brief  USB_DeActivateRemoteWakeup de-active remote wakeup signalling
 776:Drivers/STM32F0xx_HAL_Driver/Src/stm32f0xx_ll_usb.c ****   * @param  USBx Selected device
 777:Drivers/STM32F0xx_HAL_Driver/Src/stm32f0xx_ll_usb.c ****   * @retval HAL status
 778:Drivers/STM32F0xx_HAL_Driver/Src/stm32f0xx_ll_usb.c ****   */
 779:Drivers/STM32F0xx_HAL_Driver/Src/stm32f0xx_ll_usb.c **** HAL_StatusTypeDef USB_DeActivateRemoteWakeup(USB_TypeDef *USBx)
 780:Drivers/STM32F0xx_HAL_Driver/Src/stm32f0xx_ll_usb.c **** {
 2245              		.loc 1 780 1 is_stmt 1 view -0
 2246              		.cfi_startproc
 2247              		@ args = 0, pretend = 0, frame = 0
 2248              		@ frame_needed = 0, uses_anonymous_args = 0
 2249              		@ link register save eliminated.
 781:Drivers/STM32F0xx_HAL_Driver/Src/stm32f0xx_ll_usb.c ****   USBx->CNTR &= (uint16_t)(~USB_CNTR_RESUME);
 2250              		.loc 1 781 3 view .LVU670
 2251              		.loc 1 781 7 is_stmt 0 view .LVU671
 2252 0000 4022     		movs	r2, #64
 2253 0002 835A     		ldrh	r3, [r0, r2]
 2254              		.loc 1 781 14 view .LVU672
 2255 0004 1021     		movs	r1, #16
 2256 0006 8B43     		bics	r3, r1
 2257 0008 8352     		strh	r3, [r0, r2]
 782:Drivers/STM32F0xx_HAL_Driver/Src/stm32f0xx_ll_usb.c **** 
 783:Drivers/STM32F0xx_HAL_Driver/Src/stm32f0xx_ll_usb.c ****   return HAL_OK;
 2258              		.loc 1 783 3 is_stmt 1 view .LVU673
 784:Drivers/STM32F0xx_HAL_Driver/Src/stm32f0xx_ll_usb.c **** }
 2259              		.loc 1 784 1 is_stmt 0 view .LVU674
 2260 000a 0020     		movs	r0, #0
 2261              	.LVL231:
 2262              		.loc 1 784 1 view .LVU675
 2263              		@ sp needed
 2264 000c 7047     		bx	lr
 2265              		.cfi_endproc
 2266              	.LFE57:
 2268              		.section	.text.USB_WritePMA,"ax",%progbits
 2269              		.align	1
 2270              		.global	USB_WritePMA
 2271              		.syntax unified
ARM GAS  /var/folders/kr/g9ry2bg56g773797gdtkvvkw0000gn/T//cc7eQgtd.s 			page 58


 2272              		.code	16
 2273              		.thumb_func
 2275              	USB_WritePMA:
 2276              	.LVL232:
 2277              	.LFB58:
 785:Drivers/STM32F0xx_HAL_Driver/Src/stm32f0xx_ll_usb.c **** 
 786:Drivers/STM32F0xx_HAL_Driver/Src/stm32f0xx_ll_usb.c **** /**
 787:Drivers/STM32F0xx_HAL_Driver/Src/stm32f0xx_ll_usb.c ****   * @brief Copy a buffer from user memory area to packet memory area (PMA)
 788:Drivers/STM32F0xx_HAL_Driver/Src/stm32f0xx_ll_usb.c ****   * @param   USBx USB peripheral instance register address.
 789:Drivers/STM32F0xx_HAL_Driver/Src/stm32f0xx_ll_usb.c ****   * @param   pbUsrBuf pointer to user memory area.
 790:Drivers/STM32F0xx_HAL_Driver/Src/stm32f0xx_ll_usb.c ****   * @param   wPMABufAddr address into PMA.
 791:Drivers/STM32F0xx_HAL_Driver/Src/stm32f0xx_ll_usb.c ****   * @param   wNBytes no. of bytes to be copied.
 792:Drivers/STM32F0xx_HAL_Driver/Src/stm32f0xx_ll_usb.c ****   * @retval None
 793:Drivers/STM32F0xx_HAL_Driver/Src/stm32f0xx_ll_usb.c ****   */
 794:Drivers/STM32F0xx_HAL_Driver/Src/stm32f0xx_ll_usb.c **** void USB_WritePMA(USB_TypeDef *USBx, uint8_t *pbUsrBuf, uint16_t wPMABufAddr, uint16_t wNBytes)
 795:Drivers/STM32F0xx_HAL_Driver/Src/stm32f0xx_ll_usb.c **** {
 2278              		.loc 1 795 1 is_stmt 1 view -0
 2279              		.cfi_startproc
 2280              		@ args = 0, pretend = 0, frame = 0
 2281              		@ frame_needed = 0, uses_anonymous_args = 0
 2282              		.loc 1 795 1 is_stmt 0 view .LVU677
 2283 0000 10B5     		push	{r4, lr}
 2284              	.LCFI5:
 2285              		.cfi_def_cfa_offset 8
 2286              		.cfi_offset 4, -8
 2287              		.cfi_offset 14, -4
 796:Drivers/STM32F0xx_HAL_Driver/Src/stm32f0xx_ll_usb.c ****   uint32_t n = ((uint32_t)wNBytes + 1U) >> 1;
 2288              		.loc 1 796 3 is_stmt 1 view .LVU678
 2289              		.loc 1 796 35 is_stmt 0 view .LVU679
 2290 0002 0133     		adds	r3, r3, #1
 2291              	.LVL233:
 2292              		.loc 1 796 12 view .LVU680
 2293 0004 5B08     		lsrs	r3, r3, #1
 2294              	.LVL234:
 797:Drivers/STM32F0xx_HAL_Driver/Src/stm32f0xx_ll_usb.c ****   uint32_t BaseAddr = (uint32_t)USBx;
 2295              		.loc 1 797 3 is_stmt 1 view .LVU681
 798:Drivers/STM32F0xx_HAL_Driver/Src/stm32f0xx_ll_usb.c ****   uint32_t count;
 2296              		.loc 1 798 3 view .LVU682
 799:Drivers/STM32F0xx_HAL_Driver/Src/stm32f0xx_ll_usb.c ****   uint16_t WrVal;
 2297              		.loc 1 799 3 view .LVU683
 800:Drivers/STM32F0xx_HAL_Driver/Src/stm32f0xx_ll_usb.c ****   __IO uint16_t *pdwVal;
 2298              		.loc 1 800 3 view .LVU684
 801:Drivers/STM32F0xx_HAL_Driver/Src/stm32f0xx_ll_usb.c ****   uint8_t *pBuf = pbUsrBuf;
 2299              		.loc 1 801 3 view .LVU685
 802:Drivers/STM32F0xx_HAL_Driver/Src/stm32f0xx_ll_usb.c **** 
 803:Drivers/STM32F0xx_HAL_Driver/Src/stm32f0xx_ll_usb.c ****   pdwVal = (__IO uint16_t *)(BaseAddr + 0x400U + ((uint32_t)wPMABufAddr * PMA_ACCESS));
 2300              		.loc 1 803 3 view .LVU686
 2301              		.loc 1 803 48 is_stmt 0 view .LVU687
 2302 0006 1218     		adds	r2, r2, r0
 2303              	.LVL235:
 2304              		.loc 1 803 48 view .LVU688
 2305 0008 8020     		movs	r0, #128
 2306              	.LVL236:
 2307              		.loc 1 803 48 view .LVU689
 2308 000a C000     		lsls	r0, r0, #3
 2309 000c 8446     		mov	ip, r0
 2310 000e 6244     		add	r2, r2, ip
ARM GAS  /var/folders/kr/g9ry2bg56g773797gdtkvvkw0000gn/T//cc7eQgtd.s 			page 59


 2311              	.LVL237:
 804:Drivers/STM32F0xx_HAL_Driver/Src/stm32f0xx_ll_usb.c **** 
 805:Drivers/STM32F0xx_HAL_Driver/Src/stm32f0xx_ll_usb.c ****   for (count = n; count != 0U; count--)
 2312              		.loc 1 805 3 is_stmt 1 view .LVU690
 2313              		.loc 1 805 3 is_stmt 0 view .LVU691
 2314 0010 07E0     		b	.L103
 2315              	.LVL238:
 2316              	.L104:
 806:Drivers/STM32F0xx_HAL_Driver/Src/stm32f0xx_ll_usb.c ****   {
 807:Drivers/STM32F0xx_HAL_Driver/Src/stm32f0xx_ll_usb.c ****     WrVal = pBuf[0];
 2317              		.loc 1 807 5 is_stmt 1 view .LVU692
 2318              		.loc 1 807 17 is_stmt 0 view .LVU693
 2319 0012 0C78     		ldrb	r4, [r1]
 2320              	.LVL239:
 808:Drivers/STM32F0xx_HAL_Driver/Src/stm32f0xx_ll_usb.c ****     WrVal |= (uint16_t)pBuf[1] << 8;
 2321              		.loc 1 808 5 is_stmt 1 view .LVU694
 2322              		.loc 1 808 28 is_stmt 0 view .LVU695
 2323 0014 4878     		ldrb	r0, [r1, #1]
 2324              		.loc 1 808 11 view .LVU696
 2325 0016 0002     		lsls	r0, r0, #8
 2326 0018 2043     		orrs	r0, r4
 2327              	.LVL240:
 809:Drivers/STM32F0xx_HAL_Driver/Src/stm32f0xx_ll_usb.c ****     *pdwVal = (WrVal & 0xFFFFU);
 2328              		.loc 1 809 5 is_stmt 1 view .LVU697
 2329              		.loc 1 809 13 is_stmt 0 view .LVU698
 2330 001a 1080     		strh	r0, [r2]
 810:Drivers/STM32F0xx_HAL_Driver/Src/stm32f0xx_ll_usb.c ****     pdwVal++;
 2331              		.loc 1 810 5 is_stmt 1 view .LVU699
 2332              		.loc 1 810 11 is_stmt 0 view .LVU700
 2333 001c 0232     		adds	r2, r2, #2
 2334              	.LVL241:
 811:Drivers/STM32F0xx_HAL_Driver/Src/stm32f0xx_ll_usb.c **** 
 812:Drivers/STM32F0xx_HAL_Driver/Src/stm32f0xx_ll_usb.c **** #if PMA_ACCESS > 1U
 813:Drivers/STM32F0xx_HAL_Driver/Src/stm32f0xx_ll_usb.c ****     pdwVal++;
 814:Drivers/STM32F0xx_HAL_Driver/Src/stm32f0xx_ll_usb.c **** #endif /* PMA_ACCESS */
 815:Drivers/STM32F0xx_HAL_Driver/Src/stm32f0xx_ll_usb.c **** 
 816:Drivers/STM32F0xx_HAL_Driver/Src/stm32f0xx_ll_usb.c ****     pBuf++;
 2335              		.loc 1 816 5 is_stmt 1 view .LVU701
 817:Drivers/STM32F0xx_HAL_Driver/Src/stm32f0xx_ll_usb.c ****     pBuf++;
 2336              		.loc 1 817 5 view .LVU702
 2337              		.loc 1 817 9 is_stmt 0 view .LVU703
 2338 001e 0231     		adds	r1, r1, #2
 2339              	.LVL242:
 805:Drivers/STM32F0xx_HAL_Driver/Src/stm32f0xx_ll_usb.c ****   {
 2340              		.loc 1 805 37 is_stmt 1 discriminator 3 view .LVU704
 2341 0020 013B     		subs	r3, r3, #1
 2342              	.LVL243:
 2343              	.L103:
 805:Drivers/STM32F0xx_HAL_Driver/Src/stm32f0xx_ll_usb.c ****   {
 2344              		.loc 1 805 25 discriminator 1 view .LVU705
 2345 0022 002B     		cmp	r3, #0
 2346 0024 F5D1     		bne	.L104
 818:Drivers/STM32F0xx_HAL_Driver/Src/stm32f0xx_ll_usb.c ****   }
 819:Drivers/STM32F0xx_HAL_Driver/Src/stm32f0xx_ll_usb.c **** }
 2347              		.loc 1 819 1 is_stmt 0 view .LVU706
 2348              		@ sp needed
 2349 0026 10BD     		pop	{r4, pc}
ARM GAS  /var/folders/kr/g9ry2bg56g773797gdtkvvkw0000gn/T//cc7eQgtd.s 			page 60


 2350              		.cfi_endproc
 2351              	.LFE58:
 2353              		.section	.text.USB_EPStartXfer,"ax",%progbits
 2354              		.align	1
 2355              		.global	USB_EPStartXfer
 2356              		.syntax unified
 2357              		.code	16
 2358              		.thumb_func
 2360              	USB_EPStartXfer:
 2361              	.LVL244:
 2362              	.LFB47:
 375:Drivers/STM32F0xx_HAL_Driver/Src/stm32f0xx_ll_usb.c ****   uint32_t len;
 2363              		.loc 1 375 1 is_stmt 1 view -0
 2364              		.cfi_startproc
 2365              		@ args = 0, pretend = 0, frame = 0
 2366              		@ frame_needed = 0, uses_anonymous_args = 0
 375:Drivers/STM32F0xx_HAL_Driver/Src/stm32f0xx_ll_usb.c ****   uint32_t len;
 2367              		.loc 1 375 1 is_stmt 0 view .LVU708
 2368 0000 70B5     		push	{r4, r5, r6, lr}
 2369              	.LCFI6:
 2370              		.cfi_def_cfa_offset 16
 2371              		.cfi_offset 4, -16
 2372              		.cfi_offset 5, -12
 2373              		.cfi_offset 6, -8
 2374              		.cfi_offset 14, -4
 2375 0002 0500     		movs	r5, r0
 2376 0004 0C00     		movs	r4, r1
 376:Drivers/STM32F0xx_HAL_Driver/Src/stm32f0xx_ll_usb.c **** #if (USE_USB_DOUBLE_BUFFER == 1U)
 2377              		.loc 1 376 3 is_stmt 1 view .LVU709
 378:Drivers/STM32F0xx_HAL_Driver/Src/stm32f0xx_ll_usb.c ****   uint16_t wEPVal;
 2378              		.loc 1 378 3 view .LVU710
 379:Drivers/STM32F0xx_HAL_Driver/Src/stm32f0xx_ll_usb.c **** #endif /* (USE_USB_DOUBLE_BUFFER == 1U) */
 2379              		.loc 1 379 3 view .LVU711
 383:Drivers/STM32F0xx_HAL_Driver/Src/stm32f0xx_ll_usb.c ****   {
 2380              		.loc 1 383 3 view .LVU712
 383:Drivers/STM32F0xx_HAL_Driver/Src/stm32f0xx_ll_usb.c ****   {
 2381              		.loc 1 383 9 is_stmt 0 view .LVU713
 2382 0006 4A78     		ldrb	r2, [r1, #1]
 383:Drivers/STM32F0xx_HAL_Driver/Src/stm32f0xx_ll_usb.c ****   {
 2383              		.loc 1 383 6 view .LVU714
 2384 0008 012A     		cmp	r2, #1
 2385 000a 35D0     		beq	.L211
 519:Drivers/STM32F0xx_HAL_Driver/Src/stm32f0xx_ll_usb.c ****     {
 2386              		.loc 1 519 5 is_stmt 1 view .LVU715
 519:Drivers/STM32F0xx_HAL_Driver/Src/stm32f0xx_ll_usb.c ****     {
 2387              		.loc 1 519 11 is_stmt 0 view .LVU716
 2388 000c 0B7B     		ldrb	r3, [r1, #12]
 519:Drivers/STM32F0xx_HAL_Driver/Src/stm32f0xx_ll_usb.c ****     {
 2389              		.loc 1 519 8 view .LVU717
 2390 000e 002B     		cmp	r3, #0
 2391 0010 00D0     		beq	.LCB2448
 2392 0012 6DE2     		b	.L155	@long jump
 2393              	.LCB2448:
 522:Drivers/STM32F0xx_HAL_Driver/Src/stm32f0xx_ll_usb.c ****       {
 2394              		.loc 1 522 7 is_stmt 1 view .LVU718
 522:Drivers/STM32F0xx_HAL_Driver/Src/stm32f0xx_ll_usb.c ****       {
 2395              		.loc 1 522 13 is_stmt 0 view .LVU719
ARM GAS  /var/folders/kr/g9ry2bg56g773797gdtkvvkw0000gn/T//cc7eQgtd.s 			page 61


 2396 0014 8B69     		ldr	r3, [r1, #24]
 522:Drivers/STM32F0xx_HAL_Driver/Src/stm32f0xx_ll_usb.c ****       {
 2397              		.loc 1 522 28 view .LVU720
 2398 0016 0969     		ldr	r1, [r1, #16]
 2399              	.LVL245:
 522:Drivers/STM32F0xx_HAL_Driver/Src/stm32f0xx_ll_usb.c ****       {
 2400              		.loc 1 522 10 view .LVU721
 2401 0018 8B42     		cmp	r3, r1
 2402 001a 00D8     		bhi	.LCB2454
 2403 001c 52E2     		b	.L156	@long jump
 2404              	.LCB2454:
 524:Drivers/STM32F0xx_HAL_Driver/Src/stm32f0xx_ll_usb.c ****         ep->xfer_len -= len;
 2405              		.loc 1 524 9 is_stmt 1 view .LVU722
 2406              	.LVL246:
 525:Drivers/STM32F0xx_HAL_Driver/Src/stm32f0xx_ll_usb.c ****       }
 2407              		.loc 1 525 9 view .LVU723
 525:Drivers/STM32F0xx_HAL_Driver/Src/stm32f0xx_ll_usb.c ****       }
 2408              		.loc 1 525 22 is_stmt 0 view .LVU724
 2409 001e 5B1A     		subs	r3, r3, r1
 2410 0020 A361     		str	r3, [r4, #24]
 2411              	.L157:
 533:Drivers/STM32F0xx_HAL_Driver/Src/stm32f0xx_ll_usb.c ****     }
 2412              		.loc 1 533 7 is_stmt 1 view .LVU725
 2413              	.LBB66:
 533:Drivers/STM32F0xx_HAL_Driver/Src/stm32f0xx_ll_usb.c ****     }
 2414              		.loc 1 533 7 view .LVU726
 2415              	.LVL247:
 533:Drivers/STM32F0xx_HAL_Driver/Src/stm32f0xx_ll_usb.c ****     }
 2416              		.loc 1 533 7 view .LVU727
 533:Drivers/STM32F0xx_HAL_Driver/Src/stm32f0xx_ll_usb.c ****     }
 2417              		.loc 1 533 7 view .LVU728
 2418 0022 5023     		movs	r3, #80
 2419 0024 EA5A     		ldrh	r2, [r5, r3]
 2420 0026 AA18     		adds	r2, r5, r2
 2421              	.LVL248:
 533:Drivers/STM32F0xx_HAL_Driver/Src/stm32f0xx_ll_usb.c ****     }
 2422              		.loc 1 533 7 view .LVU729
 2423 0028 2378     		ldrb	r3, [r4]
 2424 002a DB00     		lsls	r3, r3, #3
 2425 002c 9B18     		adds	r3, r3, r2
 2426 002e AB4A     		ldr	r2, .L220
 2427              	.LVL249:
 533:Drivers/STM32F0xx_HAL_Driver/Src/stm32f0xx_ll_usb.c ****     }
 2428              		.loc 1 533 7 is_stmt 0 view .LVU730
 2429 0030 9446     		mov	ip, r2
 2430 0032 6344     		add	r3, r3, ip
 2431              	.LVL250:
 533:Drivers/STM32F0xx_HAL_Driver/Src/stm32f0xx_ll_usb.c ****     }
 2432              		.loc 1 533 7 is_stmt 1 view .LVU731
 2433              	.LBB67:
 533:Drivers/STM32F0xx_HAL_Driver/Src/stm32f0xx_ll_usb.c ****     }
 2434              		.loc 1 533 7 view .LVU732
 533:Drivers/STM32F0xx_HAL_Driver/Src/stm32f0xx_ll_usb.c ****     }
 2435              		.loc 1 533 7 view .LVU733
 2436 0034 1A88     		ldrh	r2, [r3]
 2437 0036 9205     		lsls	r2, r2, #22
 2438 0038 920D     		lsrs	r2, r2, #22
ARM GAS  /var/folders/kr/g9ry2bg56g773797gdtkvvkw0000gn/T//cc7eQgtd.s 			page 62


 2439 003a 1A80     		strh	r2, [r3]
 533:Drivers/STM32F0xx_HAL_Driver/Src/stm32f0xx_ll_usb.c ****     }
 2440              		.loc 1 533 7 view .LVU734
 2441 003c 3E29     		cmp	r1, #62
 2442 003e 00D8     		bhi	.LCB2496
 2443 0040 44E2     		b	.L158	@long jump
 2444              	.LCB2496:
 533:Drivers/STM32F0xx_HAL_Driver/Src/stm32f0xx_ll_usb.c ****     }
 2445              		.loc 1 533 7 discriminator 1 view .LVU735
 533:Drivers/STM32F0xx_HAL_Driver/Src/stm32f0xx_ll_usb.c ****     }
 2446              		.loc 1 533 7 discriminator 1 view .LVU736
 2447 0042 4A09     		lsrs	r2, r1, #5
 2448              	.LVL251:
 533:Drivers/STM32F0xx_HAL_Driver/Src/stm32f0xx_ll_usb.c ****     }
 2449              		.loc 1 533 7 discriminator 1 view .LVU737
 2450 0044 C906     		lsls	r1, r1, #27
 2451 0046 00D1     		bne	.L159
 2452              	.LVL252:
 533:Drivers/STM32F0xx_HAL_Driver/Src/stm32f0xx_ll_usb.c ****     }
 2453              		.loc 1 533 7 discriminator 3 view .LVU738
 2454 0048 013A     		subs	r2, r2, #1
 2455              	.LVL253:
 2456              	.L159:
 533:Drivers/STM32F0xx_HAL_Driver/Src/stm32f0xx_ll_usb.c ****     }
 2457              		.loc 1 533 7 discriminator 5 view .LVU739
 2458 004a 1988     		ldrh	r1, [r3]
 2459 004c 9202     		lsls	r2, r2, #10
 2460              	.LVL254:
 533:Drivers/STM32F0xx_HAL_Driver/Src/stm32f0xx_ll_usb.c ****     }
 2461              		.loc 1 533 7 is_stmt 0 discriminator 5 view .LVU740
 2462 004e 92B2     		uxth	r2, r2
 2463 0050 1143     		orrs	r1, r2
 2464 0052 A34A     		ldr	r2, .L220+4
 2465 0054 0A43     		orrs	r2, r1
 2466 0056 92B2     		uxth	r2, r2
 2467 0058 1A80     		strh	r2, [r3]
 533:Drivers/STM32F0xx_HAL_Driver/Src/stm32f0xx_ll_usb.c ****     }
 2468              		.loc 1 533 7 is_stmt 1 discriminator 5 view .LVU741
 2469              	.LVL255:
 2470              	.L160:
 533:Drivers/STM32F0xx_HAL_Driver/Src/stm32f0xx_ll_usb.c ****     }
 2471              		.loc 1 533 7 is_stmt 0 discriminator 5 view .LVU742
 2472              	.LBE67:
 2473              	.LBE66:
 581:Drivers/STM32F0xx_HAL_Driver/Src/stm32f0xx_ll_usb.c ****   }
 2474              		.loc 1 581 5 is_stmt 1 view .LVU743
 2475              	.LBB69:
 581:Drivers/STM32F0xx_HAL_Driver/Src/stm32f0xx_ll_usb.c ****   }
 2476              		.loc 1 581 5 view .LVU744
 581:Drivers/STM32F0xx_HAL_Driver/Src/stm32f0xx_ll_usb.c ****   }
 2477              		.loc 1 581 5 view .LVU745
 2478 005a 2378     		ldrb	r3, [r4]
 2479 005c 9B00     		lsls	r3, r3, #2
 2480 005e ED18     		adds	r5, r5, r3
 2481              	.LVL256:
 581:Drivers/STM32F0xx_HAL_Driver/Src/stm32f0xx_ll_usb.c ****   }
 2482              		.loc 1 581 5 is_stmt 0 view .LVU746
ARM GAS  /var/folders/kr/g9ry2bg56g773797gdtkvvkw0000gn/T//cc7eQgtd.s 			page 63


 2483 0060 2B88     		ldrh	r3, [r5]
 2484 0062 A04A     		ldr	r2, .L220+8
 2485 0064 1340     		ands	r3, r2
 2486              	.LVL257:
 581:Drivers/STM32F0xx_HAL_Driver/Src/stm32f0xx_ll_usb.c ****   }
 2487              		.loc 1 581 5 is_stmt 1 view .LVU747
 581:Drivers/STM32F0xx_HAL_Driver/Src/stm32f0xx_ll_usb.c ****   }
 2488              		.loc 1 581 5 discriminator 1 view .LVU748
 581:Drivers/STM32F0xx_HAL_Driver/Src/stm32f0xx_ll_usb.c ****   }
 2489              		.loc 1 581 5 discriminator 3 view .LVU749
 581:Drivers/STM32F0xx_HAL_Driver/Src/stm32f0xx_ll_usb.c ****   }
 2490              		.loc 1 581 5 discriminator 4 view .LVU750
 2491 0066 C022     		movs	r2, #192
 2492 0068 9201     		lsls	r2, r2, #6
 2493 006a 5A40     		eors	r2, r3
 2494              	.LVL258:
 581:Drivers/STM32F0xx_HAL_Driver/Src/stm32f0xx_ll_usb.c ****   }
 2495              		.loc 1 581 5 discriminator 6 view .LVU751
 2496 006c 9E4B     		ldr	r3, .L220+12
 2497 006e 1343     		orrs	r3, r2
 2498 0070 9BB2     		uxth	r3, r3
 2499 0072 2B80     		strh	r3, [r5]
 2500              	.LBE69:
 584:Drivers/STM32F0xx_HAL_Driver/Src/stm32f0xx_ll_usb.c **** }
 2501              		.loc 1 584 10 is_stmt 0 view .LVU752
 2502 0074 0020     		movs	r0, #0
 2503              	.LVL259:
 2504              	.L154:
 585:Drivers/STM32F0xx_HAL_Driver/Src/stm32f0xx_ll_usb.c **** 
 2505              		.loc 1 585 1 view .LVU753
 2506              		@ sp needed
 2507              	.LVL260:
 585:Drivers/STM32F0xx_HAL_Driver/Src/stm32f0xx_ll_usb.c **** 
 2508              		.loc 1 585 1 view .LVU754
 2509 0076 70BD     		pop	{r4, r5, r6, pc}
 2510              	.LVL261:
 2511              	.L211:
 386:Drivers/STM32F0xx_HAL_Driver/Src/stm32f0xx_ll_usb.c ****     {
 2512              		.loc 1 386 5 is_stmt 1 view .LVU755
 386:Drivers/STM32F0xx_HAL_Driver/Src/stm32f0xx_ll_usb.c ****     {
 2513              		.loc 1 386 11 is_stmt 0 view .LVU756
 2514 0078 8E69     		ldr	r6, [r1, #24]
 386:Drivers/STM32F0xx_HAL_Driver/Src/stm32f0xx_ll_usb.c ****     {
 2515              		.loc 1 386 26 view .LVU757
 2516 007a 0969     		ldr	r1, [r1, #16]
 2517              	.LVL262:
 386:Drivers/STM32F0xx_HAL_Driver/Src/stm32f0xx_ll_usb.c ****     {
 2518              		.loc 1 386 8 view .LVU758
 2519 007c 8E42     		cmp	r6, r1
 2520 007e 00D9     		bls	.L107
 388:Drivers/STM32F0xx_HAL_Driver/Src/stm32f0xx_ll_usb.c ****     }
 2521              		.loc 1 388 11 view .LVU759
 2522 0080 0E00     		movs	r6, r1
 2523              	.L107:
 2524              	.LVL263:
 396:Drivers/STM32F0xx_HAL_Driver/Src/stm32f0xx_ll_usb.c ****     {
 2525              		.loc 1 396 5 is_stmt 1 view .LVU760
ARM GAS  /var/folders/kr/g9ry2bg56g773797gdtkvvkw0000gn/T//cc7eQgtd.s 			page 64


 396:Drivers/STM32F0xx_HAL_Driver/Src/stm32f0xx_ll_usb.c ****     {
 2526              		.loc 1 396 11 is_stmt 0 view .LVU761
 2527 0082 237B     		ldrb	r3, [r4, #12]
 396:Drivers/STM32F0xx_HAL_Driver/Src/stm32f0xx_ll_usb.c ****     {
 2528              		.loc 1 396 8 view .LVU762
 2529 0084 002B     		cmp	r3, #0
 2530 0086 2BD0     		beq	.L212
 405:Drivers/STM32F0xx_HAL_Driver/Src/stm32f0xx_ll_usb.c ****       {
 2531              		.loc 1 405 7 is_stmt 1 view .LVU763
 405:Drivers/STM32F0xx_HAL_Driver/Src/stm32f0xx_ll_usb.c ****       {
 2532              		.loc 1 405 13 is_stmt 0 view .LVU764
 2533 0088 E378     		ldrb	r3, [r4, #3]
 405:Drivers/STM32F0xx_HAL_Driver/Src/stm32f0xx_ll_usb.c ****       {
 2534              		.loc 1 405 10 view .LVU765
 2535 008a 022B     		cmp	r3, #2
 2536 008c 48D0     		beq	.L213
 490:Drivers/STM32F0xx_HAL_Driver/Src/stm32f0xx_ll_usb.c **** 
 2537              		.loc 1 490 9 is_stmt 1 view .LVU766
 490:Drivers/STM32F0xx_HAL_Driver/Src/stm32f0xx_ll_usb.c **** 
 2538              		.loc 1 490 11 is_stmt 0 view .LVU767
 2539 008e 236A     		ldr	r3, [r4, #32]
 490:Drivers/STM32F0xx_HAL_Driver/Src/stm32f0xx_ll_usb.c **** 
 2540              		.loc 1 490 25 view .LVU768
 2541 0090 9B1B     		subs	r3, r3, r6
 2542 0092 2362     		str	r3, [r4, #32]
 493:Drivers/STM32F0xx_HAL_Driver/Src/stm32f0xx_ll_usb.c ****         {
 2543              		.loc 1 493 9 is_stmt 1 view .LVU769
 493:Drivers/STM32F0xx_HAL_Driver/Src/stm32f0xx_ll_usb.c ****         {
 2544              		.loc 1 493 14 is_stmt 0 view .LVU770
 2545 0094 2378     		ldrb	r3, [r4]
 2546 0096 9900     		lsls	r1, r3, #2
 2547 0098 6918     		adds	r1, r5, r1
 2548 009a 0988     		ldrh	r1, [r1]
 493:Drivers/STM32F0xx_HAL_Driver/Src/stm32f0xx_ll_usb.c ****         {
 2549              		.loc 1 493 12 view .LVU771
 2550 009c 4906     		lsls	r1, r1, #25
 2551 009e 00D4     		bmi	.LCB2619
 2552 00a0 D0E1     		b	.L141	@long jump
 2553              	.LCB2619:
 496:Drivers/STM32F0xx_HAL_Driver/Src/stm32f0xx_ll_usb.c ****           pmabuffer = ep->pmaaddr1;
 2554              		.loc 1 496 11 is_stmt 1 view .LVU772
 2555              	.LBB70:
 496:Drivers/STM32F0xx_HAL_Driver/Src/stm32f0xx_ll_usb.c ****           pmabuffer = ep->pmaaddr1;
 2556              		.loc 1 496 11 view .LVU773
 2557              	.LVL264:
 496:Drivers/STM32F0xx_HAL_Driver/Src/stm32f0xx_ll_usb.c ****           pmabuffer = ep->pmaaddr1;
 2558              		.loc 1 496 11 view .LVU774
 496:Drivers/STM32F0xx_HAL_Driver/Src/stm32f0xx_ll_usb.c ****           pmabuffer = ep->pmaaddr1;
 2559              		.loc 1 496 11 view .LVU775
 2560 00a2 002A     		cmp	r2, #0
 2561 00a4 00D0     		beq	.LCB2627
 2562 00a6 BCE1     		b	.L142	@long jump
 2563              	.LCB2627:
 496:Drivers/STM32F0xx_HAL_Driver/Src/stm32f0xx_ll_usb.c ****           pmabuffer = ep->pmaaddr1;
 2564              		.loc 1 496 11 discriminator 1 view .LVU776
 2565              	.LBB71:
 496:Drivers/STM32F0xx_HAL_Driver/Src/stm32f0xx_ll_usb.c ****           pmabuffer = ep->pmaaddr1;
ARM GAS  /var/folders/kr/g9ry2bg56g773797gdtkvvkw0000gn/T//cc7eQgtd.s 			page 65


 2566              		.loc 1 496 11 discriminator 1 view .LVU777
 2567              	.LVL265:
 496:Drivers/STM32F0xx_HAL_Driver/Src/stm32f0xx_ll_usb.c ****           pmabuffer = ep->pmaaddr1;
 2568              		.loc 1 496 11 discriminator 1 view .LVU778
 496:Drivers/STM32F0xx_HAL_Driver/Src/stm32f0xx_ll_usb.c ****           pmabuffer = ep->pmaaddr1;
 2569              		.loc 1 496 11 discriminator 1 view .LVU779
 2570 00a8 5032     		adds	r2, r2, #80
 2571 00aa AA5A     		ldrh	r2, [r5, r2]
 2572 00ac AA18     		adds	r2, r5, r2
 2573              	.LVL266:
 496:Drivers/STM32F0xx_HAL_Driver/Src/stm32f0xx_ll_usb.c ****           pmabuffer = ep->pmaaddr1;
 2574              		.loc 1 496 11 discriminator 1 view .LVU780
 2575 00ae DB00     		lsls	r3, r3, #3
 2576 00b0 9B18     		adds	r3, r3, r2
 2577 00b2 8A4A     		ldr	r2, .L220
 2578              	.LVL267:
 496:Drivers/STM32F0xx_HAL_Driver/Src/stm32f0xx_ll_usb.c ****           pmabuffer = ep->pmaaddr1;
 2579              		.loc 1 496 11 is_stmt 0 discriminator 1 view .LVU781
 2580 00b4 9446     		mov	ip, r2
 2581 00b6 6344     		add	r3, r3, ip
 2582              	.LVL268:
 496:Drivers/STM32F0xx_HAL_Driver/Src/stm32f0xx_ll_usb.c ****           pmabuffer = ep->pmaaddr1;
 2583              		.loc 1 496 11 is_stmt 1 discriminator 1 view .LVU782
 2584              	.LBB72:
 496:Drivers/STM32F0xx_HAL_Driver/Src/stm32f0xx_ll_usb.c ****           pmabuffer = ep->pmaaddr1;
 2585              		.loc 1 496 11 discriminator 1 view .LVU783
 496:Drivers/STM32F0xx_HAL_Driver/Src/stm32f0xx_ll_usb.c ****           pmabuffer = ep->pmaaddr1;
 2586              		.loc 1 496 11 discriminator 1 view .LVU784
 2587 00b8 1A88     		ldrh	r2, [r3]
 2588 00ba 9205     		lsls	r2, r2, #22
 2589 00bc 920D     		lsrs	r2, r2, #22
 2590 00be 1A80     		strh	r2, [r3]
 496:Drivers/STM32F0xx_HAL_Driver/Src/stm32f0xx_ll_usb.c ****           pmabuffer = ep->pmaaddr1;
 2591              		.loc 1 496 11 discriminator 1 view .LVU785
 2592 00c0 3E2E     		cmp	r6, #62
 2593 00c2 00D8     		bhi	.LCB2659
 2594 00c4 9BE1     		b	.L143	@long jump
 2595              	.LCB2659:
 496:Drivers/STM32F0xx_HAL_Driver/Src/stm32f0xx_ll_usb.c ****           pmabuffer = ep->pmaaddr1;
 2596              		.loc 1 496 11 discriminator 3 view .LVU786
 496:Drivers/STM32F0xx_HAL_Driver/Src/stm32f0xx_ll_usb.c ****           pmabuffer = ep->pmaaddr1;
 2597              		.loc 1 496 11 discriminator 3 view .LVU787
 2598 00c6 7209     		lsrs	r2, r6, #5
 2599              	.LVL269:
 496:Drivers/STM32F0xx_HAL_Driver/Src/stm32f0xx_ll_usb.c ****           pmabuffer = ep->pmaaddr1;
 2600              		.loc 1 496 11 discriminator 3 view .LVU788
 2601 00c8 F106     		lsls	r1, r6, #27
 2602 00ca 00D1     		bne	.L144
 496:Drivers/STM32F0xx_HAL_Driver/Src/stm32f0xx_ll_usb.c ****           pmabuffer = ep->pmaaddr1;
 2603              		.loc 1 496 11 discriminator 5 view .LVU789
 2604 00cc 013A     		subs	r2, r2, #1
 2605              	.LVL270:
 2606              	.L144:
 496:Drivers/STM32F0xx_HAL_Driver/Src/stm32f0xx_ll_usb.c ****           pmabuffer = ep->pmaaddr1;
 2607              		.loc 1 496 11 discriminator 7 view .LVU790
 2608 00ce 1988     		ldrh	r1, [r3]
 2609 00d0 9202     		lsls	r2, r2, #10
ARM GAS  /var/folders/kr/g9ry2bg56g773797gdtkvvkw0000gn/T//cc7eQgtd.s 			page 66


 2610              	.LVL271:
 496:Drivers/STM32F0xx_HAL_Driver/Src/stm32f0xx_ll_usb.c ****           pmabuffer = ep->pmaaddr1;
 2611              		.loc 1 496 11 is_stmt 0 discriminator 7 view .LVU791
 2612 00d2 92B2     		uxth	r2, r2
 2613 00d4 1143     		orrs	r1, r2
 2614 00d6 824A     		ldr	r2, .L220+4
 2615 00d8 0A43     		orrs	r2, r1
 2616 00da 92B2     		uxth	r2, r2
 2617 00dc 1A80     		strh	r2, [r3]
 496:Drivers/STM32F0xx_HAL_Driver/Src/stm32f0xx_ll_usb.c ****           pmabuffer = ep->pmaaddr1;
 2618              		.loc 1 496 11 is_stmt 1 discriminator 7 view .LVU792
 2619 00de AAE1     		b	.L145
 2620              	.LVL272:
 2621              	.L212:
 496:Drivers/STM32F0xx_HAL_Driver/Src/stm32f0xx_ll_usb.c ****           pmabuffer = ep->pmaaddr1;
 2622              		.loc 1 496 11 is_stmt 0 discriminator 7 view .LVU793
 2623              	.LBE72:
 2624              	.LBE71:
 2625              	.LBE70:
 398:Drivers/STM32F0xx_HAL_Driver/Src/stm32f0xx_ll_usb.c ****       PCD_SET_EP_TX_CNT(USBx, ep->num, len);
 2626              		.loc 1 398 7 is_stmt 1 view .LVU794
 2627 00e0 B6B2     		uxth	r6, r6
 2628              	.LVL273:
 398:Drivers/STM32F0xx_HAL_Driver/Src/stm32f0xx_ll_usb.c ****       PCD_SET_EP_TX_CNT(USBx, ep->num, len);
 2629              		.loc 1 398 7 is_stmt 0 view .LVU795
 2630 00e2 E288     		ldrh	r2, [r4, #6]
 2631 00e4 6169     		ldr	r1, [r4, #20]
 2632 00e6 3300     		movs	r3, r6
 2633 00e8 2800     		movs	r0, r5
 2634              	.LVL274:
 398:Drivers/STM32F0xx_HAL_Driver/Src/stm32f0xx_ll_usb.c ****       PCD_SET_EP_TX_CNT(USBx, ep->num, len);
 2635              		.loc 1 398 7 view .LVU796
 2636 00ea FFF7FEFF 		bl	USB_WritePMA
 2637              	.LVL275:
 399:Drivers/STM32F0xx_HAL_Driver/Src/stm32f0xx_ll_usb.c ****     }
 2638              		.loc 1 399 7 is_stmt 1 view .LVU797
 2639              	.LBB75:
 399:Drivers/STM32F0xx_HAL_Driver/Src/stm32f0xx_ll_usb.c ****     }
 2640              		.loc 1 399 7 view .LVU798
 399:Drivers/STM32F0xx_HAL_Driver/Src/stm32f0xx_ll_usb.c ****     }
 2641              		.loc 1 399 7 view .LVU799
 399:Drivers/STM32F0xx_HAL_Driver/Src/stm32f0xx_ll_usb.c ****     }
 2642              		.loc 1 399 7 view .LVU800
 2643 00ee 5023     		movs	r3, #80
 2644 00f0 EA5A     		ldrh	r2, [r5, r3]
 2645 00f2 AA18     		adds	r2, r5, r2
 2646              	.LVL276:
 399:Drivers/STM32F0xx_HAL_Driver/Src/stm32f0xx_ll_usb.c ****     }
 2647              		.loc 1 399 7 view .LVU801
 2648 00f4 2378     		ldrb	r3, [r4]
 2649 00f6 DB00     		lsls	r3, r3, #3
 2650 00f8 9B18     		adds	r3, r3, r2
 2651 00fa 7C4A     		ldr	r2, .L220+16
 2652              	.LVL277:
 399:Drivers/STM32F0xx_HAL_Driver/Src/stm32f0xx_ll_usb.c ****     }
 2653              		.loc 1 399 7 is_stmt 0 view .LVU802
 2654 00fc 9446     		mov	ip, r2
ARM GAS  /var/folders/kr/g9ry2bg56g773797gdtkvvkw0000gn/T//cc7eQgtd.s 			page 67


 2655 00fe 6344     		add	r3, r3, ip
 2656              	.LVL278:
 399:Drivers/STM32F0xx_HAL_Driver/Src/stm32f0xx_ll_usb.c ****     }
 2657              		.loc 1 399 7 is_stmt 1 view .LVU803
 2658 0100 1E80     		strh	r6, [r3]
 2659              	.LBE75:
 399:Drivers/STM32F0xx_HAL_Driver/Src/stm32f0xx_ll_usb.c ****     }
 2660              		.loc 1 399 7 view .LVU804
 2661              	.LVL279:
 2662              	.L109:
 515:Drivers/STM32F0xx_HAL_Driver/Src/stm32f0xx_ll_usb.c ****   }
 2663              		.loc 1 515 5 view .LVU805
 2664              	.LBB76:
 515:Drivers/STM32F0xx_HAL_Driver/Src/stm32f0xx_ll_usb.c ****   }
 2665              		.loc 1 515 5 view .LVU806
 515:Drivers/STM32F0xx_HAL_Driver/Src/stm32f0xx_ll_usb.c ****   }
 2666              		.loc 1 515 5 view .LVU807
 2667 0102 2278     		ldrb	r2, [r4]
 2668 0104 9200     		lsls	r2, r2, #2
 2669 0106 AA18     		adds	r2, r5, r2
 2670 0108 1388     		ldrh	r3, [r2]
 2671 010a 7949     		ldr	r1, .L220+20
 2672 010c 0B40     		ands	r3, r1
 2673              	.LVL280:
 515:Drivers/STM32F0xx_HAL_Driver/Src/stm32f0xx_ll_usb.c ****   }
 2674              		.loc 1 515 5 view .LVU808
 515:Drivers/STM32F0xx_HAL_Driver/Src/stm32f0xx_ll_usb.c ****   }
 2675              		.loc 1 515 5 discriminator 1 view .LVU809
 515:Drivers/STM32F0xx_HAL_Driver/Src/stm32f0xx_ll_usb.c ****   }
 2676              		.loc 1 515 5 discriminator 3 view .LVU810
 515:Drivers/STM32F0xx_HAL_Driver/Src/stm32f0xx_ll_usb.c ****   }
 2677              		.loc 1 515 5 discriminator 4 view .LVU811
 2678 010e 3021     		movs	r1, #48
 2679 0110 4B40     		eors	r3, r1
 2680              	.LVL281:
 515:Drivers/STM32F0xx_HAL_Driver/Src/stm32f0xx_ll_usb.c ****   }
 2681              		.loc 1 515 5 is_stmt 0 discriminator 4 view .LVU812
 2682 0112 9BB2     		uxth	r3, r3
 2683              	.LVL282:
 515:Drivers/STM32F0xx_HAL_Driver/Src/stm32f0xx_ll_usb.c ****   }
 2684              		.loc 1 515 5 is_stmt 1 discriminator 6 view .LVU813
 2685 0114 7449     		ldr	r1, .L220+12
 2686 0116 0B43     		orrs	r3, r1
 2687              	.LVL283:
 515:Drivers/STM32F0xx_HAL_Driver/Src/stm32f0xx_ll_usb.c ****   }
 2688              		.loc 1 515 5 is_stmt 0 discriminator 6 view .LVU814
 2689 0118 9BB2     		uxth	r3, r3
 2690 011a 1380     		strh	r3, [r2]
 2691              	.LBE76:
 515:Drivers/STM32F0xx_HAL_Driver/Src/stm32f0xx_ll_usb.c ****   }
 2692              		.loc 1 515 5 is_stmt 1 discriminator 6 view .LVU815
 584:Drivers/STM32F0xx_HAL_Driver/Src/stm32f0xx_ll_usb.c **** }
 2693              		.loc 1 584 10 is_stmt 0 view .LVU816
 2694 011c 0020     		movs	r0, #0
 2695 011e AAE7     		b	.L154
 2696              	.LVL284:
 2697              	.L213:
ARM GAS  /var/folders/kr/g9ry2bg56g773797gdtkvvkw0000gn/T//cc7eQgtd.s 			page 68


 407:Drivers/STM32F0xx_HAL_Driver/Src/stm32f0xx_ll_usb.c ****         {
 2698              		.loc 1 407 9 is_stmt 1 view .LVU817
 407:Drivers/STM32F0xx_HAL_Driver/Src/stm32f0xx_ll_usb.c ****         {
 2699              		.loc 1 407 15 is_stmt 0 view .LVU818
 2700 0120 236A     		ldr	r3, [r4, #32]
 407:Drivers/STM32F0xx_HAL_Driver/Src/stm32f0xx_ll_usb.c ****         {
 2701              		.loc 1 407 12 view .LVU819
 2702 0122 9942     		cmp	r1, r3
 2703 0124 00D3     		bcc	.LCB2785
 2704 0126 4FE1     		b	.L111	@long jump
 2705              	.LCB2785:
 410:Drivers/STM32F0xx_HAL_Driver/Src/stm32f0xx_ll_usb.c **** 
 2706              		.loc 1 410 11 is_stmt 1 view .LVU820
 2707              	.LBB77:
 410:Drivers/STM32F0xx_HAL_Driver/Src/stm32f0xx_ll_usb.c **** 
 2708              		.loc 1 410 11 view .LVU821
 410:Drivers/STM32F0xx_HAL_Driver/Src/stm32f0xx_ll_usb.c **** 
 2709              		.loc 1 410 11 view .LVU822
 2710 0128 2378     		ldrb	r3, [r4]
 2711 012a 9B00     		lsls	r3, r3, #2
 2712 012c EB18     		adds	r3, r5, r3
 2713 012e 1988     		ldrh	r1, [r3]
 2714 0130 704A     		ldr	r2, .L220+24
 2715 0132 1140     		ands	r1, r2
 2716              	.LVL285:
 410:Drivers/STM32F0xx_HAL_Driver/Src/stm32f0xx_ll_usb.c **** 
 2717              		.loc 1 410 11 view .LVU823
 2718 0134 704A     		ldr	r2, .L220+28
 2719 0136 0A43     		orrs	r2, r1
 2720 0138 92B2     		uxth	r2, r2
 2721 013a 1A80     		strh	r2, [r3]
 2722              	.LBE77:
 410:Drivers/STM32F0xx_HAL_Driver/Src/stm32f0xx_ll_usb.c **** 
 2723              		.loc 1 410 11 view .LVU824
 413:Drivers/STM32F0xx_HAL_Driver/Src/stm32f0xx_ll_usb.c **** 
 2724              		.loc 1 413 11 view .LVU825
 413:Drivers/STM32F0xx_HAL_Driver/Src/stm32f0xx_ll_usb.c **** 
 2725              		.loc 1 413 13 is_stmt 0 view .LVU826
 2726 013c 236A     		ldr	r3, [r4, #32]
 413:Drivers/STM32F0xx_HAL_Driver/Src/stm32f0xx_ll_usb.c **** 
 2727              		.loc 1 413 27 view .LVU827
 2728 013e 9B1B     		subs	r3, r3, r6
 2729 0140 2362     		str	r3, [r4, #32]
 416:Drivers/STM32F0xx_HAL_Driver/Src/stm32f0xx_ll_usb.c ****           {
 2730              		.loc 1 416 11 is_stmt 1 view .LVU828
 416:Drivers/STM32F0xx_HAL_Driver/Src/stm32f0xx_ll_usb.c ****           {
 2731              		.loc 1 416 16 is_stmt 0 view .LVU829
 2732 0142 2378     		ldrb	r3, [r4]
 2733 0144 9A00     		lsls	r2, r3, #2
 2734 0146 AA18     		adds	r2, r5, r2
 2735 0148 1288     		ldrh	r2, [r2]
 416:Drivers/STM32F0xx_HAL_Driver/Src/stm32f0xx_ll_usb.c ****           {
 2736              		.loc 1 416 14 view .LVU830
 2737 014a 5206     		lsls	r2, r2, #25
 2738 014c 00D4     		bmi	.LCB2820
 2739 014e 95E0     		b	.L112	@long jump
 2740              	.LCB2820:
ARM GAS  /var/folders/kr/g9ry2bg56g773797gdtkvvkw0000gn/T//cc7eQgtd.s 			page 69


 419:Drivers/STM32F0xx_HAL_Driver/Src/stm32f0xx_ll_usb.c ****             pmabuffer = ep->pmaaddr1;
 2741              		.loc 1 419 13 is_stmt 1 view .LVU831
 2742              	.LBB78:
 419:Drivers/STM32F0xx_HAL_Driver/Src/stm32f0xx_ll_usb.c ****             pmabuffer = ep->pmaaddr1;
 2743              		.loc 1 419 13 view .LVU832
 2744              	.LVL286:
 419:Drivers/STM32F0xx_HAL_Driver/Src/stm32f0xx_ll_usb.c ****             pmabuffer = ep->pmaaddr1;
 2745              		.loc 1 419 13 view .LVU833
 419:Drivers/STM32F0xx_HAL_Driver/Src/stm32f0xx_ll_usb.c ****             pmabuffer = ep->pmaaddr1;
 2746              		.loc 1 419 13 view .LVU834
 2747 0150 6278     		ldrb	r2, [r4, #1]
 2748 0152 002A     		cmp	r2, #0
 2749 0154 2CD1     		bne	.L113
 419:Drivers/STM32F0xx_HAL_Driver/Src/stm32f0xx_ll_usb.c ****             pmabuffer = ep->pmaaddr1;
 2750              		.loc 1 419 13 discriminator 1 view .LVU835
 2751              	.LBB79:
 419:Drivers/STM32F0xx_HAL_Driver/Src/stm32f0xx_ll_usb.c ****             pmabuffer = ep->pmaaddr1;
 2752              		.loc 1 419 13 discriminator 1 view .LVU836
 2753              	.LVL287:
 419:Drivers/STM32F0xx_HAL_Driver/Src/stm32f0xx_ll_usb.c ****             pmabuffer = ep->pmaaddr1;
 2754              		.loc 1 419 13 discriminator 1 view .LVU837
 419:Drivers/STM32F0xx_HAL_Driver/Src/stm32f0xx_ll_usb.c ****             pmabuffer = ep->pmaaddr1;
 2755              		.loc 1 419 13 discriminator 1 view .LVU838
 2756 0156 5032     		adds	r2, r2, #80
 2757 0158 AA5A     		ldrh	r2, [r5, r2]
 2758 015a AA18     		adds	r2, r5, r2
 2759              	.LVL288:
 419:Drivers/STM32F0xx_HAL_Driver/Src/stm32f0xx_ll_usb.c ****             pmabuffer = ep->pmaaddr1;
 2760              		.loc 1 419 13 discriminator 1 view .LVU839
 2761 015c DB00     		lsls	r3, r3, #3
 2762 015e 9B18     		adds	r3, r3, r2
 2763 0160 5E4A     		ldr	r2, .L220
 2764              	.LVL289:
 419:Drivers/STM32F0xx_HAL_Driver/Src/stm32f0xx_ll_usb.c ****             pmabuffer = ep->pmaaddr1;
 2765              		.loc 1 419 13 is_stmt 0 discriminator 1 view .LVU840
 2766 0162 9446     		mov	ip, r2
 2767 0164 6344     		add	r3, r3, ip
 2768              	.LVL290:
 419:Drivers/STM32F0xx_HAL_Driver/Src/stm32f0xx_ll_usb.c ****             pmabuffer = ep->pmaaddr1;
 2769              		.loc 1 419 13 is_stmt 1 discriminator 1 view .LVU841
 2770              	.LBB80:
 419:Drivers/STM32F0xx_HAL_Driver/Src/stm32f0xx_ll_usb.c ****             pmabuffer = ep->pmaaddr1;
 2771              		.loc 1 419 13 discriminator 1 view .LVU842
 419:Drivers/STM32F0xx_HAL_Driver/Src/stm32f0xx_ll_usb.c ****             pmabuffer = ep->pmaaddr1;
 2772              		.loc 1 419 13 discriminator 1 view .LVU843
 2773 0166 1A88     		ldrh	r2, [r3]
 2774 0168 9205     		lsls	r2, r2, #22
 2775 016a 920D     		lsrs	r2, r2, #22
 2776 016c 1A80     		strh	r2, [r3]
 419:Drivers/STM32F0xx_HAL_Driver/Src/stm32f0xx_ll_usb.c ****             pmabuffer = ep->pmaaddr1;
 2777              		.loc 1 419 13 discriminator 1 view .LVU844
 2778 016e 3E2E     		cmp	r6, #62
 2779 0170 0CD9     		bls	.L114
 419:Drivers/STM32F0xx_HAL_Driver/Src/stm32f0xx_ll_usb.c ****             pmabuffer = ep->pmaaddr1;
 2780              		.loc 1 419 13 discriminator 3 view .LVU845
 419:Drivers/STM32F0xx_HAL_Driver/Src/stm32f0xx_ll_usb.c ****             pmabuffer = ep->pmaaddr1;
 2781              		.loc 1 419 13 discriminator 3 view .LVU846
ARM GAS  /var/folders/kr/g9ry2bg56g773797gdtkvvkw0000gn/T//cc7eQgtd.s 			page 70


 2782 0172 7209     		lsrs	r2, r6, #5
 2783              	.LVL291:
 419:Drivers/STM32F0xx_HAL_Driver/Src/stm32f0xx_ll_usb.c ****             pmabuffer = ep->pmaaddr1;
 2784              		.loc 1 419 13 discriminator 3 view .LVU847
 2785 0174 F106     		lsls	r1, r6, #27
 2786 0176 00D1     		bne	.L115
 2787              	.LVL292:
 419:Drivers/STM32F0xx_HAL_Driver/Src/stm32f0xx_ll_usb.c ****             pmabuffer = ep->pmaaddr1;
 2788              		.loc 1 419 13 discriminator 5 view .LVU848
 2789 0178 013A     		subs	r2, r2, #1
 2790              	.LVL293:
 2791              	.L115:
 419:Drivers/STM32F0xx_HAL_Driver/Src/stm32f0xx_ll_usb.c ****             pmabuffer = ep->pmaaddr1;
 2792              		.loc 1 419 13 discriminator 7 view .LVU849
 2793 017a 1988     		ldrh	r1, [r3]
 2794 017c 9202     		lsls	r2, r2, #10
 2795              	.LVL294:
 419:Drivers/STM32F0xx_HAL_Driver/Src/stm32f0xx_ll_usb.c ****             pmabuffer = ep->pmaaddr1;
 2796              		.loc 1 419 13 is_stmt 0 discriminator 7 view .LVU850
 2797 017e 92B2     		uxth	r2, r2
 2798 0180 1143     		orrs	r1, r2
 2799 0182 574A     		ldr	r2, .L220+4
 2800 0184 0A43     		orrs	r2, r1
 2801 0186 92B2     		uxth	r2, r2
 2802 0188 1A80     		strh	r2, [r3]
 419:Drivers/STM32F0xx_HAL_Driver/Src/stm32f0xx_ll_usb.c ****             pmabuffer = ep->pmaaddr1;
 2803              		.loc 1 419 13 is_stmt 1 discriminator 7 view .LVU851
 2804 018a 13E0     		b	.L116
 2805              	.LVL295:
 2806              	.L114:
 419:Drivers/STM32F0xx_HAL_Driver/Src/stm32f0xx_ll_usb.c ****             pmabuffer = ep->pmaaddr1;
 2807              		.loc 1 419 13 discriminator 4 view .LVU852
 2808 018c 002E     		cmp	r6, #0
 2809 018e 05D1     		bne	.L117
 419:Drivers/STM32F0xx_HAL_Driver/Src/stm32f0xx_ll_usb.c ****             pmabuffer = ep->pmaaddr1;
 2810              		.loc 1 419 13 discriminator 9 view .LVU853
 2811 0190 1A88     		ldrh	r2, [r3]
 2812 0192 5349     		ldr	r1, .L220+4
 2813              	.LVL296:
 419:Drivers/STM32F0xx_HAL_Driver/Src/stm32f0xx_ll_usb.c ****             pmabuffer = ep->pmaaddr1;
 2814              		.loc 1 419 13 is_stmt 0 discriminator 9 view .LVU854
 2815 0194 0A43     		orrs	r2, r1
 2816 0196 92B2     		uxth	r2, r2
 2817 0198 1A80     		strh	r2, [r3]
 2818 019a 0BE0     		b	.L116
 2819              	.LVL297:
 2820              	.L117:
 419:Drivers/STM32F0xx_HAL_Driver/Src/stm32f0xx_ll_usb.c ****             pmabuffer = ep->pmaaddr1;
 2821              		.loc 1 419 13 is_stmt 1 discriminator 10 view .LVU855
 419:Drivers/STM32F0xx_HAL_Driver/Src/stm32f0xx_ll_usb.c ****             pmabuffer = ep->pmaaddr1;
 2822              		.loc 1 419 13 discriminator 10 view .LVU856
 2823 019c 7208     		lsrs	r2, r6, #1
 2824              	.LVL298:
 419:Drivers/STM32F0xx_HAL_Driver/Src/stm32f0xx_ll_usb.c ****             pmabuffer = ep->pmaaddr1;
 2825              		.loc 1 419 13 discriminator 10 view .LVU857
 2826 019e F107     		lsls	r1, r6, #31
 2827 01a0 00D5     		bpl	.L118
ARM GAS  /var/folders/kr/g9ry2bg56g773797gdtkvvkw0000gn/T//cc7eQgtd.s 			page 71


 2828              	.LVL299:
 419:Drivers/STM32F0xx_HAL_Driver/Src/stm32f0xx_ll_usb.c ****             pmabuffer = ep->pmaaddr1;
 2829              		.loc 1 419 13 discriminator 12 view .LVU858
 2830 01a2 0132     		adds	r2, r2, #1
 2831              	.LVL300:
 2832              	.L118:
 419:Drivers/STM32F0xx_HAL_Driver/Src/stm32f0xx_ll_usb.c ****             pmabuffer = ep->pmaaddr1;
 2833              		.loc 1 419 13 discriminator 14 view .LVU859
 2834 01a4 1988     		ldrh	r1, [r3]
 2835 01a6 9202     		lsls	r2, r2, #10
 2836              	.LVL301:
 419:Drivers/STM32F0xx_HAL_Driver/Src/stm32f0xx_ll_usb.c ****             pmabuffer = ep->pmaaddr1;
 2837              		.loc 1 419 13 is_stmt 0 discriminator 14 view .LVU860
 2838 01a8 92B2     		uxth	r2, r2
 2839 01aa 0A43     		orrs	r2, r1
 2840 01ac 1A80     		strh	r2, [r3]
 2841 01ae 01E0     		b	.L116
 2842              	.LVL302:
 2843              	.L113:
 419:Drivers/STM32F0xx_HAL_Driver/Src/stm32f0xx_ll_usb.c ****             pmabuffer = ep->pmaaddr1;
 2844              		.loc 1 419 13 discriminator 14 view .LVU861
 2845              	.LBE80:
 2846              	.LBE79:
 419:Drivers/STM32F0xx_HAL_Driver/Src/stm32f0xx_ll_usb.c ****             pmabuffer = ep->pmaaddr1;
 2847              		.loc 1 419 13 is_stmt 1 discriminator 2 view .LVU862
 2848 01b0 012A     		cmp	r2, #1
 2849 01b2 2DD0     		beq	.L214
 2850              	.LVL303:
 2851              	.L116:
 419:Drivers/STM32F0xx_HAL_Driver/Src/stm32f0xx_ll_usb.c ****             pmabuffer = ep->pmaaddr1;
 2852              		.loc 1 419 13 is_stmt 0 discriminator 2 view .LVU863
 2853              	.LBE78:
 419:Drivers/STM32F0xx_HAL_Driver/Src/stm32f0xx_ll_usb.c ****             pmabuffer = ep->pmaaddr1;
 2854              		.loc 1 419 13 is_stmt 1 discriminator 18 view .LVU864
 420:Drivers/STM32F0xx_HAL_Driver/Src/stm32f0xx_ll_usb.c **** 
 2855              		.loc 1 420 13 view .LVU865
 420:Drivers/STM32F0xx_HAL_Driver/Src/stm32f0xx_ll_usb.c **** 
 2856              		.loc 1 420 23 is_stmt 0 view .LVU866
 2857 01b4 6289     		ldrh	r2, [r4, #10]
 2858              	.LVL304:
 423:Drivers/STM32F0xx_HAL_Driver/Src/stm32f0xx_ll_usb.c ****             ep->xfer_buff += len;
 2859              		.loc 1 423 13 is_stmt 1 view .LVU867
 2860 01b6 B3B2     		uxth	r3, r6
 2861 01b8 6169     		ldr	r1, [r4, #20]
 2862 01ba 2800     		movs	r0, r5
 2863              	.LVL305:
 423:Drivers/STM32F0xx_HAL_Driver/Src/stm32f0xx_ll_usb.c ****             ep->xfer_buff += len;
 2864              		.loc 1 423 13 is_stmt 0 view .LVU868
 2865 01bc FFF7FEFF 		bl	USB_WritePMA
 2866              	.LVL306:
 424:Drivers/STM32F0xx_HAL_Driver/Src/stm32f0xx_ll_usb.c **** 
 2867              		.loc 1 424 13 is_stmt 1 view .LVU869
 424:Drivers/STM32F0xx_HAL_Driver/Src/stm32f0xx_ll_usb.c **** 
 2868              		.loc 1 424 15 is_stmt 0 view .LVU870
 2869 01c0 6369     		ldr	r3, [r4, #20]
 424:Drivers/STM32F0xx_HAL_Driver/Src/stm32f0xx_ll_usb.c **** 
 2870              		.loc 1 424 27 view .LVU871
ARM GAS  /var/folders/kr/g9ry2bg56g773797gdtkvvkw0000gn/T//cc7eQgtd.s 			page 72


 2871 01c2 9B19     		adds	r3, r3, r6
 2872 01c4 6361     		str	r3, [r4, #20]
 426:Drivers/STM32F0xx_HAL_Driver/Src/stm32f0xx_ll_usb.c ****             {
 2873              		.loc 1 426 13 is_stmt 1 view .LVU872
 426:Drivers/STM32F0xx_HAL_Driver/Src/stm32f0xx_ll_usb.c ****             {
 2874              		.loc 1 426 19 is_stmt 0 view .LVU873
 2875 01c6 236A     		ldr	r3, [r4, #32]
 426:Drivers/STM32F0xx_HAL_Driver/Src/stm32f0xx_ll_usb.c ****             {
 2876              		.loc 1 426 37 view .LVU874
 2877 01c8 2269     		ldr	r2, [r4, #16]
 426:Drivers/STM32F0xx_HAL_Driver/Src/stm32f0xx_ll_usb.c ****             {
 2878              		.loc 1 426 16 view .LVU875
 2879 01ca 9342     		cmp	r3, r2
 2880 01cc 2BD9     		bls	.L119
 428:Drivers/STM32F0xx_HAL_Driver/Src/stm32f0xx_ll_usb.c ****             }
 2881              		.loc 1 428 15 is_stmt 1 view .LVU876
 428:Drivers/STM32F0xx_HAL_Driver/Src/stm32f0xx_ll_usb.c ****             }
 2882              		.loc 1 428 31 is_stmt 0 view .LVU877
 2883 01ce 9B1B     		subs	r3, r3, r6
 2884 01d0 2362     		str	r3, [r4, #32]
 2885              	.L120:
 437:Drivers/STM32F0xx_HAL_Driver/Src/stm32f0xx_ll_usb.c ****             pmabuffer = ep->pmaaddr0;
 2886              		.loc 1 437 13 is_stmt 1 view .LVU878
 437:Drivers/STM32F0xx_HAL_Driver/Src/stm32f0xx_ll_usb.c ****             pmabuffer = ep->pmaaddr0;
 2887              		.loc 1 437 13 view .LVU879
 2888 01d2 6378     		ldrb	r3, [r4, #1]
 2889 01d4 002B     		cmp	r3, #0
 2890 01d6 3CD1     		bne	.L121
 437:Drivers/STM32F0xx_HAL_Driver/Src/stm32f0xx_ll_usb.c ****             pmabuffer = ep->pmaaddr0;
 2891              		.loc 1 437 13 discriminator 1 view .LVU880
 2892              	.LBB81:
 437:Drivers/STM32F0xx_HAL_Driver/Src/stm32f0xx_ll_usb.c ****             pmabuffer = ep->pmaaddr0;
 2893              		.loc 1 437 13 discriminator 1 view .LVU881
 2894              	.LVL307:
 437:Drivers/STM32F0xx_HAL_Driver/Src/stm32f0xx_ll_usb.c ****             pmabuffer = ep->pmaaddr0;
 2895              		.loc 1 437 13 discriminator 1 view .LVU882
 437:Drivers/STM32F0xx_HAL_Driver/Src/stm32f0xx_ll_usb.c ****             pmabuffer = ep->pmaaddr0;
 2896              		.loc 1 437 13 discriminator 1 view .LVU883
 2897 01d8 5033     		adds	r3, r3, #80
 2898 01da EA5A     		ldrh	r2, [r5, r3]
 2899 01dc AA18     		adds	r2, r5, r2
 2900              	.LVL308:
 437:Drivers/STM32F0xx_HAL_Driver/Src/stm32f0xx_ll_usb.c ****             pmabuffer = ep->pmaaddr0;
 2901              		.loc 1 437 13 discriminator 1 view .LVU884
 2902 01de 2378     		ldrb	r3, [r4]
 2903 01e0 DB00     		lsls	r3, r3, #3
 2904 01e2 9B18     		adds	r3, r3, r2
 2905 01e4 414A     		ldr	r2, .L220+16
 2906              	.LVL309:
 437:Drivers/STM32F0xx_HAL_Driver/Src/stm32f0xx_ll_usb.c ****             pmabuffer = ep->pmaaddr0;
 2907              		.loc 1 437 13 is_stmt 0 discriminator 1 view .LVU885
 2908 01e6 9446     		mov	ip, r2
 2909 01e8 6344     		add	r3, r3, ip
 2910              	.LVL310:
 437:Drivers/STM32F0xx_HAL_Driver/Src/stm32f0xx_ll_usb.c ****             pmabuffer = ep->pmaaddr0;
 2911              		.loc 1 437 13 is_stmt 1 discriminator 1 view .LVU886
 2912              	.LBB82:
ARM GAS  /var/folders/kr/g9ry2bg56g773797gdtkvvkw0000gn/T//cc7eQgtd.s 			page 73


 437:Drivers/STM32F0xx_HAL_Driver/Src/stm32f0xx_ll_usb.c ****             pmabuffer = ep->pmaaddr0;
 2913              		.loc 1 437 13 discriminator 1 view .LVU887
 437:Drivers/STM32F0xx_HAL_Driver/Src/stm32f0xx_ll_usb.c ****             pmabuffer = ep->pmaaddr0;
 2914              		.loc 1 437 13 discriminator 1 view .LVU888
 2915 01ea 1A88     		ldrh	r2, [r3]
 2916 01ec 9205     		lsls	r2, r2, #22
 2917 01ee 920D     		lsrs	r2, r2, #22
 2918 01f0 1A80     		strh	r2, [r3]
 437:Drivers/STM32F0xx_HAL_Driver/Src/stm32f0xx_ll_usb.c ****             pmabuffer = ep->pmaaddr0;
 2919              		.loc 1 437 13 discriminator 1 view .LVU889
 2920 01f2 3E2E     		cmp	r6, #62
 2921 01f4 1BD9     		bls	.L122
 437:Drivers/STM32F0xx_HAL_Driver/Src/stm32f0xx_ll_usb.c ****             pmabuffer = ep->pmaaddr0;
 2922              		.loc 1 437 13 discriminator 3 view .LVU890
 437:Drivers/STM32F0xx_HAL_Driver/Src/stm32f0xx_ll_usb.c ****             pmabuffer = ep->pmaaddr0;
 2923              		.loc 1 437 13 discriminator 3 view .LVU891
 2924 01f6 7209     		lsrs	r2, r6, #5
 2925              	.LVL311:
 437:Drivers/STM32F0xx_HAL_Driver/Src/stm32f0xx_ll_usb.c ****             pmabuffer = ep->pmaaddr0;
 2926              		.loc 1 437 13 discriminator 3 view .LVU892
 2927 01f8 F106     		lsls	r1, r6, #27
 2928 01fa 00D1     		bne	.L123
 437:Drivers/STM32F0xx_HAL_Driver/Src/stm32f0xx_ll_usb.c ****             pmabuffer = ep->pmaaddr0;
 2929              		.loc 1 437 13 discriminator 5 view .LVU893
 2930 01fc 013A     		subs	r2, r2, #1
 2931              	.LVL312:
 2932              	.L123:
 437:Drivers/STM32F0xx_HAL_Driver/Src/stm32f0xx_ll_usb.c ****             pmabuffer = ep->pmaaddr0;
 2933              		.loc 1 437 13 discriminator 7 view .LVU894
 2934 01fe 1988     		ldrh	r1, [r3]
 2935 0200 9202     		lsls	r2, r2, #10
 2936              	.LVL313:
 437:Drivers/STM32F0xx_HAL_Driver/Src/stm32f0xx_ll_usb.c ****             pmabuffer = ep->pmaaddr0;
 2937              		.loc 1 437 13 is_stmt 0 discriminator 7 view .LVU895
 2938 0202 92B2     		uxth	r2, r2
 2939 0204 1143     		orrs	r1, r2
 2940 0206 364A     		ldr	r2, .L220+4
 2941 0208 0A43     		orrs	r2, r1
 2942 020a 92B2     		uxth	r2, r2
 2943 020c 1A80     		strh	r2, [r3]
 437:Drivers/STM32F0xx_HAL_Driver/Src/stm32f0xx_ll_usb.c ****             pmabuffer = ep->pmaaddr0;
 2944              		.loc 1 437 13 is_stmt 1 discriminator 7 view .LVU896
 2945 020e 22E0     		b	.L124
 2946              	.LVL314:
 2947              	.L214:
 437:Drivers/STM32F0xx_HAL_Driver/Src/stm32f0xx_ll_usb.c ****             pmabuffer = ep->pmaaddr0;
 2948              		.loc 1 437 13 is_stmt 0 discriminator 7 view .LVU897
 2949              	.LBE82:
 2950              	.LBE81:
 2951              	.LBB84:
 419:Drivers/STM32F0xx_HAL_Driver/Src/stm32f0xx_ll_usb.c ****             pmabuffer = ep->pmaaddr1;
 2952              		.loc 1 419 13 is_stmt 1 discriminator 16 view .LVU898
 2953 0210 4F32     		adds	r2, r2, #79
 2954 0212 AA5A     		ldrh	r2, [r5, r2]
 2955 0214 AA18     		adds	r2, r5, r2
 2956              	.LVL315:
 419:Drivers/STM32F0xx_HAL_Driver/Src/stm32f0xx_ll_usb.c ****             pmabuffer = ep->pmaaddr1;
ARM GAS  /var/folders/kr/g9ry2bg56g773797gdtkvvkw0000gn/T//cc7eQgtd.s 			page 74


 2957              		.loc 1 419 13 discriminator 16 view .LVU899
 2958 0216 DB00     		lsls	r3, r3, #3
 2959 0218 9B18     		adds	r3, r3, r2
 2960 021a 304A     		ldr	r2, .L220
 2961              	.LVL316:
 419:Drivers/STM32F0xx_HAL_Driver/Src/stm32f0xx_ll_usb.c ****             pmabuffer = ep->pmaaddr1;
 2962              		.loc 1 419 13 is_stmt 0 discriminator 16 view .LVU900
 2963 021c 9446     		mov	ip, r2
 2964 021e 6344     		add	r3, r3, ip
 2965              	.LVL317:
 419:Drivers/STM32F0xx_HAL_Driver/Src/stm32f0xx_ll_usb.c ****             pmabuffer = ep->pmaaddr1;
 2966              		.loc 1 419 13 is_stmt 1 discriminator 16 view .LVU901
 2967 0220 B2B2     		uxth	r2, r6
 2968 0222 1A80     		strh	r2, [r3]
 2969 0224 C6E7     		b	.L116
 2970              	.LVL318:
 2971              	.L119:
 419:Drivers/STM32F0xx_HAL_Driver/Src/stm32f0xx_ll_usb.c ****             pmabuffer = ep->pmaaddr1;
 2972              		.loc 1 419 13 is_stmt 0 discriminator 16 view .LVU902
 2973              	.LBE84:
 432:Drivers/STM32F0xx_HAL_Driver/Src/stm32f0xx_ll_usb.c ****               ep->xfer_len_db = 0U;
 2974              		.loc 1 432 15 is_stmt 1 view .LVU903
 433:Drivers/STM32F0xx_HAL_Driver/Src/stm32f0xx_ll_usb.c ****             }
 2975              		.loc 1 433 15 view .LVU904
 433:Drivers/STM32F0xx_HAL_Driver/Src/stm32f0xx_ll_usb.c ****             }
 2976              		.loc 1 433 31 is_stmt 0 view .LVU905
 2977 0226 0022     		movs	r2, #0
 2978 0228 2262     		str	r2, [r4, #32]
 432:Drivers/STM32F0xx_HAL_Driver/Src/stm32f0xx_ll_usb.c ****               ep->xfer_len_db = 0U;
 2979              		.loc 1 432 19 view .LVU906
 2980 022a 1E00     		movs	r6, r3
 2981 022c D1E7     		b	.L120
 2982              	.LVL319:
 2983              	.L122:
 2984              	.LBB85:
 2985              	.LBB83:
 437:Drivers/STM32F0xx_HAL_Driver/Src/stm32f0xx_ll_usb.c ****             pmabuffer = ep->pmaaddr0;
 2986              		.loc 1 437 13 is_stmt 1 discriminator 4 view .LVU907
 2987 022e 002E     		cmp	r6, #0
 2988 0230 05D1     		bne	.L125
 437:Drivers/STM32F0xx_HAL_Driver/Src/stm32f0xx_ll_usb.c ****             pmabuffer = ep->pmaaddr0;
 2989              		.loc 1 437 13 discriminator 9 view .LVU908
 2990 0232 1A88     		ldrh	r2, [r3]
 2991 0234 2A49     		ldr	r1, .L220+4
 2992 0236 0A43     		orrs	r2, r1
 2993 0238 92B2     		uxth	r2, r2
 2994 023a 1A80     		strh	r2, [r3]
 2995 023c 0BE0     		b	.L124
 2996              	.L125:
 437:Drivers/STM32F0xx_HAL_Driver/Src/stm32f0xx_ll_usb.c ****             pmabuffer = ep->pmaaddr0;
 2997              		.loc 1 437 13 discriminator 10 view .LVU909
 437:Drivers/STM32F0xx_HAL_Driver/Src/stm32f0xx_ll_usb.c ****             pmabuffer = ep->pmaaddr0;
 2998              		.loc 1 437 13 discriminator 10 view .LVU910
 2999 023e 7208     		lsrs	r2, r6, #1
 3000              	.LVL320:
 437:Drivers/STM32F0xx_HAL_Driver/Src/stm32f0xx_ll_usb.c ****             pmabuffer = ep->pmaaddr0;
 3001              		.loc 1 437 13 discriminator 10 view .LVU911
ARM GAS  /var/folders/kr/g9ry2bg56g773797gdtkvvkw0000gn/T//cc7eQgtd.s 			page 75


 3002 0240 F107     		lsls	r1, r6, #31
 3003 0242 00D5     		bpl	.L126
 437:Drivers/STM32F0xx_HAL_Driver/Src/stm32f0xx_ll_usb.c ****             pmabuffer = ep->pmaaddr0;
 3004              		.loc 1 437 13 discriminator 12 view .LVU912
 3005 0244 0132     		adds	r2, r2, #1
 3006              	.LVL321:
 3007              	.L126:
 437:Drivers/STM32F0xx_HAL_Driver/Src/stm32f0xx_ll_usb.c ****             pmabuffer = ep->pmaaddr0;
 3008              		.loc 1 437 13 discriminator 14 view .LVU913
 3009 0246 1988     		ldrh	r1, [r3]
 3010 0248 9202     		lsls	r2, r2, #10
 3011              	.LVL322:
 437:Drivers/STM32F0xx_HAL_Driver/Src/stm32f0xx_ll_usb.c ****             pmabuffer = ep->pmaaddr0;
 3012              		.loc 1 437 13 is_stmt 0 discriminator 14 view .LVU914
 3013 024a 92B2     		uxth	r2, r2
 3014 024c 0A43     		orrs	r2, r1
 3015 024e 1A80     		strh	r2, [r3]
 3016 0250 01E0     		b	.L124
 3017              	.LVL323:
 3018              	.L121:
 437:Drivers/STM32F0xx_HAL_Driver/Src/stm32f0xx_ll_usb.c ****             pmabuffer = ep->pmaaddr0;
 3019              		.loc 1 437 13 discriminator 14 view .LVU915
 3020              	.LBE83:
 3021              	.LBE85:
 437:Drivers/STM32F0xx_HAL_Driver/Src/stm32f0xx_ll_usb.c ****             pmabuffer = ep->pmaaddr0;
 3022              		.loc 1 437 13 is_stmt 1 discriminator 2 view .LVU916
 3023 0252 012B     		cmp	r3, #1
 3024 0254 06D0     		beq	.L215
 3025              	.L124:
 437:Drivers/STM32F0xx_HAL_Driver/Src/stm32f0xx_ll_usb.c ****             pmabuffer = ep->pmaaddr0;
 3026              		.loc 1 437 13 discriminator 18 view .LVU917
 437:Drivers/STM32F0xx_HAL_Driver/Src/stm32f0xx_ll_usb.c ****             pmabuffer = ep->pmaaddr0;
 3027              		.loc 1 437 13 discriminator 18 view .LVU918
 438:Drivers/STM32F0xx_HAL_Driver/Src/stm32f0xx_ll_usb.c **** 
 3028              		.loc 1 438 13 view .LVU919
 438:Drivers/STM32F0xx_HAL_Driver/Src/stm32f0xx_ll_usb.c **** 
 3029              		.loc 1 438 23 is_stmt 0 view .LVU920
 3030 0256 2289     		ldrh	r2, [r4, #8]
 3031              	.LVL324:
 441:Drivers/STM32F0xx_HAL_Driver/Src/stm32f0xx_ll_usb.c ****           }
 3032              		.loc 1 441 13 is_stmt 1 view .LVU921
 3033 0258 B3B2     		uxth	r3, r6
 3034 025a 6169     		ldr	r1, [r4, #20]
 3035 025c 2800     		movs	r0, r5
 3036 025e FFF7FEFF 		bl	USB_WritePMA
 3037              	.LVL325:
 441:Drivers/STM32F0xx_HAL_Driver/Src/stm32f0xx_ll_usb.c ****           }
 3038              		.loc 1 441 13 is_stmt 0 view .LVU922
 3039 0262 4EE7     		b	.L109
 3040              	.L215:
 437:Drivers/STM32F0xx_HAL_Driver/Src/stm32f0xx_ll_usb.c ****             pmabuffer = ep->pmaaddr0;
 3041              		.loc 1 437 13 is_stmt 1 discriminator 16 view .LVU923
 3042              	.LBB86:
 437:Drivers/STM32F0xx_HAL_Driver/Src/stm32f0xx_ll_usb.c ****             pmabuffer = ep->pmaaddr0;
 3043              		.loc 1 437 13 discriminator 16 view .LVU924
 3044              	.LVL326:
 437:Drivers/STM32F0xx_HAL_Driver/Src/stm32f0xx_ll_usb.c ****             pmabuffer = ep->pmaaddr0;
ARM GAS  /var/folders/kr/g9ry2bg56g773797gdtkvvkw0000gn/T//cc7eQgtd.s 			page 76


 3045              		.loc 1 437 13 discriminator 16 view .LVU925
 437:Drivers/STM32F0xx_HAL_Driver/Src/stm32f0xx_ll_usb.c ****             pmabuffer = ep->pmaaddr0;
 3046              		.loc 1 437 13 discriminator 16 view .LVU926
 3047 0264 4F33     		adds	r3, r3, #79
 3048 0266 EA5A     		ldrh	r2, [r5, r3]
 3049 0268 AA18     		adds	r2, r5, r2
 3050              	.LVL327:
 437:Drivers/STM32F0xx_HAL_Driver/Src/stm32f0xx_ll_usb.c ****             pmabuffer = ep->pmaaddr0;
 3051              		.loc 1 437 13 discriminator 16 view .LVU927
 3052 026a 2378     		ldrb	r3, [r4]
 3053 026c DB00     		lsls	r3, r3, #3
 3054 026e 9B18     		adds	r3, r3, r2
 3055 0270 1E4A     		ldr	r2, .L220+16
 3056              	.LVL328:
 437:Drivers/STM32F0xx_HAL_Driver/Src/stm32f0xx_ll_usb.c ****             pmabuffer = ep->pmaaddr0;
 3057              		.loc 1 437 13 is_stmt 0 discriminator 16 view .LVU928
 3058 0272 9446     		mov	ip, r2
 3059 0274 6344     		add	r3, r3, ip
 3060              	.LVL329:
 437:Drivers/STM32F0xx_HAL_Driver/Src/stm32f0xx_ll_usb.c ****             pmabuffer = ep->pmaaddr0;
 3061              		.loc 1 437 13 is_stmt 1 discriminator 16 view .LVU929
 3062 0276 B2B2     		uxth	r2, r6
 3063 0278 1A80     		strh	r2, [r3]
 3064 027a ECE7     		b	.L124
 3065              	.LVL330:
 3066              	.L112:
 437:Drivers/STM32F0xx_HAL_Driver/Src/stm32f0xx_ll_usb.c ****             pmabuffer = ep->pmaaddr0;
 3067              		.loc 1 437 13 is_stmt 0 discriminator 16 view .LVU930
 3068              	.LBE86:
 446:Drivers/STM32F0xx_HAL_Driver/Src/stm32f0xx_ll_usb.c ****             pmabuffer = ep->pmaaddr0;
 3069              		.loc 1 446 13 is_stmt 1 view .LVU931
 446:Drivers/STM32F0xx_HAL_Driver/Src/stm32f0xx_ll_usb.c ****             pmabuffer = ep->pmaaddr0;
 3070              		.loc 1 446 13 view .LVU932
 3071 027c 6278     		ldrb	r2, [r4, #1]
 3072 027e 002A     		cmp	r2, #0
 3073 0280 3CD1     		bne	.L127
 446:Drivers/STM32F0xx_HAL_Driver/Src/stm32f0xx_ll_usb.c ****             pmabuffer = ep->pmaaddr0;
 3074              		.loc 1 446 13 discriminator 1 view .LVU933
 3075              	.LBB87:
 446:Drivers/STM32F0xx_HAL_Driver/Src/stm32f0xx_ll_usb.c ****             pmabuffer = ep->pmaaddr0;
 3076              		.loc 1 446 13 discriminator 1 view .LVU934
 3077              	.LVL331:
 446:Drivers/STM32F0xx_HAL_Driver/Src/stm32f0xx_ll_usb.c ****             pmabuffer = ep->pmaaddr0;
 3078              		.loc 1 446 13 discriminator 1 view .LVU935
 446:Drivers/STM32F0xx_HAL_Driver/Src/stm32f0xx_ll_usb.c ****             pmabuffer = ep->pmaaddr0;
 3079              		.loc 1 446 13 discriminator 1 view .LVU936
 3080 0282 5032     		adds	r2, r2, #80
 3081 0284 A95A     		ldrh	r1, [r5, r2]
 3082              	.LVL332:
 446:Drivers/STM32F0xx_HAL_Driver/Src/stm32f0xx_ll_usb.c ****             pmabuffer = ep->pmaaddr0;
 3083              		.loc 1 446 13 is_stmt 0 discriminator 1 view .LVU937
 3084 0286 6918     		adds	r1, r5, r1
 3085              	.LVL333:
 446:Drivers/STM32F0xx_HAL_Driver/Src/stm32f0xx_ll_usb.c ****             pmabuffer = ep->pmaaddr0;
 3086              		.loc 1 446 13 is_stmt 1 discriminator 1 view .LVU938
 3087 0288 DA00     		lsls	r2, r3, #3
 3088 028a 5218     		adds	r2, r2, r1
ARM GAS  /var/folders/kr/g9ry2bg56g773797gdtkvvkw0000gn/T//cc7eQgtd.s 			page 77


 3089 028c 174B     		ldr	r3, .L220+16
 3090 028e 9C46     		mov	ip, r3
 3091 0290 6244     		add	r2, r2, ip
 3092              	.LVL334:
 446:Drivers/STM32F0xx_HAL_Driver/Src/stm32f0xx_ll_usb.c ****             pmabuffer = ep->pmaaddr0;
 3093              		.loc 1 446 13 discriminator 1 view .LVU939
 3094              	.LBB88:
 446:Drivers/STM32F0xx_HAL_Driver/Src/stm32f0xx_ll_usb.c ****             pmabuffer = ep->pmaaddr0;
 3095              		.loc 1 446 13 discriminator 1 view .LVU940
 446:Drivers/STM32F0xx_HAL_Driver/Src/stm32f0xx_ll_usb.c ****             pmabuffer = ep->pmaaddr0;
 3096              		.loc 1 446 13 discriminator 1 view .LVU941
 3097 0292 1388     		ldrh	r3, [r2]
 3098 0294 9B05     		lsls	r3, r3, #22
 3099 0296 9B0D     		lsrs	r3, r3, #22
 3100 0298 1380     		strh	r3, [r2]
 446:Drivers/STM32F0xx_HAL_Driver/Src/stm32f0xx_ll_usb.c ****             pmabuffer = ep->pmaaddr0;
 3101              		.loc 1 446 13 discriminator 1 view .LVU942
 3102 029a 3E2E     		cmp	r6, #62
 3103 029c 0CD9     		bls	.L128
 446:Drivers/STM32F0xx_HAL_Driver/Src/stm32f0xx_ll_usb.c ****             pmabuffer = ep->pmaaddr0;
 3104              		.loc 1 446 13 discriminator 3 view .LVU943
 446:Drivers/STM32F0xx_HAL_Driver/Src/stm32f0xx_ll_usb.c ****             pmabuffer = ep->pmaaddr0;
 3105              		.loc 1 446 13 discriminator 3 view .LVU944
 3106 029e 7309     		lsrs	r3, r6, #5
 3107              	.LVL335:
 446:Drivers/STM32F0xx_HAL_Driver/Src/stm32f0xx_ll_usb.c ****             pmabuffer = ep->pmaaddr0;
 3108              		.loc 1 446 13 discriminator 3 view .LVU945
 3109 02a0 F106     		lsls	r1, r6, #27
 3110 02a2 00D1     		bne	.L129
 3111              	.LVL336:
 446:Drivers/STM32F0xx_HAL_Driver/Src/stm32f0xx_ll_usb.c ****             pmabuffer = ep->pmaaddr0;
 3112              		.loc 1 446 13 discriminator 5 view .LVU946
 3113 02a4 013B     		subs	r3, r3, #1
 3114              	.LVL337:
 3115              	.L129:
 446:Drivers/STM32F0xx_HAL_Driver/Src/stm32f0xx_ll_usb.c ****             pmabuffer = ep->pmaaddr0;
 3116              		.loc 1 446 13 discriminator 7 view .LVU947
 3117 02a6 1188     		ldrh	r1, [r2]
 3118 02a8 9B02     		lsls	r3, r3, #10
 3119              	.LVL338:
 446:Drivers/STM32F0xx_HAL_Driver/Src/stm32f0xx_ll_usb.c ****             pmabuffer = ep->pmaaddr0;
 3120              		.loc 1 446 13 is_stmt 0 discriminator 7 view .LVU948
 3121 02aa 9BB2     		uxth	r3, r3
 3122 02ac 1943     		orrs	r1, r3
 3123 02ae 0C4B     		ldr	r3, .L220+4
 3124 02b0 0B43     		orrs	r3, r1
 3125 02b2 9BB2     		uxth	r3, r3
 3126 02b4 1380     		strh	r3, [r2]
 446:Drivers/STM32F0xx_HAL_Driver/Src/stm32f0xx_ll_usb.c ****             pmabuffer = ep->pmaaddr0;
 3127              		.loc 1 446 13 is_stmt 1 discriminator 7 view .LVU949
 3128 02b6 23E0     		b	.L130
 3129              	.LVL339:
 3130              	.L128:
 446:Drivers/STM32F0xx_HAL_Driver/Src/stm32f0xx_ll_usb.c ****             pmabuffer = ep->pmaaddr0;
 3131              		.loc 1 446 13 discriminator 4 view .LVU950
 3132 02b8 002E     		cmp	r6, #0
 3133 02ba 05D1     		bne	.L131
ARM GAS  /var/folders/kr/g9ry2bg56g773797gdtkvvkw0000gn/T//cc7eQgtd.s 			page 78


 446:Drivers/STM32F0xx_HAL_Driver/Src/stm32f0xx_ll_usb.c ****             pmabuffer = ep->pmaaddr0;
 3134              		.loc 1 446 13 discriminator 9 view .LVU951
 3135 02bc 1388     		ldrh	r3, [r2]
 3136 02be 0849     		ldr	r1, .L220+4
 3137              	.LVL340:
 446:Drivers/STM32F0xx_HAL_Driver/Src/stm32f0xx_ll_usb.c ****             pmabuffer = ep->pmaaddr0;
 3138              		.loc 1 446 13 is_stmt 0 discriminator 9 view .LVU952
 3139 02c0 0B43     		orrs	r3, r1
 3140 02c2 9BB2     		uxth	r3, r3
 3141 02c4 1380     		strh	r3, [r2]
 3142 02c6 1BE0     		b	.L130
 3143              	.LVL341:
 3144              	.L131:
 446:Drivers/STM32F0xx_HAL_Driver/Src/stm32f0xx_ll_usb.c ****             pmabuffer = ep->pmaaddr0;
 3145              		.loc 1 446 13 is_stmt 1 discriminator 10 view .LVU953
 446:Drivers/STM32F0xx_HAL_Driver/Src/stm32f0xx_ll_usb.c ****             pmabuffer = ep->pmaaddr0;
 3146              		.loc 1 446 13 discriminator 10 view .LVU954
 3147 02c8 7308     		lsrs	r3, r6, #1
 3148              	.LVL342:
 446:Drivers/STM32F0xx_HAL_Driver/Src/stm32f0xx_ll_usb.c ****             pmabuffer = ep->pmaaddr0;
 3149              		.loc 1 446 13 discriminator 10 view .LVU955
 3150 02ca F107     		lsls	r1, r6, #31
 3151 02cc 00D5     		bpl	.L132
 3152              	.LVL343:
 446:Drivers/STM32F0xx_HAL_Driver/Src/stm32f0xx_ll_usb.c ****             pmabuffer = ep->pmaaddr0;
 3153              		.loc 1 446 13 discriminator 12 view .LVU956
 3154 02ce 0133     		adds	r3, r3, #1
 3155              	.LVL344:
 3156              	.L132:
 446:Drivers/STM32F0xx_HAL_Driver/Src/stm32f0xx_ll_usb.c ****             pmabuffer = ep->pmaaddr0;
 3157              		.loc 1 446 13 discriminator 14 view .LVU957
 3158 02d0 1188     		ldrh	r1, [r2]
 3159 02d2 9B02     		lsls	r3, r3, #10
 3160              	.LVL345:
 446:Drivers/STM32F0xx_HAL_Driver/Src/stm32f0xx_ll_usb.c ****             pmabuffer = ep->pmaaddr0;
 3161              		.loc 1 446 13 is_stmt 0 discriminator 14 view .LVU958
 3162 02d4 9BB2     		uxth	r3, r3
 3163 02d6 0B43     		orrs	r3, r1
 3164 02d8 1380     		strh	r3, [r2]
 3165 02da 11E0     		b	.L130
 3166              	.L221:
 3167              		.align	2
 3168              	.L220:
 3169 02dc 06040000 		.word	1030
 3170 02e0 0080FFFF 		.word	-32768
 3171 02e4 8FBFFFFF 		.word	-16497
 3172 02e8 8080FFFF 		.word	-32640
 3173 02ec 02040000 		.word	1026
 3174 02f0 BF8FFFFF 		.word	-28737
 3175 02f4 8F8FFFFF 		.word	-28785
 3176 02f8 8081FFFF 		.word	-32384
 3177              	.LVL346:
 3178              	.L127:
 446:Drivers/STM32F0xx_HAL_Driver/Src/stm32f0xx_ll_usb.c ****             pmabuffer = ep->pmaaddr0;
 3179              		.loc 1 446 13 discriminator 14 view .LVU959
 3180              	.LBE88:
 3181              	.LBE87:
ARM GAS  /var/folders/kr/g9ry2bg56g773797gdtkvvkw0000gn/T//cc7eQgtd.s 			page 79


 446:Drivers/STM32F0xx_HAL_Driver/Src/stm32f0xx_ll_usb.c ****             pmabuffer = ep->pmaaddr0;
 3182              		.loc 1 446 13 is_stmt 1 discriminator 2 view .LVU960
 3183 02fc 012A     		cmp	r2, #1
 3184 02fe 2DD0     		beq	.L216
 3185              	.LVL347:
 3186              	.L130:
 446:Drivers/STM32F0xx_HAL_Driver/Src/stm32f0xx_ll_usb.c ****             pmabuffer = ep->pmaaddr0;
 3187              		.loc 1 446 13 discriminator 18 view .LVU961
 446:Drivers/STM32F0xx_HAL_Driver/Src/stm32f0xx_ll_usb.c ****             pmabuffer = ep->pmaaddr0;
 3188              		.loc 1 446 13 discriminator 18 view .LVU962
 447:Drivers/STM32F0xx_HAL_Driver/Src/stm32f0xx_ll_usb.c **** 
 3189              		.loc 1 447 13 view .LVU963
 447:Drivers/STM32F0xx_HAL_Driver/Src/stm32f0xx_ll_usb.c **** 
 3190              		.loc 1 447 23 is_stmt 0 view .LVU964
 3191 0300 2289     		ldrh	r2, [r4, #8]
 3192              	.LVL348:
 450:Drivers/STM32F0xx_HAL_Driver/Src/stm32f0xx_ll_usb.c ****             ep->xfer_buff += len;
 3193              		.loc 1 450 13 is_stmt 1 view .LVU965
 3194 0302 B3B2     		uxth	r3, r6
 3195 0304 6169     		ldr	r1, [r4, #20]
 3196 0306 2800     		movs	r0, r5
 3197              	.LVL349:
 450:Drivers/STM32F0xx_HAL_Driver/Src/stm32f0xx_ll_usb.c ****             ep->xfer_buff += len;
 3198              		.loc 1 450 13 is_stmt 0 view .LVU966
 3199 0308 FFF7FEFF 		bl	USB_WritePMA
 3200              	.LVL350:
 451:Drivers/STM32F0xx_HAL_Driver/Src/stm32f0xx_ll_usb.c **** 
