ARM GAS  /var/folders/kr/g9ry2bg56g773797gdtkvvkw0000gn/T//cchcobXk.s 			page 1


   1              		.cpu cortex-m0
   2              		.arch armv6s-m
   3              		.fpu softvfp
   4              		.eabi_attribute 20, 1
   5              		.eabi_attribute 21, 1
   6              		.eabi_attribute 23, 3
   7              		.eabi_attribute 24, 1
   8              		.eabi_attribute 25, 1
   9              		.eabi_attribute 26, 1
  10              		.eabi_attribute 30, 1
  11              		.eabi_attribute 34, 0
  12              		.eabi_attribute 18, 4
  13              		.file	"timers.c"
  14              		.text
  15              	.Ltext0:
  16              		.cfi_sections	.debug_frame
  17              		.file 1 "Middlewares/Third_Party/FreeRTOS/Source/timers.c"
  18              		.section	.text.prvGetNextExpireTime,"ax",%progbits
  19              		.align	1
  20              		.syntax unified
  21              		.code	16
  22              		.thumb_func
  24              	prvGetNextExpireTime:
  25              	.LVL0:
  26              	.LFB12:
   1:Middlewares/Third_Party/FreeRTOS/Source/timers.c **** /*
   2:Middlewares/Third_Party/FreeRTOS/Source/timers.c ****  * FreeRTOS Kernel V10.0.1
   3:Middlewares/Third_Party/FreeRTOS/Source/timers.c ****  * Copyright (C) 2017 Amazon.com, Inc. or its affiliates.  All Rights Reserved.
   4:Middlewares/Third_Party/FreeRTOS/Source/timers.c ****  *
   5:Middlewares/Third_Party/FreeRTOS/Source/timers.c ****  * Permission is hereby granted, free of charge, to any person obtaining a copy of
   6:Middlewares/Third_Party/FreeRTOS/Source/timers.c ****  * this software and associated documentation files (the "Software"), to deal in
   7:Middlewares/Third_Party/FreeRTOS/Source/timers.c ****  * the Software without restriction, including without limitation the rights to
   8:Middlewares/Third_Party/FreeRTOS/Source/timers.c ****  * use, copy, modify, merge, publish, distribute, sublicense, and/or sell copies of
   9:Middlewares/Third_Party/FreeRTOS/Source/timers.c ****  * the Software, and to permit persons to whom the Software is furnished to do so,
  10:Middlewares/Third_Party/FreeRTOS/Source/timers.c ****  * subject to the following conditions:
  11:Middlewares/Third_Party/FreeRTOS/Source/timers.c ****  *
  12:Middlewares/Third_Party/FreeRTOS/Source/timers.c ****  * The above copyright notice and this permission notice shall be included in all
  13:Middlewares/Third_Party/FreeRTOS/Source/timers.c ****  * copies or substantial portions of the Software.
  14:Middlewares/Third_Party/FreeRTOS/Source/timers.c ****  *
  15:Middlewares/Third_Party/FreeRTOS/Source/timers.c ****  * THE SOFTWARE IS PROVIDED "AS IS", WITHOUT WARRANTY OF ANY KIND, EXPRESS OR
  16:Middlewares/Third_Party/FreeRTOS/Source/timers.c ****  * IMPLIED, INCLUDING BUT NOT LIMITED TO THE WARRANTIES OF MERCHANTABILITY, FITNESS
  17:Middlewares/Third_Party/FreeRTOS/Source/timers.c ****  * FOR A PARTICULAR PURPOSE AND NONINFRINGEMENT. IN NO EVENT SHALL THE AUTHORS OR
  18:Middlewares/Third_Party/FreeRTOS/Source/timers.c ****  * COPYRIGHT HOLDERS BE LIABLE FOR ANY CLAIM, DAMAGES OR OTHER LIABILITY, WHETHER
  19:Middlewares/Third_Party/FreeRTOS/Source/timers.c ****  * IN AN ACTION OF CONTRACT, TORT OR OTHERWISE, ARISING FROM, OUT OF OR IN
  20:Middlewares/Third_Party/FreeRTOS/Source/timers.c ****  * CONNECTION WITH THE SOFTWARE OR THE USE OR OTHER DEALINGS IN THE SOFTWARE.
  21:Middlewares/Third_Party/FreeRTOS/Source/timers.c ****  *
  22:Middlewares/Third_Party/FreeRTOS/Source/timers.c ****  * http://www.FreeRTOS.org
  23:Middlewares/Third_Party/FreeRTOS/Source/timers.c ****  * http://aws.amazon.com/freertos
  24:Middlewares/Third_Party/FreeRTOS/Source/timers.c ****  *
  25:Middlewares/Third_Party/FreeRTOS/Source/timers.c ****  * 1 tab == 4 spaces!
  26:Middlewares/Third_Party/FreeRTOS/Source/timers.c ****  */
  27:Middlewares/Third_Party/FreeRTOS/Source/timers.c **** 
  28:Middlewares/Third_Party/FreeRTOS/Source/timers.c **** /* Standard includes. */
  29:Middlewares/Third_Party/FreeRTOS/Source/timers.c **** #include <stdlib.h>
  30:Middlewares/Third_Party/FreeRTOS/Source/timers.c **** 
  31:Middlewares/Third_Party/FreeRTOS/Source/timers.c **** /* Defining MPU_WRAPPERS_INCLUDED_FROM_API_FILE prevents task.h from redefining
  32:Middlewares/Third_Party/FreeRTOS/Source/timers.c **** all the API functions to use the MPU wrappers.  That should only be done when
ARM GAS  /var/folders/kr/g9ry2bg56g773797gdtkvvkw0000gn/T//cchcobXk.s 			page 2


  33:Middlewares/Third_Party/FreeRTOS/Source/timers.c **** task.h is included from an application file. */
  34:Middlewares/Third_Party/FreeRTOS/Source/timers.c **** #define MPU_WRAPPERS_INCLUDED_FROM_API_FILE
  35:Middlewares/Third_Party/FreeRTOS/Source/timers.c **** 
  36:Middlewares/Third_Party/FreeRTOS/Source/timers.c **** #include "FreeRTOS.h"
  37:Middlewares/Third_Party/FreeRTOS/Source/timers.c **** #include "task.h"
  38:Middlewares/Third_Party/FreeRTOS/Source/timers.c **** #include "queue.h"
  39:Middlewares/Third_Party/FreeRTOS/Source/timers.c **** #include "timers.h"
  40:Middlewares/Third_Party/FreeRTOS/Source/timers.c **** 
  41:Middlewares/Third_Party/FreeRTOS/Source/timers.c **** #if ( INCLUDE_xTimerPendFunctionCall == 1 ) && ( configUSE_TIMERS == 0 )
  42:Middlewares/Third_Party/FreeRTOS/Source/timers.c **** 	#error configUSE_TIMERS must be set to 1 to make the xTimerPendFunctionCall() function available.
  43:Middlewares/Third_Party/FreeRTOS/Source/timers.c **** #endif
  44:Middlewares/Third_Party/FreeRTOS/Source/timers.c **** 
  45:Middlewares/Third_Party/FreeRTOS/Source/timers.c **** /* Lint e961 and e750 are suppressed as a MISRA exception justified because the
  46:Middlewares/Third_Party/FreeRTOS/Source/timers.c **** MPU ports require MPU_WRAPPERS_INCLUDED_FROM_API_FILE to be defined for the
  47:Middlewares/Third_Party/FreeRTOS/Source/timers.c **** header files above, but not in this file, in order to generate the correct
  48:Middlewares/Third_Party/FreeRTOS/Source/timers.c **** privileged Vs unprivileged linkage and placement. */
  49:Middlewares/Third_Party/FreeRTOS/Source/timers.c **** #undef MPU_WRAPPERS_INCLUDED_FROM_API_FILE /*lint !e961 !e750. */
  50:Middlewares/Third_Party/FreeRTOS/Source/timers.c **** 
  51:Middlewares/Third_Party/FreeRTOS/Source/timers.c **** 
  52:Middlewares/Third_Party/FreeRTOS/Source/timers.c **** /* This entire source file will be skipped if the application is not configured
  53:Middlewares/Third_Party/FreeRTOS/Source/timers.c **** to include software timer functionality.  This #if is closed at the very bottom
  54:Middlewares/Third_Party/FreeRTOS/Source/timers.c **** of this file.  If you want to include software timer functionality then ensure
  55:Middlewares/Third_Party/FreeRTOS/Source/timers.c **** configUSE_TIMERS is set to 1 in FreeRTOSConfig.h. */
  56:Middlewares/Third_Party/FreeRTOS/Source/timers.c **** #if ( configUSE_TIMERS == 1 )
  57:Middlewares/Third_Party/FreeRTOS/Source/timers.c **** 
  58:Middlewares/Third_Party/FreeRTOS/Source/timers.c **** /* Misc definitions. */
  59:Middlewares/Third_Party/FreeRTOS/Source/timers.c **** #define tmrNO_DELAY		( TickType_t ) 0U
  60:Middlewares/Third_Party/FreeRTOS/Source/timers.c **** 
  61:Middlewares/Third_Party/FreeRTOS/Source/timers.c **** /* The name assigned to the timer service task.  This can be overridden by
  62:Middlewares/Third_Party/FreeRTOS/Source/timers.c **** defining trmTIMER_SERVICE_TASK_NAME in FreeRTOSConfig.h. */
  63:Middlewares/Third_Party/FreeRTOS/Source/timers.c **** #ifndef configTIMER_SERVICE_TASK_NAME
  64:Middlewares/Third_Party/FreeRTOS/Source/timers.c **** 	#define configTIMER_SERVICE_TASK_NAME "Tmr Svc"
  65:Middlewares/Third_Party/FreeRTOS/Source/timers.c **** #endif
  66:Middlewares/Third_Party/FreeRTOS/Source/timers.c **** 
  67:Middlewares/Third_Party/FreeRTOS/Source/timers.c **** /* The definition of the timers themselves. */
  68:Middlewares/Third_Party/FreeRTOS/Source/timers.c **** typedef struct tmrTimerControl
  69:Middlewares/Third_Party/FreeRTOS/Source/timers.c **** {
  70:Middlewares/Third_Party/FreeRTOS/Source/timers.c **** 	const char				*pcTimerName;		/*<< Text name.  This is not used by the kernel, it is included simpl
  71:Middlewares/Third_Party/FreeRTOS/Source/timers.c **** 	ListItem_t				xTimerListItem;		/*<< Standard linked list item as used by all kernel features for e
  72:Middlewares/Third_Party/FreeRTOS/Source/timers.c **** 	TickType_t				xTimerPeriodInTicks;/*<< How quickly and often the timer expires. */
  73:Middlewares/Third_Party/FreeRTOS/Source/timers.c **** 	UBaseType_t				uxAutoReload;		/*<< Set to pdTRUE if the timer should be automatically restarted on
  74:Middlewares/Third_Party/FreeRTOS/Source/timers.c **** 	void 					*pvTimerID;			/*<< An ID to identify the timer.  This allows the timer to be identified 
  75:Middlewares/Third_Party/FreeRTOS/Source/timers.c **** 	TimerCallbackFunction_t	pxCallbackFunction;	/*<< The function that will be called when the timer e
  76:Middlewares/Third_Party/FreeRTOS/Source/timers.c **** 	#if( configUSE_TRACE_FACILITY == 1 )
  77:Middlewares/Third_Party/FreeRTOS/Source/timers.c **** 		UBaseType_t			uxTimerNumber;		/*<< An ID assigned by trace tools such as FreeRTOS+Trace */
  78:Middlewares/Third_Party/FreeRTOS/Source/timers.c **** 	#endif
  79:Middlewares/Third_Party/FreeRTOS/Source/timers.c **** 
  80:Middlewares/Third_Party/FreeRTOS/Source/timers.c **** 	#if( ( configSUPPORT_STATIC_ALLOCATION == 1 ) && ( configSUPPORT_DYNAMIC_ALLOCATION == 1 ) )
  81:Middlewares/Third_Party/FreeRTOS/Source/timers.c **** 		uint8_t 			ucStaticallyAllocated; /*<< Set to pdTRUE if the timer was created statically so no at
  82:Middlewares/Third_Party/FreeRTOS/Source/timers.c **** 	#endif
  83:Middlewares/Third_Party/FreeRTOS/Source/timers.c **** } xTIMER;
  84:Middlewares/Third_Party/FreeRTOS/Source/timers.c **** 
  85:Middlewares/Third_Party/FreeRTOS/Source/timers.c **** /* The old xTIMER name is maintained above then typedefed to the new Timer_t
  86:Middlewares/Third_Party/FreeRTOS/Source/timers.c **** name below to enable the use of older kernel aware debuggers. */
  87:Middlewares/Third_Party/FreeRTOS/Source/timers.c **** typedef xTIMER Timer_t;
  88:Middlewares/Third_Party/FreeRTOS/Source/timers.c **** 
  89:Middlewares/Third_Party/FreeRTOS/Source/timers.c **** /* The definition of messages that can be sent and received on the timer queue.
ARM GAS  /var/folders/kr/g9ry2bg56g773797gdtkvvkw0000gn/T//cchcobXk.s 			page 3


  90:Middlewares/Third_Party/FreeRTOS/Source/timers.c **** Two types of message can be queued - messages that manipulate a software timer,
  91:Middlewares/Third_Party/FreeRTOS/Source/timers.c **** and messages that request the execution of a non-timer related callback.  The
  92:Middlewares/Third_Party/FreeRTOS/Source/timers.c **** two message types are defined in two separate structures, xTimerParametersType
  93:Middlewares/Third_Party/FreeRTOS/Source/timers.c **** and xCallbackParametersType respectively. */
  94:Middlewares/Third_Party/FreeRTOS/Source/timers.c **** typedef struct tmrTimerParameters
  95:Middlewares/Third_Party/FreeRTOS/Source/timers.c **** {
  96:Middlewares/Third_Party/FreeRTOS/Source/timers.c **** 	TickType_t			xMessageValue;		/*<< An optional value used by a subset of commands, for example, whe
  97:Middlewares/Third_Party/FreeRTOS/Source/timers.c **** 	Timer_t *			pxTimer;			/*<< The timer to which the command will be applied. */
  98:Middlewares/Third_Party/FreeRTOS/Source/timers.c **** } TimerParameter_t;
  99:Middlewares/Third_Party/FreeRTOS/Source/timers.c **** 
 100:Middlewares/Third_Party/FreeRTOS/Source/timers.c **** 
 101:Middlewares/Third_Party/FreeRTOS/Source/timers.c **** typedef struct tmrCallbackParameters
 102:Middlewares/Third_Party/FreeRTOS/Source/timers.c **** {
 103:Middlewares/Third_Party/FreeRTOS/Source/timers.c **** 	PendedFunction_t	pxCallbackFunction;	/* << The callback function to execute. */
 104:Middlewares/Third_Party/FreeRTOS/Source/timers.c **** 	void *pvParameter1;						/* << The value that will be used as the callback functions first paramet
 105:Middlewares/Third_Party/FreeRTOS/Source/timers.c **** 	uint32_t ulParameter2;					/* << The value that will be used as the callback functions second para
 106:Middlewares/Third_Party/FreeRTOS/Source/timers.c **** } CallbackParameters_t;
 107:Middlewares/Third_Party/FreeRTOS/Source/timers.c **** 
 108:Middlewares/Third_Party/FreeRTOS/Source/timers.c **** /* The structure that contains the two message types, along with an identifier
 109:Middlewares/Third_Party/FreeRTOS/Source/timers.c **** that is used to determine which message type is valid. */
 110:Middlewares/Third_Party/FreeRTOS/Source/timers.c **** typedef struct tmrTimerQueueMessage
 111:Middlewares/Third_Party/FreeRTOS/Source/timers.c **** {
 112:Middlewares/Third_Party/FreeRTOS/Source/timers.c **** 	BaseType_t			xMessageID;			/*<< The command being sent to the timer service task. */
 113:Middlewares/Third_Party/FreeRTOS/Source/timers.c **** 	union
 114:Middlewares/Third_Party/FreeRTOS/Source/timers.c **** 	{
 115:Middlewares/Third_Party/FreeRTOS/Source/timers.c **** 		TimerParameter_t xTimerParameters;
 116:Middlewares/Third_Party/FreeRTOS/Source/timers.c **** 
 117:Middlewares/Third_Party/FreeRTOS/Source/timers.c **** 		/* Don't include xCallbackParameters if it is not going to be used as
 118:Middlewares/Third_Party/FreeRTOS/Source/timers.c **** 		it makes the structure (and therefore the timer queue) larger. */
 119:Middlewares/Third_Party/FreeRTOS/Source/timers.c **** 		#if ( INCLUDE_xTimerPendFunctionCall == 1 )
 120:Middlewares/Third_Party/FreeRTOS/Source/timers.c **** 			CallbackParameters_t xCallbackParameters;
 121:Middlewares/Third_Party/FreeRTOS/Source/timers.c **** 		#endif /* INCLUDE_xTimerPendFunctionCall */
 122:Middlewares/Third_Party/FreeRTOS/Source/timers.c **** 	} u;
 123:Middlewares/Third_Party/FreeRTOS/Source/timers.c **** } DaemonTaskMessage_t;
 124:Middlewares/Third_Party/FreeRTOS/Source/timers.c **** 
 125:Middlewares/Third_Party/FreeRTOS/Source/timers.c **** /*lint -save -e956 A manual analysis and inspection has been used to determine
 126:Middlewares/Third_Party/FreeRTOS/Source/timers.c **** which static variables must be declared volatile. */
 127:Middlewares/Third_Party/FreeRTOS/Source/timers.c **** 
 128:Middlewares/Third_Party/FreeRTOS/Source/timers.c **** /* The list in which active timers are stored.  Timers are referenced in expire
 129:Middlewares/Third_Party/FreeRTOS/Source/timers.c **** time order, with the nearest expiry time at the front of the list.  Only the
 130:Middlewares/Third_Party/FreeRTOS/Source/timers.c **** timer service task is allowed to access these lists. */
 131:Middlewares/Third_Party/FreeRTOS/Source/timers.c **** PRIVILEGED_DATA static List_t xActiveTimerList1 = {0};
 132:Middlewares/Third_Party/FreeRTOS/Source/timers.c **** PRIVILEGED_DATA static List_t xActiveTimerList2 = {0};
 133:Middlewares/Third_Party/FreeRTOS/Source/timers.c **** PRIVILEGED_DATA static List_t *pxCurrentTimerList = NULL;
 134:Middlewares/Third_Party/FreeRTOS/Source/timers.c **** PRIVILEGED_DATA static List_t *pxOverflowTimerList = NULL;
 135:Middlewares/Third_Party/FreeRTOS/Source/timers.c **** 
 136:Middlewares/Third_Party/FreeRTOS/Source/timers.c **** /* A queue that is used to send commands to the timer service task. */
 137:Middlewares/Third_Party/FreeRTOS/Source/timers.c **** PRIVILEGED_DATA static QueueHandle_t xTimerQueue = NULL;
 138:Middlewares/Third_Party/FreeRTOS/Source/timers.c **** PRIVILEGED_DATA static TaskHandle_t xTimerTaskHandle = NULL;
 139:Middlewares/Third_Party/FreeRTOS/Source/timers.c **** 
 140:Middlewares/Third_Party/FreeRTOS/Source/timers.c **** /*lint -restore */
 141:Middlewares/Third_Party/FreeRTOS/Source/timers.c **** 
 142:Middlewares/Third_Party/FreeRTOS/Source/timers.c **** /*-----------------------------------------------------------*/
 143:Middlewares/Third_Party/FreeRTOS/Source/timers.c **** 
 144:Middlewares/Third_Party/FreeRTOS/Source/timers.c **** #if( configSUPPORT_STATIC_ALLOCATION == 1 )
 145:Middlewares/Third_Party/FreeRTOS/Source/timers.c **** 
 146:Middlewares/Third_Party/FreeRTOS/Source/timers.c **** 	/* If static allocation is supported then the application must provide the
ARM GAS  /var/folders/kr/g9ry2bg56g773797gdtkvvkw0000gn/T//cchcobXk.s 			page 4


 147:Middlewares/Third_Party/FreeRTOS/Source/timers.c **** 	following callback function - which enables the application to optionally
 148:Middlewares/Third_Party/FreeRTOS/Source/timers.c **** 	provide the memory that will be used by the timer task as the task's stack
 149:Middlewares/Third_Party/FreeRTOS/Source/timers.c **** 	and TCB. */
 150:Middlewares/Third_Party/FreeRTOS/Source/timers.c **** 	extern void vApplicationGetTimerTaskMemory( StaticTask_t **ppxTimerTaskTCBBuffer, StackType_t **pp
 151:Middlewares/Third_Party/FreeRTOS/Source/timers.c **** 
 152:Middlewares/Third_Party/FreeRTOS/Source/timers.c **** #endif
 153:Middlewares/Third_Party/FreeRTOS/Source/timers.c **** 
 154:Middlewares/Third_Party/FreeRTOS/Source/timers.c **** /*
 155:Middlewares/Third_Party/FreeRTOS/Source/timers.c ****  * Initialise the infrastructure used by the timer service task if it has not
 156:Middlewares/Third_Party/FreeRTOS/Source/timers.c ****  * been initialised already.
 157:Middlewares/Third_Party/FreeRTOS/Source/timers.c ****  */
 158:Middlewares/Third_Party/FreeRTOS/Source/timers.c **** static void prvCheckForValidListAndQueue( void ) PRIVILEGED_FUNCTION;
 159:Middlewares/Third_Party/FreeRTOS/Source/timers.c **** 
 160:Middlewares/Third_Party/FreeRTOS/Source/timers.c **** /*
 161:Middlewares/Third_Party/FreeRTOS/Source/timers.c ****  * The timer service task (daemon).  Timer functionality is controlled by this
 162:Middlewares/Third_Party/FreeRTOS/Source/timers.c ****  * task.  Other tasks communicate with the timer service task using the
 163:Middlewares/Third_Party/FreeRTOS/Source/timers.c ****  * xTimerQueue queue.
 164:Middlewares/Third_Party/FreeRTOS/Source/timers.c ****  */
 165:Middlewares/Third_Party/FreeRTOS/Source/timers.c **** static void prvTimerTask( void *pvParameters ) PRIVILEGED_FUNCTION;
 166:Middlewares/Third_Party/FreeRTOS/Source/timers.c **** 
 167:Middlewares/Third_Party/FreeRTOS/Source/timers.c **** /*
 168:Middlewares/Third_Party/FreeRTOS/Source/timers.c ****  * Called by the timer service task to interpret and process a command it
 169:Middlewares/Third_Party/FreeRTOS/Source/timers.c ****  * received on the timer queue.
 170:Middlewares/Third_Party/FreeRTOS/Source/timers.c ****  */
 171:Middlewares/Third_Party/FreeRTOS/Source/timers.c **** static void prvProcessReceivedCommands( void ) PRIVILEGED_FUNCTION;
 172:Middlewares/Third_Party/FreeRTOS/Source/timers.c **** 
 173:Middlewares/Third_Party/FreeRTOS/Source/timers.c **** /*
 174:Middlewares/Third_Party/FreeRTOS/Source/timers.c ****  * Insert the timer into either xActiveTimerList1, or xActiveTimerList2,
 175:Middlewares/Third_Party/FreeRTOS/Source/timers.c ****  * depending on if the expire time causes a timer counter overflow.
 176:Middlewares/Third_Party/FreeRTOS/Source/timers.c ****  */
 177:Middlewares/Third_Party/FreeRTOS/Source/timers.c **** static BaseType_t prvInsertTimerInActiveList( Timer_t * const pxTimer, const TickType_t xNextExpiry
 178:Middlewares/Third_Party/FreeRTOS/Source/timers.c **** 
 179:Middlewares/Third_Party/FreeRTOS/Source/timers.c **** /*
 180:Middlewares/Third_Party/FreeRTOS/Source/timers.c ****  * An active timer has reached its expire time.  Reload the timer if it is an
 181:Middlewares/Third_Party/FreeRTOS/Source/timers.c ****  * auto reload timer, then call its callback.
 182:Middlewares/Third_Party/FreeRTOS/Source/timers.c ****  */
 183:Middlewares/Third_Party/FreeRTOS/Source/timers.c **** static void prvProcessExpiredTimer( const TickType_t xNextExpireTime, const TickType_t xTimeNow ) P
 184:Middlewares/Third_Party/FreeRTOS/Source/timers.c **** 
 185:Middlewares/Third_Party/FreeRTOS/Source/timers.c **** /*
 186:Middlewares/Third_Party/FreeRTOS/Source/timers.c ****  * The tick count has overflowed.  Switch the timer lists after ensuring the
 187:Middlewares/Third_Party/FreeRTOS/Source/timers.c ****  * current timer list does not still reference some timers.
 188:Middlewares/Third_Party/FreeRTOS/Source/timers.c ****  */
 189:Middlewares/Third_Party/FreeRTOS/Source/timers.c **** static void prvSwitchTimerLists( void ) PRIVILEGED_FUNCTION;
 190:Middlewares/Third_Party/FreeRTOS/Source/timers.c **** 
 191:Middlewares/Third_Party/FreeRTOS/Source/timers.c **** /*
 192:Middlewares/Third_Party/FreeRTOS/Source/timers.c ****  * Obtain the current tick count, setting *pxTimerListsWereSwitched to pdTRUE
 193:Middlewares/Third_Party/FreeRTOS/Source/timers.c ****  * if a tick count overflow occurred since prvSampleTimeNow() was last called.
 194:Middlewares/Third_Party/FreeRTOS/Source/timers.c ****  */
 195:Middlewares/Third_Party/FreeRTOS/Source/timers.c **** static TickType_t prvSampleTimeNow( BaseType_t * const pxTimerListsWereSwitched ) PRIVILEGED_FUNCTI
 196:Middlewares/Third_Party/FreeRTOS/Source/timers.c **** 
 197:Middlewares/Third_Party/FreeRTOS/Source/timers.c **** /*
 198:Middlewares/Third_Party/FreeRTOS/Source/timers.c ****  * If the timer list contains any active timers then return the expire time of
 199:Middlewares/Third_Party/FreeRTOS/Source/timers.c ****  * the timer that will expire first and set *pxListWasEmpty to false.  If the
 200:Middlewares/Third_Party/FreeRTOS/Source/timers.c ****  * timer list does not contain any timers then return 0 and set *pxListWasEmpty
 201:Middlewares/Third_Party/FreeRTOS/Source/timers.c ****  * to pdTRUE.
 202:Middlewares/Third_Party/FreeRTOS/Source/timers.c ****  */
 203:Middlewares/Third_Party/FreeRTOS/Source/timers.c **** static TickType_t prvGetNextExpireTime( BaseType_t * const pxListWasEmpty ) PRIVILEGED_FUNCTION;
ARM GAS  /var/folders/kr/g9ry2bg56g773797gdtkvvkw0000gn/T//cchcobXk.s 			page 5


 204:Middlewares/Third_Party/FreeRTOS/Source/timers.c **** 
 205:Middlewares/Third_Party/FreeRTOS/Source/timers.c **** /*
 206:Middlewares/Third_Party/FreeRTOS/Source/timers.c ****  * If a timer has expired, process it.  Otherwise, block the timer service task
 207:Middlewares/Third_Party/FreeRTOS/Source/timers.c ****  * until either a timer does expire or a command is received.
 208:Middlewares/Third_Party/FreeRTOS/Source/timers.c ****  */
 209:Middlewares/Third_Party/FreeRTOS/Source/timers.c **** static void prvProcessTimerOrBlockTask( const TickType_t xNextExpireTime, BaseType_t xListWasEmpty 
 210:Middlewares/Third_Party/FreeRTOS/Source/timers.c **** 
 211:Middlewares/Third_Party/FreeRTOS/Source/timers.c **** /*
 212:Middlewares/Third_Party/FreeRTOS/Source/timers.c ****  * Called after a Timer_t structure has been allocated either statically or
 213:Middlewares/Third_Party/FreeRTOS/Source/timers.c ****  * dynamically to fill in the structure's members.
 214:Middlewares/Third_Party/FreeRTOS/Source/timers.c ****  */
 215:Middlewares/Third_Party/FreeRTOS/Source/timers.c **** static void prvInitialiseNewTimer(	const char * const pcTimerName,			/*lint !e971 Unqualified char 
 216:Middlewares/Third_Party/FreeRTOS/Source/timers.c **** 									const TickType_t xTimerPeriodInTicks,
 217:Middlewares/Third_Party/FreeRTOS/Source/timers.c **** 									const UBaseType_t uxAutoReload,
 218:Middlewares/Third_Party/FreeRTOS/Source/timers.c **** 									void * const pvTimerID,
 219:Middlewares/Third_Party/FreeRTOS/Source/timers.c **** 									TimerCallbackFunction_t pxCallbackFunction,
 220:Middlewares/Third_Party/FreeRTOS/Source/timers.c **** 									Timer_t *pxNewTimer ) PRIVILEGED_FUNCTION;
 221:Middlewares/Third_Party/FreeRTOS/Source/timers.c **** /*-----------------------------------------------------------*/
 222:Middlewares/Third_Party/FreeRTOS/Source/timers.c **** 
 223:Middlewares/Third_Party/FreeRTOS/Source/timers.c **** BaseType_t xTimerCreateTimerTask( void )
 224:Middlewares/Third_Party/FreeRTOS/Source/timers.c **** {
 225:Middlewares/Third_Party/FreeRTOS/Source/timers.c **** BaseType_t xReturn = pdFAIL;
 226:Middlewares/Third_Party/FreeRTOS/Source/timers.c **** 
 227:Middlewares/Third_Party/FreeRTOS/Source/timers.c **** 	/* This function is called when the scheduler is started if
 228:Middlewares/Third_Party/FreeRTOS/Source/timers.c **** 	configUSE_TIMERS is set to 1.  Check that the infrastructure used by the
 229:Middlewares/Third_Party/FreeRTOS/Source/timers.c **** 	timer service task has been created/initialised.  If timers have already
 230:Middlewares/Third_Party/FreeRTOS/Source/timers.c **** 	been created then the initialisation will already have been performed. */
 231:Middlewares/Third_Party/FreeRTOS/Source/timers.c **** 	prvCheckForValidListAndQueue();
 232:Middlewares/Third_Party/FreeRTOS/Source/timers.c **** 
 233:Middlewares/Third_Party/FreeRTOS/Source/timers.c **** 	if( xTimerQueue != NULL )
 234:Middlewares/Third_Party/FreeRTOS/Source/timers.c **** 	{
 235:Middlewares/Third_Party/FreeRTOS/Source/timers.c **** 		#if( configSUPPORT_STATIC_ALLOCATION == 1 )
 236:Middlewares/Third_Party/FreeRTOS/Source/timers.c **** 		{
 237:Middlewares/Third_Party/FreeRTOS/Source/timers.c **** 			StaticTask_t *pxTimerTaskTCBBuffer = NULL;
 238:Middlewares/Third_Party/FreeRTOS/Source/timers.c **** 			StackType_t *pxTimerTaskStackBuffer = NULL;
 239:Middlewares/Third_Party/FreeRTOS/Source/timers.c **** 			uint32_t ulTimerTaskStackSize;
 240:Middlewares/Third_Party/FreeRTOS/Source/timers.c **** 
 241:Middlewares/Third_Party/FreeRTOS/Source/timers.c **** 			vApplicationGetTimerTaskMemory( &pxTimerTaskTCBBuffer, &pxTimerTaskStackBuffer, &ulTimerTaskStac
 242:Middlewares/Third_Party/FreeRTOS/Source/timers.c **** 			xTimerTaskHandle = xTaskCreateStatic(	prvTimerTask,
 243:Middlewares/Third_Party/FreeRTOS/Source/timers.c **** 													configTIMER_SERVICE_TASK_NAME,
 244:Middlewares/Third_Party/FreeRTOS/Source/timers.c **** 													ulTimerTaskStackSize,
 245:Middlewares/Third_Party/FreeRTOS/Source/timers.c **** 													NULL,
 246:Middlewares/Third_Party/FreeRTOS/Source/timers.c **** 													( ( UBaseType_t ) configTIMER_TASK_PRIORITY ) | portPRIVILEGE_BIT,
 247:Middlewares/Third_Party/FreeRTOS/Source/timers.c **** 													pxTimerTaskStackBuffer,
 248:Middlewares/Third_Party/FreeRTOS/Source/timers.c **** 													pxTimerTaskTCBBuffer );
 249:Middlewares/Third_Party/FreeRTOS/Source/timers.c **** 
 250:Middlewares/Third_Party/FreeRTOS/Source/timers.c **** 			if( xTimerTaskHandle != NULL )
 251:Middlewares/Third_Party/FreeRTOS/Source/timers.c **** 			{
 252:Middlewares/Third_Party/FreeRTOS/Source/timers.c **** 				xReturn = pdPASS;
 253:Middlewares/Third_Party/FreeRTOS/Source/timers.c **** 			}
 254:Middlewares/Third_Party/FreeRTOS/Source/timers.c **** 		}
 255:Middlewares/Third_Party/FreeRTOS/Source/timers.c **** 		#else
 256:Middlewares/Third_Party/FreeRTOS/Source/timers.c **** 		{
 257:Middlewares/Third_Party/FreeRTOS/Source/timers.c **** 			xReturn = xTaskCreate(	prvTimerTask,
 258:Middlewares/Third_Party/FreeRTOS/Source/timers.c **** 									configTIMER_SERVICE_TASK_NAME,
 259:Middlewares/Third_Party/FreeRTOS/Source/timers.c **** 									configTIMER_TASK_STACK_DEPTH,
 260:Middlewares/Third_Party/FreeRTOS/Source/timers.c **** 									NULL,
ARM GAS  /var/folders/kr/g9ry2bg56g773797gdtkvvkw0000gn/T//cchcobXk.s 			page 6


 261:Middlewares/Third_Party/FreeRTOS/Source/timers.c **** 									( ( UBaseType_t ) configTIMER_TASK_PRIORITY ) | portPRIVILEGE_BIT,
 262:Middlewares/Third_Party/FreeRTOS/Source/timers.c **** 									&xTimerTaskHandle );
 263:Middlewares/Third_Party/FreeRTOS/Source/timers.c **** 		}
 264:Middlewares/Third_Party/FreeRTOS/Source/timers.c **** 		#endif /* configSUPPORT_STATIC_ALLOCATION */
 265:Middlewares/Third_Party/FreeRTOS/Source/timers.c **** 	}
 266:Middlewares/Third_Party/FreeRTOS/Source/timers.c **** 	else
 267:Middlewares/Third_Party/FreeRTOS/Source/timers.c **** 	{
 268:Middlewares/Third_Party/FreeRTOS/Source/timers.c **** 		mtCOVERAGE_TEST_MARKER();
 269:Middlewares/Third_Party/FreeRTOS/Source/timers.c **** 	}
 270:Middlewares/Third_Party/FreeRTOS/Source/timers.c **** 
 271:Middlewares/Third_Party/FreeRTOS/Source/timers.c **** 	configASSERT( xReturn );
 272:Middlewares/Third_Party/FreeRTOS/Source/timers.c **** 	return xReturn;
 273:Middlewares/Third_Party/FreeRTOS/Source/timers.c **** }
 274:Middlewares/Third_Party/FreeRTOS/Source/timers.c **** /*-----------------------------------------------------------*/
 275:Middlewares/Third_Party/FreeRTOS/Source/timers.c **** 
 276:Middlewares/Third_Party/FreeRTOS/Source/timers.c **** #if( configSUPPORT_DYNAMIC_ALLOCATION == 1 )
 277:Middlewares/Third_Party/FreeRTOS/Source/timers.c **** 
 278:Middlewares/Third_Party/FreeRTOS/Source/timers.c **** 	TimerHandle_t xTimerCreate(	const char * const pcTimerName,			/*lint !e971 Unqualified char types 
 279:Middlewares/Third_Party/FreeRTOS/Source/timers.c **** 								const TickType_t xTimerPeriodInTicks,
 280:Middlewares/Third_Party/FreeRTOS/Source/timers.c **** 								const UBaseType_t uxAutoReload,
 281:Middlewares/Third_Party/FreeRTOS/Source/timers.c **** 								void * const pvTimerID,
 282:Middlewares/Third_Party/FreeRTOS/Source/timers.c **** 								TimerCallbackFunction_t pxCallbackFunction )
 283:Middlewares/Third_Party/FreeRTOS/Source/timers.c **** 	{
 284:Middlewares/Third_Party/FreeRTOS/Source/timers.c **** 	Timer_t *pxNewTimer;
 285:Middlewares/Third_Party/FreeRTOS/Source/timers.c **** 
 286:Middlewares/Third_Party/FreeRTOS/Source/timers.c **** 		pxNewTimer = ( Timer_t * ) pvPortMalloc( sizeof( Timer_t ) );
 287:Middlewares/Third_Party/FreeRTOS/Source/timers.c **** 
 288:Middlewares/Third_Party/FreeRTOS/Source/timers.c **** 		if( pxNewTimer != NULL )
 289:Middlewares/Third_Party/FreeRTOS/Source/timers.c **** 		{
 290:Middlewares/Third_Party/FreeRTOS/Source/timers.c **** 			prvInitialiseNewTimer( pcTimerName, xTimerPeriodInTicks, uxAutoReload, pvTimerID, pxCallbackFunc
 291:Middlewares/Third_Party/FreeRTOS/Source/timers.c **** 
 292:Middlewares/Third_Party/FreeRTOS/Source/timers.c **** 			#if( configSUPPORT_STATIC_ALLOCATION == 1 )
 293:Middlewares/Third_Party/FreeRTOS/Source/timers.c **** 			{
 294:Middlewares/Third_Party/FreeRTOS/Source/timers.c **** 				/* Timers can be created statically or dynamically, so note this
 295:Middlewares/Third_Party/FreeRTOS/Source/timers.c **** 				timer was created dynamically in case the timer is later
 296:Middlewares/Third_Party/FreeRTOS/Source/timers.c **** 				deleted. */
 297:Middlewares/Third_Party/FreeRTOS/Source/timers.c **** 				pxNewTimer->ucStaticallyAllocated = pdFALSE;
 298:Middlewares/Third_Party/FreeRTOS/Source/timers.c **** 			}
 299:Middlewares/Third_Party/FreeRTOS/Source/timers.c **** 			#endif /* configSUPPORT_STATIC_ALLOCATION */
 300:Middlewares/Third_Party/FreeRTOS/Source/timers.c **** 		}
 301:Middlewares/Third_Party/FreeRTOS/Source/timers.c **** 
 302:Middlewares/Third_Party/FreeRTOS/Source/timers.c **** 		return pxNewTimer;
 303:Middlewares/Third_Party/FreeRTOS/Source/timers.c **** 	}
 304:Middlewares/Third_Party/FreeRTOS/Source/timers.c **** 
 305:Middlewares/Third_Party/FreeRTOS/Source/timers.c **** #endif /* configSUPPORT_STATIC_ALLOCATION */
 306:Middlewares/Third_Party/FreeRTOS/Source/timers.c **** /*-----------------------------------------------------------*/
 307:Middlewares/Third_Party/FreeRTOS/Source/timers.c **** 
 308:Middlewares/Third_Party/FreeRTOS/Source/timers.c **** #if( configSUPPORT_STATIC_ALLOCATION == 1 )
 309:Middlewares/Third_Party/FreeRTOS/Source/timers.c **** 
 310:Middlewares/Third_Party/FreeRTOS/Source/timers.c **** 	TimerHandle_t xTimerCreateStatic(	const char * const pcTimerName,		/*lint !e971 Unqualified char t
 311:Middlewares/Third_Party/FreeRTOS/Source/timers.c **** 										const TickType_t xTimerPeriodInTicks,
 312:Middlewares/Third_Party/FreeRTOS/Source/timers.c **** 										const UBaseType_t uxAutoReload,
 313:Middlewares/Third_Party/FreeRTOS/Source/timers.c **** 										void * const pvTimerID,
 314:Middlewares/Third_Party/FreeRTOS/Source/timers.c **** 										TimerCallbackFunction_t pxCallbackFunction,
 315:Middlewares/Third_Party/FreeRTOS/Source/timers.c **** 										StaticTimer_t *pxTimerBuffer )
 316:Middlewares/Third_Party/FreeRTOS/Source/timers.c **** 	{
 317:Middlewares/Third_Party/FreeRTOS/Source/timers.c **** 	Timer_t *pxNewTimer;
ARM GAS  /var/folders/kr/g9ry2bg56g773797gdtkvvkw0000gn/T//cchcobXk.s 			page 7


 318:Middlewares/Third_Party/FreeRTOS/Source/timers.c **** 
 319:Middlewares/Third_Party/FreeRTOS/Source/timers.c **** 		#if( configASSERT_DEFINED == 1 )
 320:Middlewares/Third_Party/FreeRTOS/Source/timers.c **** 		{
 321:Middlewares/Third_Party/FreeRTOS/Source/timers.c **** 			/* Sanity check that the size of the structure used to declare a
 322:Middlewares/Third_Party/FreeRTOS/Source/timers.c **** 			variable of type StaticTimer_t equals the size of the real timer
 323:Middlewares/Third_Party/FreeRTOS/Source/timers.c **** 			structure. */
 324:Middlewares/Third_Party/FreeRTOS/Source/timers.c **** 			volatile size_t xSize = sizeof( StaticTimer_t );
 325:Middlewares/Third_Party/FreeRTOS/Source/timers.c **** 			configASSERT( xSize == sizeof( Timer_t ) );
 326:Middlewares/Third_Party/FreeRTOS/Source/timers.c **** 		}
 327:Middlewares/Third_Party/FreeRTOS/Source/timers.c **** 		#endif /* configASSERT_DEFINED */
 328:Middlewares/Third_Party/FreeRTOS/Source/timers.c **** 
 329:Middlewares/Third_Party/FreeRTOS/Source/timers.c **** 		/* A pointer to a StaticTimer_t structure MUST be provided, use it. */
 330:Middlewares/Third_Party/FreeRTOS/Source/timers.c **** 		configASSERT( pxTimerBuffer );
 331:Middlewares/Third_Party/FreeRTOS/Source/timers.c **** 		pxNewTimer = ( Timer_t * ) pxTimerBuffer; /*lint !e740 Unusual cast is ok as the structures are d
 332:Middlewares/Third_Party/FreeRTOS/Source/timers.c **** 
 333:Middlewares/Third_Party/FreeRTOS/Source/timers.c **** 		if( pxNewTimer != NULL )
 334:Middlewares/Third_Party/FreeRTOS/Source/timers.c **** 		{
 335:Middlewares/Third_Party/FreeRTOS/Source/timers.c **** 			prvInitialiseNewTimer( pcTimerName, xTimerPeriodInTicks, uxAutoReload, pvTimerID, pxCallbackFunc
 336:Middlewares/Third_Party/FreeRTOS/Source/timers.c **** 
 337:Middlewares/Third_Party/FreeRTOS/Source/timers.c **** 			#if( configSUPPORT_DYNAMIC_ALLOCATION == 1 )
 338:Middlewares/Third_Party/FreeRTOS/Source/timers.c **** 			{
 339:Middlewares/Third_Party/FreeRTOS/Source/timers.c **** 				/* Timers can be created statically or dynamically so note this
 340:Middlewares/Third_Party/FreeRTOS/Source/timers.c **** 				timer was created statically in case it is later deleted. */
 341:Middlewares/Third_Party/FreeRTOS/Source/timers.c **** 				pxNewTimer->ucStaticallyAllocated = pdTRUE;
 342:Middlewares/Third_Party/FreeRTOS/Source/timers.c **** 			}
 343:Middlewares/Third_Party/FreeRTOS/Source/timers.c **** 			#endif /* configSUPPORT_DYNAMIC_ALLOCATION */
 344:Middlewares/Third_Party/FreeRTOS/Source/timers.c **** 		}
 345:Middlewares/Third_Party/FreeRTOS/Source/timers.c **** 
 346:Middlewares/Third_Party/FreeRTOS/Source/timers.c **** 		return pxNewTimer;
 347:Middlewares/Third_Party/FreeRTOS/Source/timers.c **** 	}
 348:Middlewares/Third_Party/FreeRTOS/Source/timers.c **** 
 349:Middlewares/Third_Party/FreeRTOS/Source/timers.c **** #endif /* configSUPPORT_STATIC_ALLOCATION */
 350:Middlewares/Third_Party/FreeRTOS/Source/timers.c **** /*-----------------------------------------------------------*/
 351:Middlewares/Third_Party/FreeRTOS/Source/timers.c **** 
 352:Middlewares/Third_Party/FreeRTOS/Source/timers.c **** static void prvInitialiseNewTimer(	const char * const pcTimerName,			/*lint !e971 Unqualified char 
 353:Middlewares/Third_Party/FreeRTOS/Source/timers.c **** 									const TickType_t xTimerPeriodInTicks,
 354:Middlewares/Third_Party/FreeRTOS/Source/timers.c **** 									const UBaseType_t uxAutoReload,
 355:Middlewares/Third_Party/FreeRTOS/Source/timers.c **** 									void * const pvTimerID,
 356:Middlewares/Third_Party/FreeRTOS/Source/timers.c **** 									TimerCallbackFunction_t pxCallbackFunction,
 357:Middlewares/Third_Party/FreeRTOS/Source/timers.c **** 									Timer_t *pxNewTimer )
 358:Middlewares/Third_Party/FreeRTOS/Source/timers.c **** {
 359:Middlewares/Third_Party/FreeRTOS/Source/timers.c **** 	/* 0 is not a valid value for xTimerPeriodInTicks. */
 360:Middlewares/Third_Party/FreeRTOS/Source/timers.c **** 	configASSERT( ( xTimerPeriodInTicks > 0 ) );
 361:Middlewares/Third_Party/FreeRTOS/Source/timers.c **** 
 362:Middlewares/Third_Party/FreeRTOS/Source/timers.c **** 	if( pxNewTimer != NULL )
 363:Middlewares/Third_Party/FreeRTOS/Source/timers.c **** 	{
 364:Middlewares/Third_Party/FreeRTOS/Source/timers.c **** 		/* Ensure the infrastructure used by the timer service task has been
 365:Middlewares/Third_Party/FreeRTOS/Source/timers.c **** 		created/initialised. */
 366:Middlewares/Third_Party/FreeRTOS/Source/timers.c **** 		prvCheckForValidListAndQueue();
 367:Middlewares/Third_Party/FreeRTOS/Source/timers.c **** 
 368:Middlewares/Third_Party/FreeRTOS/Source/timers.c **** 		/* Initialise the timer structure members using the function
 369:Middlewares/Third_Party/FreeRTOS/Source/timers.c **** 		parameters. */
 370:Middlewares/Third_Party/FreeRTOS/Source/timers.c **** 		pxNewTimer->pcTimerName = pcTimerName;
 371:Middlewares/Third_Party/FreeRTOS/Source/timers.c **** 		pxNewTimer->xTimerPeriodInTicks = xTimerPeriodInTicks;
 372:Middlewares/Third_Party/FreeRTOS/Source/timers.c **** 		pxNewTimer->uxAutoReload = uxAutoReload;
 373:Middlewares/Third_Party/FreeRTOS/Source/timers.c **** 		pxNewTimer->pvTimerID = pvTimerID;
 374:Middlewares/Third_Party/FreeRTOS/Source/timers.c **** 		pxNewTimer->pxCallbackFunction = pxCallbackFunction;
ARM GAS  /var/folders/kr/g9ry2bg56g773797gdtkvvkw0000gn/T//cchcobXk.s 			page 8


 375:Middlewares/Third_Party/FreeRTOS/Source/timers.c **** 		vListInitialiseItem( &( pxNewTimer->xTimerListItem ) );
 376:Middlewares/Third_Party/FreeRTOS/Source/timers.c **** 		traceTIMER_CREATE( pxNewTimer );
 377:Middlewares/Third_Party/FreeRTOS/Source/timers.c **** 	}
 378:Middlewares/Third_Party/FreeRTOS/Source/timers.c **** }
 379:Middlewares/Third_Party/FreeRTOS/Source/timers.c **** /*-----------------------------------------------------------*/
 380:Middlewares/Third_Party/FreeRTOS/Source/timers.c **** 
 381:Middlewares/Third_Party/FreeRTOS/Source/timers.c **** BaseType_t xTimerGenericCommand( TimerHandle_t xTimer, const BaseType_t xCommandID, const TickType_
 382:Middlewares/Third_Party/FreeRTOS/Source/timers.c **** {
 383:Middlewares/Third_Party/FreeRTOS/Source/timers.c **** BaseType_t xReturn = pdFAIL;
 384:Middlewares/Third_Party/FreeRTOS/Source/timers.c **** DaemonTaskMessage_t xMessage;
 385:Middlewares/Third_Party/FreeRTOS/Source/timers.c **** 
 386:Middlewares/Third_Party/FreeRTOS/Source/timers.c **** 	configASSERT( xTimer );
 387:Middlewares/Third_Party/FreeRTOS/Source/timers.c **** 
 388:Middlewares/Third_Party/FreeRTOS/Source/timers.c **** 	/* Send a message to the timer service task to perform a particular action
 389:Middlewares/Third_Party/FreeRTOS/Source/timers.c **** 	on a particular timer definition. */
 390:Middlewares/Third_Party/FreeRTOS/Source/timers.c **** 	if( xTimerQueue != NULL )
 391:Middlewares/Third_Party/FreeRTOS/Source/timers.c **** 	{
 392:Middlewares/Third_Party/FreeRTOS/Source/timers.c **** 		/* Send a command to the timer service task to start the xTimer timer. */
 393:Middlewares/Third_Party/FreeRTOS/Source/timers.c **** 		xMessage.xMessageID = xCommandID;
 394:Middlewares/Third_Party/FreeRTOS/Source/timers.c **** 		xMessage.u.xTimerParameters.xMessageValue = xOptionalValue;
 395:Middlewares/Third_Party/FreeRTOS/Source/timers.c **** 		xMessage.u.xTimerParameters.pxTimer = ( Timer_t * ) xTimer;
 396:Middlewares/Third_Party/FreeRTOS/Source/timers.c **** 
 397:Middlewares/Third_Party/FreeRTOS/Source/timers.c **** 		if( xCommandID < tmrFIRST_FROM_ISR_COMMAND )
 398:Middlewares/Third_Party/FreeRTOS/Source/timers.c **** 		{
 399:Middlewares/Third_Party/FreeRTOS/Source/timers.c **** 			if( xTaskGetSchedulerState() == taskSCHEDULER_RUNNING )
 400:Middlewares/Third_Party/FreeRTOS/Source/timers.c **** 			{
 401:Middlewares/Third_Party/FreeRTOS/Source/timers.c **** 				xReturn = xQueueSendToBack( xTimerQueue, &xMessage, xTicksToWait );
 402:Middlewares/Third_Party/FreeRTOS/Source/timers.c **** 			}
 403:Middlewares/Third_Party/FreeRTOS/Source/timers.c **** 			else
 404:Middlewares/Third_Party/FreeRTOS/Source/timers.c **** 			{
 405:Middlewares/Third_Party/FreeRTOS/Source/timers.c **** 				xReturn = xQueueSendToBack( xTimerQueue, &xMessage, tmrNO_DELAY );
 406:Middlewares/Third_Party/FreeRTOS/Source/timers.c **** 			}
 407:Middlewares/Third_Party/FreeRTOS/Source/timers.c **** 		}
 408:Middlewares/Third_Party/FreeRTOS/Source/timers.c **** 		else
 409:Middlewares/Third_Party/FreeRTOS/Source/timers.c **** 		{
 410:Middlewares/Third_Party/FreeRTOS/Source/timers.c **** 			xReturn = xQueueSendToBackFromISR( xTimerQueue, &xMessage, pxHigherPriorityTaskWoken );
 411:Middlewares/Third_Party/FreeRTOS/Source/timers.c **** 		}
 412:Middlewares/Third_Party/FreeRTOS/Source/timers.c **** 
 413:Middlewares/Third_Party/FreeRTOS/Source/timers.c **** 		traceTIMER_COMMAND_SEND( xTimer, xCommandID, xOptionalValue, xReturn );
 414:Middlewares/Third_Party/FreeRTOS/Source/timers.c **** 	}
 415:Middlewares/Third_Party/FreeRTOS/Source/timers.c **** 	else
 416:Middlewares/Third_Party/FreeRTOS/Source/timers.c **** 	{
 417:Middlewares/Third_Party/FreeRTOS/Source/timers.c **** 		mtCOVERAGE_TEST_MARKER();
 418:Middlewares/Third_Party/FreeRTOS/Source/timers.c **** 	}
 419:Middlewares/Third_Party/FreeRTOS/Source/timers.c **** 
 420:Middlewares/Third_Party/FreeRTOS/Source/timers.c **** 	return xReturn;
 421:Middlewares/Third_Party/FreeRTOS/Source/timers.c **** }
 422:Middlewares/Third_Party/FreeRTOS/Source/timers.c **** /*-----------------------------------------------------------*/
 423:Middlewares/Third_Party/FreeRTOS/Source/timers.c **** 
 424:Middlewares/Third_Party/FreeRTOS/Source/timers.c **** TaskHandle_t xTimerGetTimerDaemonTaskHandle( void )
 425:Middlewares/Third_Party/FreeRTOS/Source/timers.c **** {
 426:Middlewares/Third_Party/FreeRTOS/Source/timers.c **** 	/* If xTimerGetTimerDaemonTaskHandle() is called before the scheduler has been
 427:Middlewares/Third_Party/FreeRTOS/Source/timers.c **** 	started, then xTimerTaskHandle will be NULL. */
 428:Middlewares/Third_Party/FreeRTOS/Source/timers.c **** 	configASSERT( ( xTimerTaskHandle != NULL ) );
 429:Middlewares/Third_Party/FreeRTOS/Source/timers.c **** 	return xTimerTaskHandle;
 430:Middlewares/Third_Party/FreeRTOS/Source/timers.c **** }
 431:Middlewares/Third_Party/FreeRTOS/Source/timers.c **** /*-----------------------------------------------------------*/
ARM GAS  /var/folders/kr/g9ry2bg56g773797gdtkvvkw0000gn/T//cchcobXk.s 			page 9


 432:Middlewares/Third_Party/FreeRTOS/Source/timers.c **** 
 433:Middlewares/Third_Party/FreeRTOS/Source/timers.c **** TickType_t xTimerGetPeriod( TimerHandle_t xTimer )
 434:Middlewares/Third_Party/FreeRTOS/Source/timers.c **** {
 435:Middlewares/Third_Party/FreeRTOS/Source/timers.c **** Timer_t *pxTimer = ( Timer_t * ) xTimer;
 436:Middlewares/Third_Party/FreeRTOS/Source/timers.c **** 
 437:Middlewares/Third_Party/FreeRTOS/Source/timers.c **** 	configASSERT( xTimer );
 438:Middlewares/Third_Party/FreeRTOS/Source/timers.c **** 	return pxTimer->xTimerPeriodInTicks;
 439:Middlewares/Third_Party/FreeRTOS/Source/timers.c **** }
 440:Middlewares/Third_Party/FreeRTOS/Source/timers.c **** /*-----------------------------------------------------------*/
 441:Middlewares/Third_Party/FreeRTOS/Source/timers.c **** 
 442:Middlewares/Third_Party/FreeRTOS/Source/timers.c **** TickType_t xTimerGetExpiryTime( TimerHandle_t xTimer )
 443:Middlewares/Third_Party/FreeRTOS/Source/timers.c **** {
 444:Middlewares/Third_Party/FreeRTOS/Source/timers.c **** Timer_t * pxTimer = ( Timer_t * ) xTimer;
 445:Middlewares/Third_Party/FreeRTOS/Source/timers.c **** TickType_t xReturn;
 446:Middlewares/Third_Party/FreeRTOS/Source/timers.c **** 
 447:Middlewares/Third_Party/FreeRTOS/Source/timers.c **** 	configASSERT( xTimer );
 448:Middlewares/Third_Party/FreeRTOS/Source/timers.c **** 	xReturn = listGET_LIST_ITEM_VALUE( &( pxTimer->xTimerListItem ) );
 449:Middlewares/Third_Party/FreeRTOS/Source/timers.c **** 	return xReturn;
 450:Middlewares/Third_Party/FreeRTOS/Source/timers.c **** }
 451:Middlewares/Third_Party/FreeRTOS/Source/timers.c **** /*-----------------------------------------------------------*/
 452:Middlewares/Third_Party/FreeRTOS/Source/timers.c **** 
 453:Middlewares/Third_Party/FreeRTOS/Source/timers.c **** const char * pcTimerGetName( TimerHandle_t xTimer ) /*lint !e971 Unqualified char types are allowed
 454:Middlewares/Third_Party/FreeRTOS/Source/timers.c **** {
 455:Middlewares/Third_Party/FreeRTOS/Source/timers.c **** Timer_t *pxTimer = ( Timer_t * ) xTimer;
 456:Middlewares/Third_Party/FreeRTOS/Source/timers.c **** 
 457:Middlewares/Third_Party/FreeRTOS/Source/timers.c **** 	configASSERT( xTimer );
 458:Middlewares/Third_Party/FreeRTOS/Source/timers.c **** 	return pxTimer->pcTimerName;
 459:Middlewares/Third_Party/FreeRTOS/Source/timers.c **** }
 460:Middlewares/Third_Party/FreeRTOS/Source/timers.c **** /*-----------------------------------------------------------*/
 461:Middlewares/Third_Party/FreeRTOS/Source/timers.c **** 
 462:Middlewares/Third_Party/FreeRTOS/Source/timers.c **** static void prvProcessExpiredTimer( const TickType_t xNextExpireTime, const TickType_t xTimeNow )
 463:Middlewares/Third_Party/FreeRTOS/Source/timers.c **** {
 464:Middlewares/Third_Party/FreeRTOS/Source/timers.c **** BaseType_t xResult;
 465:Middlewares/Third_Party/FreeRTOS/Source/timers.c **** Timer_t * const pxTimer = ( Timer_t * ) listGET_OWNER_OF_HEAD_ENTRY( pxCurrentTimerList );
 466:Middlewares/Third_Party/FreeRTOS/Source/timers.c **** 
 467:Middlewares/Third_Party/FreeRTOS/Source/timers.c **** 	/* Remove the timer from the list of active timers.  A check has already
 468:Middlewares/Third_Party/FreeRTOS/Source/timers.c **** 	been performed to ensure the list is not empty. */
 469:Middlewares/Third_Party/FreeRTOS/Source/timers.c **** 	( void ) uxListRemove( &( pxTimer->xTimerListItem ) );
 470:Middlewares/Third_Party/FreeRTOS/Source/timers.c **** 	traceTIMER_EXPIRED( pxTimer );
 471:Middlewares/Third_Party/FreeRTOS/Source/timers.c **** 
 472:Middlewares/Third_Party/FreeRTOS/Source/timers.c **** 	/* If the timer is an auto reload timer then calculate the next
 473:Middlewares/Third_Party/FreeRTOS/Source/timers.c **** 	expiry time and re-insert the timer in the list of active timers. */
 474:Middlewares/Third_Party/FreeRTOS/Source/timers.c **** 	if( pxTimer->uxAutoReload == ( UBaseType_t ) pdTRUE )
 475:Middlewares/Third_Party/FreeRTOS/Source/timers.c **** 	{
 476:Middlewares/Third_Party/FreeRTOS/Source/timers.c **** 		/* The timer is inserted into a list using a time relative to anything
 477:Middlewares/Third_Party/FreeRTOS/Source/timers.c **** 		other than the current time.  It will therefore be inserted into the
 478:Middlewares/Third_Party/FreeRTOS/Source/timers.c **** 		correct list relative to the time this task thinks it is now. */
 479:Middlewares/Third_Party/FreeRTOS/Source/timers.c **** 		if( prvInsertTimerInActiveList( pxTimer, ( xNextExpireTime + pxTimer->xTimerPeriodInTicks ), xTim
 480:Middlewares/Third_Party/FreeRTOS/Source/timers.c **** 		{
 481:Middlewares/Third_Party/FreeRTOS/Source/timers.c **** 			/* The timer expired before it was added to the active timer
 482:Middlewares/Third_Party/FreeRTOS/Source/timers.c **** 			list.  Reload it now.  */
 483:Middlewares/Third_Party/FreeRTOS/Source/timers.c **** 			xResult = xTimerGenericCommand( pxTimer, tmrCOMMAND_START_DONT_TRACE, xNextExpireTime, NULL, tmr
 484:Middlewares/Third_Party/FreeRTOS/Source/timers.c **** 			configASSERT( xResult );
 485:Middlewares/Third_Party/FreeRTOS/Source/timers.c **** 			( void ) xResult;
 486:Middlewares/Third_Party/FreeRTOS/Source/timers.c **** 		}
 487:Middlewares/Third_Party/FreeRTOS/Source/timers.c **** 		else
 488:Middlewares/Third_Party/FreeRTOS/Source/timers.c **** 		{
ARM GAS  /var/folders/kr/g9ry2bg56g773797gdtkvvkw0000gn/T//cchcobXk.s 			page 10


 489:Middlewares/Third_Party/FreeRTOS/Source/timers.c **** 			mtCOVERAGE_TEST_MARKER();
 490:Middlewares/Third_Party/FreeRTOS/Source/timers.c **** 		}
 491:Middlewares/Third_Party/FreeRTOS/Source/timers.c **** 	}
 492:Middlewares/Third_Party/FreeRTOS/Source/timers.c **** 	else
 493:Middlewares/Third_Party/FreeRTOS/Source/timers.c **** 	{
 494:Middlewares/Third_Party/FreeRTOS/Source/timers.c **** 		mtCOVERAGE_TEST_MARKER();
 495:Middlewares/Third_Party/FreeRTOS/Source/timers.c **** 	}
 496:Middlewares/Third_Party/FreeRTOS/Source/timers.c **** 
 497:Middlewares/Third_Party/FreeRTOS/Source/timers.c **** 	/* Call the timer callback. */
 498:Middlewares/Third_Party/FreeRTOS/Source/timers.c **** 	pxTimer->pxCallbackFunction( ( TimerHandle_t ) pxTimer );
 499:Middlewares/Third_Party/FreeRTOS/Source/timers.c **** }
 500:Middlewares/Third_Party/FreeRTOS/Source/timers.c **** /*-----------------------------------------------------------*/
 501:Middlewares/Third_Party/FreeRTOS/Source/timers.c **** 
 502:Middlewares/Third_Party/FreeRTOS/Source/timers.c **** static void prvTimerTask( void *pvParameters )
 503:Middlewares/Third_Party/FreeRTOS/Source/timers.c **** {
 504:Middlewares/Third_Party/FreeRTOS/Source/timers.c **** TickType_t xNextExpireTime;
 505:Middlewares/Third_Party/FreeRTOS/Source/timers.c **** BaseType_t xListWasEmpty;
 506:Middlewares/Third_Party/FreeRTOS/Source/timers.c **** 
 507:Middlewares/Third_Party/FreeRTOS/Source/timers.c **** 	/* Just to avoid compiler warnings. */
 508:Middlewares/Third_Party/FreeRTOS/Source/timers.c **** 	( void ) pvParameters;
 509:Middlewares/Third_Party/FreeRTOS/Source/timers.c **** 
 510:Middlewares/Third_Party/FreeRTOS/Source/timers.c **** 	#if( configUSE_DAEMON_TASK_STARTUP_HOOK == 1 )
 511:Middlewares/Third_Party/FreeRTOS/Source/timers.c **** 	{
 512:Middlewares/Third_Party/FreeRTOS/Source/timers.c **** 		extern void vApplicationDaemonTaskStartupHook( void );
 513:Middlewares/Third_Party/FreeRTOS/Source/timers.c **** 
 514:Middlewares/Third_Party/FreeRTOS/Source/timers.c **** 		/* Allow the application writer to execute some code in the context of
 515:Middlewares/Third_Party/FreeRTOS/Source/timers.c **** 		this task at the point the task starts executing.  This is useful if the
 516:Middlewares/Third_Party/FreeRTOS/Source/timers.c **** 		application includes initialisation code that would benefit from
 517:Middlewares/Third_Party/FreeRTOS/Source/timers.c **** 		executing after the scheduler has been started. */
 518:Middlewares/Third_Party/FreeRTOS/Source/timers.c **** 		vApplicationDaemonTaskStartupHook();
 519:Middlewares/Third_Party/FreeRTOS/Source/timers.c **** 	}
 520:Middlewares/Third_Party/FreeRTOS/Source/timers.c **** 	#endif /* configUSE_DAEMON_TASK_STARTUP_HOOK */
 521:Middlewares/Third_Party/FreeRTOS/Source/timers.c **** 
 522:Middlewares/Third_Party/FreeRTOS/Source/timers.c **** 	for( ;; )
 523:Middlewares/Third_Party/FreeRTOS/Source/timers.c **** 	{
 524:Middlewares/Third_Party/FreeRTOS/Source/timers.c **** 		/* Query the timers list to see if it contains any timers, and if so,
 525:Middlewares/Third_Party/FreeRTOS/Source/timers.c **** 		obtain the time at which the next timer will expire. */
 526:Middlewares/Third_Party/FreeRTOS/Source/timers.c **** 		xNextExpireTime = prvGetNextExpireTime( &xListWasEmpty );
 527:Middlewares/Third_Party/FreeRTOS/Source/timers.c **** 
 528:Middlewares/Third_Party/FreeRTOS/Source/timers.c **** 		/* If a timer has expired, process it.  Otherwise, block this task
 529:Middlewares/Third_Party/FreeRTOS/Source/timers.c **** 		until either a timer does expire, or a command is received. */
 530:Middlewares/Third_Party/FreeRTOS/Source/timers.c **** 		prvProcessTimerOrBlockTask( xNextExpireTime, xListWasEmpty );
 531:Middlewares/Third_Party/FreeRTOS/Source/timers.c **** 
 532:Middlewares/Third_Party/FreeRTOS/Source/timers.c **** 		/* Empty the command queue. */
 533:Middlewares/Third_Party/FreeRTOS/Source/timers.c **** 		prvProcessReceivedCommands();
 534:Middlewares/Third_Party/FreeRTOS/Source/timers.c **** 	}
 535:Middlewares/Third_Party/FreeRTOS/Source/timers.c **** }
 536:Middlewares/Third_Party/FreeRTOS/Source/timers.c **** /*-----------------------------------------------------------*/
 537:Middlewares/Third_Party/FreeRTOS/Source/timers.c **** 
 538:Middlewares/Third_Party/FreeRTOS/Source/timers.c **** static void prvProcessTimerOrBlockTask( const TickType_t xNextExpireTime, BaseType_t xListWasEmpty 
 539:Middlewares/Third_Party/FreeRTOS/Source/timers.c **** {
 540:Middlewares/Third_Party/FreeRTOS/Source/timers.c **** TickType_t xTimeNow;
 541:Middlewares/Third_Party/FreeRTOS/Source/timers.c **** BaseType_t xTimerListsWereSwitched;
 542:Middlewares/Third_Party/FreeRTOS/Source/timers.c **** 
 543:Middlewares/Third_Party/FreeRTOS/Source/timers.c **** 	vTaskSuspendAll();
 544:Middlewares/Third_Party/FreeRTOS/Source/timers.c **** 	{
 545:Middlewares/Third_Party/FreeRTOS/Source/timers.c **** 		/* Obtain the time now to make an assessment as to whether the timer
ARM GAS  /var/folders/kr/g9ry2bg56g773797gdtkvvkw0000gn/T//cchcobXk.s 			page 11


 546:Middlewares/Third_Party/FreeRTOS/Source/timers.c **** 		has expired or not.  If obtaining the time causes the lists to switch
 547:Middlewares/Third_Party/FreeRTOS/Source/timers.c **** 		then don't process this timer as any timers that remained in the list
 548:Middlewares/Third_Party/FreeRTOS/Source/timers.c **** 		when the lists were switched will have been processed within the
 549:Middlewares/Third_Party/FreeRTOS/Source/timers.c **** 		prvSampleTimeNow() function. */
 550:Middlewares/Third_Party/FreeRTOS/Source/timers.c **** 		xTimeNow = prvSampleTimeNow( &xTimerListsWereSwitched );
 551:Middlewares/Third_Party/FreeRTOS/Source/timers.c **** 		if( xTimerListsWereSwitched == pdFALSE )
 552:Middlewares/Third_Party/FreeRTOS/Source/timers.c **** 		{
 553:Middlewares/Third_Party/FreeRTOS/Source/timers.c **** 			/* The tick count has not overflowed, has the timer expired? */
 554:Middlewares/Third_Party/FreeRTOS/Source/timers.c **** 			if( ( xListWasEmpty == pdFALSE ) && ( xNextExpireTime <= xTimeNow ) )
 555:Middlewares/Third_Party/FreeRTOS/Source/timers.c **** 			{
 556:Middlewares/Third_Party/FreeRTOS/Source/timers.c **** 				( void ) xTaskResumeAll();
 557:Middlewares/Third_Party/FreeRTOS/Source/timers.c **** 				prvProcessExpiredTimer( xNextExpireTime, xTimeNow );
 558:Middlewares/Third_Party/FreeRTOS/Source/timers.c **** 			}
 559:Middlewares/Third_Party/FreeRTOS/Source/timers.c **** 			else
 560:Middlewares/Third_Party/FreeRTOS/Source/timers.c **** 			{
 561:Middlewares/Third_Party/FreeRTOS/Source/timers.c **** 				/* The tick count has not overflowed, and the next expire
 562:Middlewares/Third_Party/FreeRTOS/Source/timers.c **** 				time has not been reached yet.  This task should therefore
 563:Middlewares/Third_Party/FreeRTOS/Source/timers.c **** 				block to wait for the next expire time or a command to be
 564:Middlewares/Third_Party/FreeRTOS/Source/timers.c **** 				received - whichever comes first.  The following line cannot
 565:Middlewares/Third_Party/FreeRTOS/Source/timers.c **** 				be reached unless xNextExpireTime > xTimeNow, except in the
 566:Middlewares/Third_Party/FreeRTOS/Source/timers.c **** 				case when the current timer list is empty. */
 567:Middlewares/Third_Party/FreeRTOS/Source/timers.c **** 				if( xListWasEmpty != pdFALSE )
 568:Middlewares/Third_Party/FreeRTOS/Source/timers.c **** 				{
 569:Middlewares/Third_Party/FreeRTOS/Source/timers.c **** 					/* The current timer list is empty - is the overflow list
 570:Middlewares/Third_Party/FreeRTOS/Source/timers.c **** 					also empty? */
 571:Middlewares/Third_Party/FreeRTOS/Source/timers.c **** 					xListWasEmpty = listLIST_IS_EMPTY( pxOverflowTimerList );
 572:Middlewares/Third_Party/FreeRTOS/Source/timers.c **** 				}
 573:Middlewares/Third_Party/FreeRTOS/Source/timers.c **** 
 574:Middlewares/Third_Party/FreeRTOS/Source/timers.c **** 				vQueueWaitForMessageRestricted( xTimerQueue, ( xNextExpireTime - xTimeNow ), xListWasEmpty );
 575:Middlewares/Third_Party/FreeRTOS/Source/timers.c **** 
 576:Middlewares/Third_Party/FreeRTOS/Source/timers.c **** 				if( xTaskResumeAll() == pdFALSE )
 577:Middlewares/Third_Party/FreeRTOS/Source/timers.c **** 				{
 578:Middlewares/Third_Party/FreeRTOS/Source/timers.c **** 					/* Yield to wait for either a command to arrive, or the
 579:Middlewares/Third_Party/FreeRTOS/Source/timers.c **** 					block time to expire.  If a command arrived between the
 580:Middlewares/Third_Party/FreeRTOS/Source/timers.c **** 					critical section being exited and this yield then the yield
 581:Middlewares/Third_Party/FreeRTOS/Source/timers.c **** 					will not cause the task to block. */
 582:Middlewares/Third_Party/FreeRTOS/Source/timers.c **** 					portYIELD_WITHIN_API();
 583:Middlewares/Third_Party/FreeRTOS/Source/timers.c **** 				}
 584:Middlewares/Third_Party/FreeRTOS/Source/timers.c **** 				else
 585:Middlewares/Third_Party/FreeRTOS/Source/timers.c **** 				{
 586:Middlewares/Third_Party/FreeRTOS/Source/timers.c **** 					mtCOVERAGE_TEST_MARKER();
 587:Middlewares/Third_Party/FreeRTOS/Source/timers.c **** 				}
 588:Middlewares/Third_Party/FreeRTOS/Source/timers.c **** 			}
 589:Middlewares/Third_Party/FreeRTOS/Source/timers.c **** 		}
 590:Middlewares/Third_Party/FreeRTOS/Source/timers.c **** 		else
 591:Middlewares/Third_Party/FreeRTOS/Source/timers.c **** 		{
 592:Middlewares/Third_Party/FreeRTOS/Source/timers.c **** 			( void ) xTaskResumeAll();
 593:Middlewares/Third_Party/FreeRTOS/Source/timers.c **** 		}
 594:Middlewares/Third_Party/FreeRTOS/Source/timers.c **** 	}
 595:Middlewares/Third_Party/FreeRTOS/Source/timers.c **** }
 596:Middlewares/Third_Party/FreeRTOS/Source/timers.c **** /*-----------------------------------------------------------*/
 597:Middlewares/Third_Party/FreeRTOS/Source/timers.c **** 
 598:Middlewares/Third_Party/FreeRTOS/Source/timers.c **** static TickType_t prvGetNextExpireTime( BaseType_t * const pxListWasEmpty )
 599:Middlewares/Third_Party/FreeRTOS/Source/timers.c **** {
  27              		.loc 1 599 1 view -0
  28              		.cfi_startproc
  29              		@ args = 0, pretend = 0, frame = 0
ARM GAS  /var/folders/kr/g9ry2bg56g773797gdtkvvkw0000gn/T//cchcobXk.s 			page 12


  30              		@ frame_needed = 0, uses_anonymous_args = 0
  31              		@ link register save eliminated.
 600:Middlewares/Third_Party/FreeRTOS/Source/timers.c **** TickType_t xNextExpireTime;
  32              		.loc 1 600 1 view .LVU1
 601:Middlewares/Third_Party/FreeRTOS/Source/timers.c **** 
 602:Middlewares/Third_Party/FreeRTOS/Source/timers.c **** 	/* Timers are listed in expiry time order, with the head of the list
 603:Middlewares/Third_Party/FreeRTOS/Source/timers.c **** 	referencing the task that will expire first.  Obtain the time at which
 604:Middlewares/Third_Party/FreeRTOS/Source/timers.c **** 	the timer with the nearest expiry time will expire.  If there are no
 605:Middlewares/Third_Party/FreeRTOS/Source/timers.c **** 	active timers then just set the next expire time to 0.  That will cause
 606:Middlewares/Third_Party/FreeRTOS/Source/timers.c **** 	this task to unblock when the tick count overflows, at which point the
 607:Middlewares/Third_Party/FreeRTOS/Source/timers.c **** 	timer lists will be switched and the next expiry time can be
 608:Middlewares/Third_Party/FreeRTOS/Source/timers.c **** 	re-assessed.  */
 609:Middlewares/Third_Party/FreeRTOS/Source/timers.c **** 	*pxListWasEmpty = listLIST_IS_EMPTY( pxCurrentTimerList );
  33              		.loc 1 609 2 view .LVU2
  34              		.loc 1 609 20 is_stmt 0 view .LVU3
  35 0000 064B     		ldr	r3, .L4
  36 0002 1A68     		ldr	r2, [r3]
  37 0004 1368     		ldr	r3, [r2]
  38 0006 5942     		rsbs	r1, r3, #0
  39 0008 4B41     		adcs	r3, r3, r1
  40              		.loc 1 609 18 view .LVU4
  41 000a 0360     		str	r3, [r0]
 610:Middlewares/Third_Party/FreeRTOS/Source/timers.c **** 	if( *pxListWasEmpty == pdFALSE )
  42              		.loc 1 610 2 is_stmt 1 view .LVU5
  43              		.loc 1 610 4 is_stmt 0 view .LVU6
  44 000c 002B     		cmp	r3, #0
  45 000e 02D1     		bne	.L3
 611:Middlewares/Third_Party/FreeRTOS/Source/timers.c **** 	{
 612:Middlewares/Third_Party/FreeRTOS/Source/timers.c **** 		xNextExpireTime = listGET_ITEM_VALUE_OF_HEAD_ENTRY( pxCurrentTimerList );
  46              		.loc 1 612 3 is_stmt 1 view .LVU7
  47              		.loc 1 612 21 is_stmt 0 view .LVU8
  48 0010 D368     		ldr	r3, [r2, #12]
  49              		.loc 1 612 19 view .LVU9
  50 0012 1868     		ldr	r0, [r3]
  51              	.LVL1:
  52              	.L1:
 613:Middlewares/Third_Party/FreeRTOS/Source/timers.c **** 	}
 614:Middlewares/Third_Party/FreeRTOS/Source/timers.c **** 	else
 615:Middlewares/Third_Party/FreeRTOS/Source/timers.c **** 	{
 616:Middlewares/Third_Party/FreeRTOS/Source/timers.c **** 		/* Ensure the task unblocks when the tick count rolls over. */
 617:Middlewares/Third_Party/FreeRTOS/Source/timers.c **** 		xNextExpireTime = ( TickType_t ) 0U;
 618:Middlewares/Third_Party/FreeRTOS/Source/timers.c **** 	}
 619:Middlewares/Third_Party/FreeRTOS/Source/timers.c **** 
 620:Middlewares/Third_Party/FreeRTOS/Source/timers.c **** 	return xNextExpireTime;
 621:Middlewares/Third_Party/FreeRTOS/Source/timers.c **** }
  53              		.loc 1 621 1 view .LVU10
  54              		@ sp needed
  55 0014 7047     		bx	lr
  56              	.LVL2:
  57              	.L3:
 617:Middlewares/Third_Party/FreeRTOS/Source/timers.c **** 	}
  58              		.loc 1 617 19 view .LVU11
  59 0016 0020     		movs	r0, #0
  60              	.LVL3:
 620:Middlewares/Third_Party/FreeRTOS/Source/timers.c **** }
  61              		.loc 1 620 2 is_stmt 1 view .LVU12
 620:Middlewares/Third_Party/FreeRTOS/Source/timers.c **** }
ARM GAS  /var/folders/kr/g9ry2bg56g773797gdtkvvkw0000gn/T//cchcobXk.s 			page 13


  62              		.loc 1 620 9 is_stmt 0 view .LVU13
  63 0018 FCE7     		b	.L1
  64              	.L5:
  65 001a C046     		.align	2
  66              	.L4:
  67 001c 00000000 		.word	pxCurrentTimerList
  68              		.cfi_endproc
  69              	.LFE12:
  71              		.section	.text.prvInsertTimerInActiveList,"ax",%progbits
  72              		.align	1
  73              		.syntax unified
  74              		.code	16
  75              		.thumb_func
  77              	prvInsertTimerInActiveList:
  78              	.LVL4:
  79              	.LFB14:
 622:Middlewares/Third_Party/FreeRTOS/Source/timers.c **** /*-----------------------------------------------------------*/
 623:Middlewares/Third_Party/FreeRTOS/Source/timers.c **** 
 624:Middlewares/Third_Party/FreeRTOS/Source/timers.c **** static TickType_t prvSampleTimeNow( BaseType_t * const pxTimerListsWereSwitched )
 625:Middlewares/Third_Party/FreeRTOS/Source/timers.c **** {
 626:Middlewares/Third_Party/FreeRTOS/Source/timers.c **** TickType_t xTimeNow;
 627:Middlewares/Third_Party/FreeRTOS/Source/timers.c **** PRIVILEGED_DATA static TickType_t xLastTime = ( TickType_t ) 0U; /*lint !e956 Variable is only acce
 628:Middlewares/Third_Party/FreeRTOS/Source/timers.c **** 
 629:Middlewares/Third_Party/FreeRTOS/Source/timers.c **** 	xTimeNow = xTaskGetTickCount();
 630:Middlewares/Third_Party/FreeRTOS/Source/timers.c **** 
 631:Middlewares/Third_Party/FreeRTOS/Source/timers.c **** 	if( xTimeNow < xLastTime )
 632:Middlewares/Third_Party/FreeRTOS/Source/timers.c **** 	{
 633:Middlewares/Third_Party/FreeRTOS/Source/timers.c **** 		prvSwitchTimerLists();
 634:Middlewares/Third_Party/FreeRTOS/Source/timers.c **** 		*pxTimerListsWereSwitched = pdTRUE;
 635:Middlewares/Third_Party/FreeRTOS/Source/timers.c **** 	}
 636:Middlewares/Third_Party/FreeRTOS/Source/timers.c **** 	else
 637:Middlewares/Third_Party/FreeRTOS/Source/timers.c **** 	{
 638:Middlewares/Third_Party/FreeRTOS/Source/timers.c **** 		*pxTimerListsWereSwitched = pdFALSE;
 639:Middlewares/Third_Party/FreeRTOS/Source/timers.c **** 	}
 640:Middlewares/Third_Party/FreeRTOS/Source/timers.c **** 
 641:Middlewares/Third_Party/FreeRTOS/Source/timers.c **** 	xLastTime = xTimeNow;
 642:Middlewares/Third_Party/FreeRTOS/Source/timers.c **** 
 643:Middlewares/Third_Party/FreeRTOS/Source/timers.c **** 	return xTimeNow;
 644:Middlewares/Third_Party/FreeRTOS/Source/timers.c **** }
 645:Middlewares/Third_Party/FreeRTOS/Source/timers.c **** /*-----------------------------------------------------------*/
 646:Middlewares/Third_Party/FreeRTOS/Source/timers.c **** 
 647:Middlewares/Third_Party/FreeRTOS/Source/timers.c **** static BaseType_t prvInsertTimerInActiveList( Timer_t * const pxTimer, const TickType_t xNextExpiry
 648:Middlewares/Third_Party/FreeRTOS/Source/timers.c **** {
  80              		.loc 1 648 1 is_stmt 1 view -0
  81              		.cfi_startproc
  82              		@ args = 0, pretend = 0, frame = 0
  83              		@ frame_needed = 0, uses_anonymous_args = 0
  84              		.loc 1 648 1 is_stmt 0 view .LVU15
  85 0000 10B5     		push	{r4, lr}
  86              	.LCFI0:
  87              		.cfi_def_cfa_offset 8
  88              		.cfi_offset 4, -8
  89              		.cfi_offset 14, -4
 649:Middlewares/Third_Party/FreeRTOS/Source/timers.c **** BaseType_t xProcessTimerNow = pdFALSE;
  90              		.loc 1 649 1 is_stmt 1 view .LVU16
  91              	.LVL5:
 650:Middlewares/Third_Party/FreeRTOS/Source/timers.c **** 
ARM GAS  /var/folders/kr/g9ry2bg56g773797gdtkvvkw0000gn/T//cchcobXk.s 			page 14


 651:Middlewares/Third_Party/FreeRTOS/Source/timers.c **** 	listSET_LIST_ITEM_VALUE( &( pxTimer->xTimerListItem ), xNextExpiryTime );
  92              		.loc 1 651 2 view .LVU17
  93 0002 4160     		str	r1, [r0, #4]
 652:Middlewares/Third_Party/FreeRTOS/Source/timers.c **** 	listSET_LIST_ITEM_OWNER( &( pxTimer->xTimerListItem ), pxTimer );
  94              		.loc 1 652 2 view .LVU18
  95 0004 0061     		str	r0, [r0, #16]
 653:Middlewares/Third_Party/FreeRTOS/Source/timers.c **** 
 654:Middlewares/Third_Party/FreeRTOS/Source/timers.c **** 	if( xNextExpiryTime <= xTimeNow )
  96              		.loc 1 654 2 view .LVU19
  97              		.loc 1 654 4 is_stmt 0 view .LVU20
  98 0006 9142     		cmp	r1, r2
  99 0008 0CD8     		bhi	.L7
 655:Middlewares/Third_Party/FreeRTOS/Source/timers.c **** 	{
 656:Middlewares/Third_Party/FreeRTOS/Source/timers.c **** 		/* Has the expiry time elapsed between the command to start/reset a
 657:Middlewares/Third_Party/FreeRTOS/Source/timers.c **** 		timer was issued, and the time the command was processed? */
 658:Middlewares/Third_Party/FreeRTOS/Source/timers.c **** 		if( ( ( TickType_t ) ( xTimeNow - xCommandTime ) ) >= pxTimer->xTimerPeriodInTicks ) /*lint !e961
 100              		.loc 1 658 3 is_stmt 1 view .LVU21
 101              		.loc 1 658 35 is_stmt 0 view .LVU22
 102 000a D21A     		subs	r2, r2, r3
 103              	.LVL6:
 104              		.loc 1 658 64 view .LVU23
 105 000c 8369     		ldr	r3, [r0, #24]
 106              	.LVL7:
 107              		.loc 1 658 5 view .LVU24
 108 000e 9A42     		cmp	r2, r3
 109 0010 01D3     		bcc	.L12
 659:Middlewares/Third_Party/FreeRTOS/Source/timers.c **** 		{
 660:Middlewares/Third_Party/FreeRTOS/Source/timers.c **** 			/* The time between a command being issued and the command being
 661:Middlewares/Third_Party/FreeRTOS/Source/timers.c **** 			processed actually exceeds the timers period.  */
 662:Middlewares/Third_Party/FreeRTOS/Source/timers.c **** 			xProcessTimerNow = pdTRUE;
 110              		.loc 1 662 21 view .LVU25
 111 0012 0120     		movs	r0, #1
 112              	.LVL8:
 113              	.L6:
 663:Middlewares/Third_Party/FreeRTOS/Source/timers.c **** 		}
 664:Middlewares/Third_Party/FreeRTOS/Source/timers.c **** 		else
 665:Middlewares/Third_Party/FreeRTOS/Source/timers.c **** 		{
 666:Middlewares/Third_Party/FreeRTOS/Source/timers.c **** 			vListInsert( pxOverflowTimerList, &( pxTimer->xTimerListItem ) );
 667:Middlewares/Third_Party/FreeRTOS/Source/timers.c **** 		}
 668:Middlewares/Third_Party/FreeRTOS/Source/timers.c **** 	}
 669:Middlewares/Third_Party/FreeRTOS/Source/timers.c **** 	else
 670:Middlewares/Third_Party/FreeRTOS/Source/timers.c **** 	{
 671:Middlewares/Third_Party/FreeRTOS/Source/timers.c **** 		if( ( xTimeNow < xCommandTime ) && ( xNextExpiryTime >= xCommandTime ) )
 672:Middlewares/Third_Party/FreeRTOS/Source/timers.c **** 		{
 673:Middlewares/Third_Party/FreeRTOS/Source/timers.c **** 			/* If, since the command was issued, the tick count has overflowed
 674:Middlewares/Third_Party/FreeRTOS/Source/timers.c **** 			but the expiry time has not, then the timer must have already passed
 675:Middlewares/Third_Party/FreeRTOS/Source/timers.c **** 			its expiry time and should be processed immediately. */
 676:Middlewares/Third_Party/FreeRTOS/Source/timers.c **** 			xProcessTimerNow = pdTRUE;
 677:Middlewares/Third_Party/FreeRTOS/Source/timers.c **** 		}
 678:Middlewares/Third_Party/FreeRTOS/Source/timers.c **** 		else
 679:Middlewares/Third_Party/FreeRTOS/Source/timers.c **** 		{
 680:Middlewares/Third_Party/FreeRTOS/Source/timers.c **** 			vListInsert( pxCurrentTimerList, &( pxTimer->xTimerListItem ) );
 681:Middlewares/Third_Party/FreeRTOS/Source/timers.c **** 		}
 682:Middlewares/Third_Party/FreeRTOS/Source/timers.c **** 	}
 683:Middlewares/Third_Party/FreeRTOS/Source/timers.c **** 
 684:Middlewares/Third_Party/FreeRTOS/Source/timers.c **** 	return xProcessTimerNow;
 685:Middlewares/Third_Party/FreeRTOS/Source/timers.c **** }
ARM GAS  /var/folders/kr/g9ry2bg56g773797gdtkvvkw0000gn/T//cchcobXk.s 			page 15


 114              		.loc 1 685 1 view .LVU26
 115              		@ sp needed
 116 0014 10BD     		pop	{r4, pc}
 117              	.LVL9:
 118              	.L12:
 666:Middlewares/Third_Party/FreeRTOS/Source/timers.c **** 		}
 119              		.loc 1 666 4 is_stmt 1 view .LVU27
 120 0016 011D     		adds	r1, r0, #4
 121              	.LVL10:
 666:Middlewares/Third_Party/FreeRTOS/Source/timers.c **** 		}
 122              		.loc 1 666 4 is_stmt 0 view .LVU28
 123 0018 094B     		ldr	r3, .L13
 124 001a 1868     		ldr	r0, [r3]
 125              	.LVL11:
 666:Middlewares/Third_Party/FreeRTOS/Source/timers.c **** 		}
 126              		.loc 1 666 4 view .LVU29
 127 001c FFF7FEFF 		bl	vListInsert
 128              	.LVL12:
 649:Middlewares/Third_Party/FreeRTOS/Source/timers.c **** 
 129              		.loc 1 649 12 view .LVU30
 130 0020 0020     		movs	r0, #0
 131 0022 F7E7     		b	.L6
 132              	.LVL13:
 133              	.L7:
 671:Middlewares/Third_Party/FreeRTOS/Source/timers.c **** 		{
 134              		.loc 1 671 3 is_stmt 1 view .LVU31
 671:Middlewares/Third_Party/FreeRTOS/Source/timers.c **** 		{
 135              		.loc 1 671 5 is_stmt 0 view .LVU32
 136 0024 9A42     		cmp	r2, r3
 137 0026 01D2     		bcs	.L9
 671:Middlewares/Third_Party/FreeRTOS/Source/timers.c **** 		{
 138              		.loc 1 671 35 discriminator 1 view .LVU33
 139 0028 9942     		cmp	r1, r3
 140 002a 06D2     		bcs	.L11
 141              	.L9:
 680:Middlewares/Third_Party/FreeRTOS/Source/timers.c **** 		}
 142              		.loc 1 680 4 is_stmt 1 view .LVU34
 143 002c 011D     		adds	r1, r0, #4
 144              	.LVL14:
 680:Middlewares/Third_Party/FreeRTOS/Source/timers.c **** 		}
 145              		.loc 1 680 4 is_stmt 0 view .LVU35
 146 002e 054B     		ldr	r3, .L13+4
 147              	.LVL15:
 680:Middlewares/Third_Party/FreeRTOS/Source/timers.c **** 		}
 148              		.loc 1 680 4 view .LVU36
 149 0030 1868     		ldr	r0, [r3]
 150              	.LVL16:
 680:Middlewares/Third_Party/FreeRTOS/Source/timers.c **** 		}
 151              		.loc 1 680 4 view .LVU37
 152 0032 FFF7FEFF 		bl	vListInsert
 153              	.LVL17:
 649:Middlewares/Third_Party/FreeRTOS/Source/timers.c **** 
 154              		.loc 1 649 12 view .LVU38
 155 0036 0020     		movs	r0, #0
 156 0038 ECE7     		b	.L6
 157              	.LVL18:
 158              	.L11:
ARM GAS  /var/folders/kr/g9ry2bg56g773797gdtkvvkw0000gn/T//cchcobXk.s 			page 16


 676:Middlewares/Third_Party/FreeRTOS/Source/timers.c **** 		}
 159              		.loc 1 676 21 view .LVU39
 160 003a 0120     		movs	r0, #1
 161              	.LVL19:
 684:Middlewares/Third_Party/FreeRTOS/Source/timers.c **** }
 162              		.loc 1 684 2 is_stmt 1 view .LVU40
 684:Middlewares/Third_Party/FreeRTOS/Source/timers.c **** }
 163              		.loc 1 684 9 is_stmt 0 view .LVU41
 164 003c EAE7     		b	.L6
 165              	.L14:
 166 003e C046     		.align	2
 167              	.L13:
 168 0040 00000000 		.word	pxOverflowTimerList
 169 0044 00000000 		.word	pxCurrentTimerList
 170              		.cfi_endproc
 171              	.LFE14:
 173              		.section	.rodata.prvCheckForValidListAndQueue.str1.4,"aMS",%progbits,1
 174              		.align	2
 175              	.LC10:
 176 0000 546D7251 		.ascii	"TmrQ\000"
 176      00
 177              		.section	.text.prvCheckForValidListAndQueue,"ax",%progbits
 178              		.align	1
 179              		.syntax unified
 180              		.code	16
 181              		.thumb_func
 183              	prvCheckForValidListAndQueue:
 184              	.LFB17:
 686:Middlewares/Third_Party/FreeRTOS/Source/timers.c **** /*-----------------------------------------------------------*/
 687:Middlewares/Third_Party/FreeRTOS/Source/timers.c **** 
 688:Middlewares/Third_Party/FreeRTOS/Source/timers.c **** static void	prvProcessReceivedCommands( void )
 689:Middlewares/Third_Party/FreeRTOS/Source/timers.c **** {
 690:Middlewares/Third_Party/FreeRTOS/Source/timers.c **** DaemonTaskMessage_t xMessage;
 691:Middlewares/Third_Party/FreeRTOS/Source/timers.c **** Timer_t *pxTimer;
 692:Middlewares/Third_Party/FreeRTOS/Source/timers.c **** BaseType_t xTimerListsWereSwitched, xResult;
 693:Middlewares/Third_Party/FreeRTOS/Source/timers.c **** TickType_t xTimeNow;
 694:Middlewares/Third_Party/FreeRTOS/Source/timers.c **** 
 695:Middlewares/Third_Party/FreeRTOS/Source/timers.c **** 	while( xQueueReceive( xTimerQueue, &xMessage, tmrNO_DELAY ) != pdFAIL ) /*lint !e603 xMessage does
 696:Middlewares/Third_Party/FreeRTOS/Source/timers.c **** 	{
 697:Middlewares/Third_Party/FreeRTOS/Source/timers.c **** 		#if ( INCLUDE_xTimerPendFunctionCall == 1 )
 698:Middlewares/Third_Party/FreeRTOS/Source/timers.c **** 		{
 699:Middlewares/Third_Party/FreeRTOS/Source/timers.c **** 			/* Negative commands are pended function calls rather than timer
 700:Middlewares/Third_Party/FreeRTOS/Source/timers.c **** 			commands. */
 701:Middlewares/Third_Party/FreeRTOS/Source/timers.c **** 			if( xMessage.xMessageID < ( BaseType_t ) 0 )
 702:Middlewares/Third_Party/FreeRTOS/Source/timers.c **** 			{
 703:Middlewares/Third_Party/FreeRTOS/Source/timers.c **** 				const CallbackParameters_t * const pxCallback = &( xMessage.u.xCallbackParameters );
 704:Middlewares/Third_Party/FreeRTOS/Source/timers.c **** 
 705:Middlewares/Third_Party/FreeRTOS/Source/timers.c **** 				/* The timer uses the xCallbackParameters member to request a
 706:Middlewares/Third_Party/FreeRTOS/Source/timers.c **** 				callback be executed.  Check the callback is not NULL. */
 707:Middlewares/Third_Party/FreeRTOS/Source/timers.c **** 				configASSERT( pxCallback );
 708:Middlewares/Third_Party/FreeRTOS/Source/timers.c **** 
 709:Middlewares/Third_Party/FreeRTOS/Source/timers.c **** 				/* Call the function. */
 710:Middlewares/Third_Party/FreeRTOS/Source/timers.c **** 				pxCallback->pxCallbackFunction( pxCallback->pvParameter1, pxCallback->ulParameter2 );
 711:Middlewares/Third_Party/FreeRTOS/Source/timers.c **** 			}
 712:Middlewares/Third_Party/FreeRTOS/Source/timers.c **** 			else
 713:Middlewares/Third_Party/FreeRTOS/Source/timers.c **** 			{
 714:Middlewares/Third_Party/FreeRTOS/Source/timers.c **** 				mtCOVERAGE_TEST_MARKER();
ARM GAS  /var/folders/kr/g9ry2bg56g773797gdtkvvkw0000gn/T//cchcobXk.s 			page 17


 715:Middlewares/Third_Party/FreeRTOS/Source/timers.c **** 			}
 716:Middlewares/Third_Party/FreeRTOS/Source/timers.c **** 		}
 717:Middlewares/Third_Party/FreeRTOS/Source/timers.c **** 		#endif /* INCLUDE_xTimerPendFunctionCall */
 718:Middlewares/Third_Party/FreeRTOS/Source/timers.c **** 
 719:Middlewares/Third_Party/FreeRTOS/Source/timers.c **** 		/* Commands that are positive are timer commands rather than pended
 720:Middlewares/Third_Party/FreeRTOS/Source/timers.c **** 		function calls. */
 721:Middlewares/Third_Party/FreeRTOS/Source/timers.c **** 		if( xMessage.xMessageID >= ( BaseType_t ) 0 )
 722:Middlewares/Third_Party/FreeRTOS/Source/timers.c **** 		{
 723:Middlewares/Third_Party/FreeRTOS/Source/timers.c **** 			/* The messages uses the xTimerParameters member to work on a
 724:Middlewares/Third_Party/FreeRTOS/Source/timers.c **** 			software timer. */
 725:Middlewares/Third_Party/FreeRTOS/Source/timers.c **** 			pxTimer = xMessage.u.xTimerParameters.pxTimer;
 726:Middlewares/Third_Party/FreeRTOS/Source/timers.c **** 
 727:Middlewares/Third_Party/FreeRTOS/Source/timers.c **** 			if( listIS_CONTAINED_WITHIN( NULL, &( pxTimer->xTimerListItem ) ) == pdFALSE ) /*lint !e961. The
 728:Middlewares/Third_Party/FreeRTOS/Source/timers.c **** 			{
 729:Middlewares/Third_Party/FreeRTOS/Source/timers.c **** 				/* The timer is in a list, remove it. */
 730:Middlewares/Third_Party/FreeRTOS/Source/timers.c **** 				( void ) uxListRemove( &( pxTimer->xTimerListItem ) );
 731:Middlewares/Third_Party/FreeRTOS/Source/timers.c **** 			}
 732:Middlewares/Third_Party/FreeRTOS/Source/timers.c **** 			else
 733:Middlewares/Third_Party/FreeRTOS/Source/timers.c **** 			{
 734:Middlewares/Third_Party/FreeRTOS/Source/timers.c **** 				mtCOVERAGE_TEST_MARKER();
 735:Middlewares/Third_Party/FreeRTOS/Source/timers.c **** 			}
 736:Middlewares/Third_Party/FreeRTOS/Source/timers.c **** 
 737:Middlewares/Third_Party/FreeRTOS/Source/timers.c **** 			traceTIMER_COMMAND_RECEIVED( pxTimer, xMessage.xMessageID, xMessage.u.xTimerParameters.xMessageV
 738:Middlewares/Third_Party/FreeRTOS/Source/timers.c **** 
 739:Middlewares/Third_Party/FreeRTOS/Source/timers.c **** 			/* In this case the xTimerListsWereSwitched parameter is not used, but
 740:Middlewares/Third_Party/FreeRTOS/Source/timers.c **** 			it must be present in the function call.  prvSampleTimeNow() must be
 741:Middlewares/Third_Party/FreeRTOS/Source/timers.c **** 			called after the message is received from xTimerQueue so there is no
 742:Middlewares/Third_Party/FreeRTOS/Source/timers.c **** 			possibility of a higher priority task adding a message to the message
 743:Middlewares/Third_Party/FreeRTOS/Source/timers.c **** 			queue with a time that is ahead of the timer daemon task (because it
 744:Middlewares/Third_Party/FreeRTOS/Source/timers.c **** 			pre-empted the timer daemon task after the xTimeNow value was set). */
 745:Middlewares/Third_Party/FreeRTOS/Source/timers.c **** 			xTimeNow = prvSampleTimeNow( &xTimerListsWereSwitched );
 746:Middlewares/Third_Party/FreeRTOS/Source/timers.c **** 
 747:Middlewares/Third_Party/FreeRTOS/Source/timers.c **** 			switch( xMessage.xMessageID )
 748:Middlewares/Third_Party/FreeRTOS/Source/timers.c **** 			{
 749:Middlewares/Third_Party/FreeRTOS/Source/timers.c **** 				case tmrCOMMAND_START :
 750:Middlewares/Third_Party/FreeRTOS/Source/timers.c **** 			    case tmrCOMMAND_START_FROM_ISR :
 751:Middlewares/Third_Party/FreeRTOS/Source/timers.c **** 			    case tmrCOMMAND_RESET :
 752:Middlewares/Third_Party/FreeRTOS/Source/timers.c **** 			    case tmrCOMMAND_RESET_FROM_ISR :
 753:Middlewares/Third_Party/FreeRTOS/Source/timers.c **** 				case tmrCOMMAND_START_DONT_TRACE :
 754:Middlewares/Third_Party/FreeRTOS/Source/timers.c **** 					/* Start or restart a timer. */
 755:Middlewares/Third_Party/FreeRTOS/Source/timers.c **** 					if( prvInsertTimerInActiveList( pxTimer,  xMessage.u.xTimerParameters.xMessageValue + pxTimer-
 756:Middlewares/Third_Party/FreeRTOS/Source/timers.c **** 					{
 757:Middlewares/Third_Party/FreeRTOS/Source/timers.c **** 						/* The timer expired before it was added to the active
 758:Middlewares/Third_Party/FreeRTOS/Source/timers.c **** 						timer list.  Process it now. */
 759:Middlewares/Third_Party/FreeRTOS/Source/timers.c **** 						pxTimer->pxCallbackFunction( ( TimerHandle_t ) pxTimer );
 760:Middlewares/Third_Party/FreeRTOS/Source/timers.c **** 						traceTIMER_EXPIRED( pxTimer );
 761:Middlewares/Third_Party/FreeRTOS/Source/timers.c **** 
 762:Middlewares/Third_Party/FreeRTOS/Source/timers.c **** 						if( pxTimer->uxAutoReload == ( UBaseType_t ) pdTRUE )
 763:Middlewares/Third_Party/FreeRTOS/Source/timers.c **** 						{
 764:Middlewares/Third_Party/FreeRTOS/Source/timers.c **** 							xResult = xTimerGenericCommand( pxTimer, tmrCOMMAND_START_DONT_TRACE, xMessage.u.xTimerParam
 765:Middlewares/Third_Party/FreeRTOS/Source/timers.c **** 							configASSERT( xResult );
 766:Middlewares/Third_Party/FreeRTOS/Source/timers.c **** 							( void ) xResult;
 767:Middlewares/Third_Party/FreeRTOS/Source/timers.c **** 						}
 768:Middlewares/Third_Party/FreeRTOS/Source/timers.c **** 						else
 769:Middlewares/Third_Party/FreeRTOS/Source/timers.c **** 						{
 770:Middlewares/Third_Party/FreeRTOS/Source/timers.c **** 							mtCOVERAGE_TEST_MARKER();
 771:Middlewares/Third_Party/FreeRTOS/Source/timers.c **** 						}
ARM GAS  /var/folders/kr/g9ry2bg56g773797gdtkvvkw0000gn/T//cchcobXk.s 			page 18


 772:Middlewares/Third_Party/FreeRTOS/Source/timers.c **** 					}
 773:Middlewares/Third_Party/FreeRTOS/Source/timers.c **** 					else
 774:Middlewares/Third_Party/FreeRTOS/Source/timers.c **** 					{
 775:Middlewares/Third_Party/FreeRTOS/Source/timers.c **** 						mtCOVERAGE_TEST_MARKER();
 776:Middlewares/Third_Party/FreeRTOS/Source/timers.c **** 					}
 777:Middlewares/Third_Party/FreeRTOS/Source/timers.c **** 					break;
 778:Middlewares/Third_Party/FreeRTOS/Source/timers.c **** 
 779:Middlewares/Third_Party/FreeRTOS/Source/timers.c **** 				case tmrCOMMAND_STOP :
 780:Middlewares/Third_Party/FreeRTOS/Source/timers.c **** 				case tmrCOMMAND_STOP_FROM_ISR :
 781:Middlewares/Third_Party/FreeRTOS/Source/timers.c **** 					/* The timer has already been removed from the active list.
 782:Middlewares/Third_Party/FreeRTOS/Source/timers.c **** 					There is nothing to do here. */
 783:Middlewares/Third_Party/FreeRTOS/Source/timers.c **** 					break;
 784:Middlewares/Third_Party/FreeRTOS/Source/timers.c **** 
 785:Middlewares/Third_Party/FreeRTOS/Source/timers.c **** 				case tmrCOMMAND_CHANGE_PERIOD :
 786:Middlewares/Third_Party/FreeRTOS/Source/timers.c **** 				case tmrCOMMAND_CHANGE_PERIOD_FROM_ISR :
 787:Middlewares/Third_Party/FreeRTOS/Source/timers.c **** 					pxTimer->xTimerPeriodInTicks = xMessage.u.xTimerParameters.xMessageValue;
 788:Middlewares/Third_Party/FreeRTOS/Source/timers.c **** 					configASSERT( ( pxTimer->xTimerPeriodInTicks > 0 ) );
 789:Middlewares/Third_Party/FreeRTOS/Source/timers.c **** 
 790:Middlewares/Third_Party/FreeRTOS/Source/timers.c **** 					/* The new period does not really have a reference, and can
 791:Middlewares/Third_Party/FreeRTOS/Source/timers.c **** 					be longer or shorter than the old one.  The command time is
 792:Middlewares/Third_Party/FreeRTOS/Source/timers.c **** 					therefore set to the current time, and as the period cannot
 793:Middlewares/Third_Party/FreeRTOS/Source/timers.c **** 					be zero the next expiry time can only be in the future,
 794:Middlewares/Third_Party/FreeRTOS/Source/timers.c **** 					meaning (unlike for the xTimerStart() case above) there is
 795:Middlewares/Third_Party/FreeRTOS/Source/timers.c **** 					no fail case that needs to be handled here. */
 796:Middlewares/Third_Party/FreeRTOS/Source/timers.c **** 					( void ) prvInsertTimerInActiveList( pxTimer, ( xTimeNow + pxTimer->xTimerPeriodInTicks ), xTi
 797:Middlewares/Third_Party/FreeRTOS/Source/timers.c **** 					break;
 798:Middlewares/Third_Party/FreeRTOS/Source/timers.c **** 
 799:Middlewares/Third_Party/FreeRTOS/Source/timers.c **** 				case tmrCOMMAND_DELETE :
 800:Middlewares/Third_Party/FreeRTOS/Source/timers.c **** 					/* The timer has already been removed from the active list,
 801:Middlewares/Third_Party/FreeRTOS/Source/timers.c **** 					just free up the memory if the memory was dynamically
 802:Middlewares/Third_Party/FreeRTOS/Source/timers.c **** 					allocated. */
 803:Middlewares/Third_Party/FreeRTOS/Source/timers.c **** 					#if( ( configSUPPORT_DYNAMIC_ALLOCATION == 1 ) && ( configSUPPORT_STATIC_ALLOCATION == 0 ) )
 804:Middlewares/Third_Party/FreeRTOS/Source/timers.c **** 					{
 805:Middlewares/Third_Party/FreeRTOS/Source/timers.c **** 						/* The timer can only have been allocated dynamically -
 806:Middlewares/Third_Party/FreeRTOS/Source/timers.c **** 						free it again. */
 807:Middlewares/Third_Party/FreeRTOS/Source/timers.c **** 						vPortFree( pxTimer );
 808:Middlewares/Third_Party/FreeRTOS/Source/timers.c **** 					}
 809:Middlewares/Third_Party/FreeRTOS/Source/timers.c **** 					#elif( ( configSUPPORT_DYNAMIC_ALLOCATION == 1 ) && ( configSUPPORT_STATIC_ALLOCATION == 1 ) )
 810:Middlewares/Third_Party/FreeRTOS/Source/timers.c **** 					{
 811:Middlewares/Third_Party/FreeRTOS/Source/timers.c **** 						/* The timer could have been allocated statically or
 812:Middlewares/Third_Party/FreeRTOS/Source/timers.c **** 						dynamically, so check before attempting to free the
 813:Middlewares/Third_Party/FreeRTOS/Source/timers.c **** 						memory. */
 814:Middlewares/Third_Party/FreeRTOS/Source/timers.c **** 						if( pxTimer->ucStaticallyAllocated == ( uint8_t ) pdFALSE )
 815:Middlewares/Third_Party/FreeRTOS/Source/timers.c **** 						{
 816:Middlewares/Third_Party/FreeRTOS/Source/timers.c **** 							vPortFree( pxTimer );
 817:Middlewares/Third_Party/FreeRTOS/Source/timers.c **** 						}
 818:Middlewares/Third_Party/FreeRTOS/Source/timers.c **** 						else
 819:Middlewares/Third_Party/FreeRTOS/Source/timers.c **** 						{
 820:Middlewares/Third_Party/FreeRTOS/Source/timers.c **** 							mtCOVERAGE_TEST_MARKER();
 821:Middlewares/Third_Party/FreeRTOS/Source/timers.c **** 						}
 822:Middlewares/Third_Party/FreeRTOS/Source/timers.c **** 					}
 823:Middlewares/Third_Party/FreeRTOS/Source/timers.c **** 					#endif /* configSUPPORT_DYNAMIC_ALLOCATION */
 824:Middlewares/Third_Party/FreeRTOS/Source/timers.c **** 					break;
 825:Middlewares/Third_Party/FreeRTOS/Source/timers.c **** 
 826:Middlewares/Third_Party/FreeRTOS/Source/timers.c **** 				default	:
 827:Middlewares/Third_Party/FreeRTOS/Source/timers.c **** 					/* Don't expect to get here. */
 828:Middlewares/Third_Party/FreeRTOS/Source/timers.c **** 					break;
ARM GAS  /var/folders/kr/g9ry2bg56g773797gdtkvvkw0000gn/T//cchcobXk.s 			page 19


 829:Middlewares/Third_Party/FreeRTOS/Source/timers.c **** 			}
 830:Middlewares/Third_Party/FreeRTOS/Source/timers.c **** 		}
 831:Middlewares/Third_Party/FreeRTOS/Source/timers.c **** 	}
 832:Middlewares/Third_Party/FreeRTOS/Source/timers.c **** }
 833:Middlewares/Third_Party/FreeRTOS/Source/timers.c **** /*-----------------------------------------------------------*/
 834:Middlewares/Third_Party/FreeRTOS/Source/timers.c **** 
 835:Middlewares/Third_Party/FreeRTOS/Source/timers.c **** static void prvSwitchTimerLists( void )
 836:Middlewares/Third_Party/FreeRTOS/Source/timers.c **** {
 837:Middlewares/Third_Party/FreeRTOS/Source/timers.c **** TickType_t xNextExpireTime, xReloadTime;
 838:Middlewares/Third_Party/FreeRTOS/Source/timers.c **** List_t *pxTemp;
 839:Middlewares/Third_Party/FreeRTOS/Source/timers.c **** Timer_t *pxTimer;
 840:Middlewares/Third_Party/FreeRTOS/Source/timers.c **** BaseType_t xResult;
 841:Middlewares/Third_Party/FreeRTOS/Source/timers.c **** 
 842:Middlewares/Third_Party/FreeRTOS/Source/timers.c **** 	/* The tick count has overflowed.  The timer lists must be switched.
 843:Middlewares/Third_Party/FreeRTOS/Source/timers.c **** 	If there are any timers still referenced from the current timer list
 844:Middlewares/Third_Party/FreeRTOS/Source/timers.c **** 	then they must have expired and should be processed before the lists
 845:Middlewares/Third_Party/FreeRTOS/Source/timers.c **** 	are switched. */
 846:Middlewares/Third_Party/FreeRTOS/Source/timers.c **** 	while( listLIST_IS_EMPTY( pxCurrentTimerList ) == pdFALSE )
 847:Middlewares/Third_Party/FreeRTOS/Source/timers.c **** 	{
 848:Middlewares/Third_Party/FreeRTOS/Source/timers.c **** 		xNextExpireTime = listGET_ITEM_VALUE_OF_HEAD_ENTRY( pxCurrentTimerList );
 849:Middlewares/Third_Party/FreeRTOS/Source/timers.c **** 
 850:Middlewares/Third_Party/FreeRTOS/Source/timers.c **** 		/* Remove the timer from the list. */
 851:Middlewares/Third_Party/FreeRTOS/Source/timers.c **** 		pxTimer = ( Timer_t * ) listGET_OWNER_OF_HEAD_ENTRY( pxCurrentTimerList );
 852:Middlewares/Third_Party/FreeRTOS/Source/timers.c **** 		( void ) uxListRemove( &( pxTimer->xTimerListItem ) );
 853:Middlewares/Third_Party/FreeRTOS/Source/timers.c **** 		traceTIMER_EXPIRED( pxTimer );
 854:Middlewares/Third_Party/FreeRTOS/Source/timers.c **** 
 855:Middlewares/Third_Party/FreeRTOS/Source/timers.c **** 		/* Execute its callback, then send a command to restart the timer if
 856:Middlewares/Third_Party/FreeRTOS/Source/timers.c **** 		it is an auto-reload timer.  It cannot be restarted here as the lists
 857:Middlewares/Third_Party/FreeRTOS/Source/timers.c **** 		have not yet been switched. */
 858:Middlewares/Third_Party/FreeRTOS/Source/timers.c **** 		pxTimer->pxCallbackFunction( ( TimerHandle_t ) pxTimer );
 859:Middlewares/Third_Party/FreeRTOS/Source/timers.c **** 
 860:Middlewares/Third_Party/FreeRTOS/Source/timers.c **** 		if( pxTimer->uxAutoReload == ( UBaseType_t ) pdTRUE )
 861:Middlewares/Third_Party/FreeRTOS/Source/timers.c **** 		{
 862:Middlewares/Third_Party/FreeRTOS/Source/timers.c **** 			/* Calculate the reload value, and if the reload value results in
 863:Middlewares/Third_Party/FreeRTOS/Source/timers.c **** 			the timer going into the same timer list then it has already expired
 864:Middlewares/Third_Party/FreeRTOS/Source/timers.c **** 			and the timer should be re-inserted into the current list so it is
 865:Middlewares/Third_Party/FreeRTOS/Source/timers.c **** 			processed again within this loop.  Otherwise a command should be sent
 866:Middlewares/Third_Party/FreeRTOS/Source/timers.c **** 			to restart the timer to ensure it is only inserted into a list after
 867:Middlewares/Third_Party/FreeRTOS/Source/timers.c **** 			the lists have been swapped. */
 868:Middlewares/Third_Party/FreeRTOS/Source/timers.c **** 			xReloadTime = ( xNextExpireTime + pxTimer->xTimerPeriodInTicks );
 869:Middlewares/Third_Party/FreeRTOS/Source/timers.c **** 			if( xReloadTime > xNextExpireTime )
 870:Middlewares/Third_Party/FreeRTOS/Source/timers.c **** 			{
 871:Middlewares/Third_Party/FreeRTOS/Source/timers.c **** 				listSET_LIST_ITEM_VALUE( &( pxTimer->xTimerListItem ), xReloadTime );
 872:Middlewares/Third_Party/FreeRTOS/Source/timers.c **** 				listSET_LIST_ITEM_OWNER( &( pxTimer->xTimerListItem ), pxTimer );
 873:Middlewares/Third_Party/FreeRTOS/Source/timers.c **** 				vListInsert( pxCurrentTimerList, &( pxTimer->xTimerListItem ) );
 874:Middlewares/Third_Party/FreeRTOS/Source/timers.c **** 			}
 875:Middlewares/Third_Party/FreeRTOS/Source/timers.c **** 			else
 876:Middlewares/Third_Party/FreeRTOS/Source/timers.c **** 			{
 877:Middlewares/Third_Party/FreeRTOS/Source/timers.c **** 				xResult = xTimerGenericCommand( pxTimer, tmrCOMMAND_START_DONT_TRACE, xNextExpireTime, NULL, tm
 878:Middlewares/Third_Party/FreeRTOS/Source/timers.c **** 				configASSERT( xResult );
 879:Middlewares/Third_Party/FreeRTOS/Source/timers.c **** 				( void ) xResult;
 880:Middlewares/Third_Party/FreeRTOS/Source/timers.c **** 			}
 881:Middlewares/Third_Party/FreeRTOS/Source/timers.c **** 		}
 882:Middlewares/Third_Party/FreeRTOS/Source/timers.c **** 		else
 883:Middlewares/Third_Party/FreeRTOS/Source/timers.c **** 		{
 884:Middlewares/Third_Party/FreeRTOS/Source/timers.c **** 			mtCOVERAGE_TEST_MARKER();
 885:Middlewares/Third_Party/FreeRTOS/Source/timers.c **** 		}
ARM GAS  /var/folders/kr/g9ry2bg56g773797gdtkvvkw0000gn/T//cchcobXk.s 			page 20


 886:Middlewares/Third_Party/FreeRTOS/Source/timers.c **** 	}
 887:Middlewares/Third_Party/FreeRTOS/Source/timers.c **** 
 888:Middlewares/Third_Party/FreeRTOS/Source/timers.c **** 	pxTemp = pxCurrentTimerList;
 889:Middlewares/Third_Party/FreeRTOS/Source/timers.c **** 	pxCurrentTimerList = pxOverflowTimerList;
 890:Middlewares/Third_Party/FreeRTOS/Source/timers.c **** 	pxOverflowTimerList = pxTemp;
 891:Middlewares/Third_Party/FreeRTOS/Source/timers.c **** }
 892:Middlewares/Third_Party/FreeRTOS/Source/timers.c **** /*-----------------------------------------------------------*/
 893:Middlewares/Third_Party/FreeRTOS/Source/timers.c **** 
 894:Middlewares/Third_Party/FreeRTOS/Source/timers.c **** static void prvCheckForValidListAndQueue( void )
 895:Middlewares/Third_Party/FreeRTOS/Source/timers.c **** {
 185              		.loc 1 895 1 is_stmt 1 view -0
 186              		.cfi_startproc
 187              		@ args = 0, pretend = 0, frame = 0
 188              		@ frame_needed = 0, uses_anonymous_args = 0
 189 0000 30B5     		push	{r4, r5, lr}
 190              	.LCFI1:
 191              		.cfi_def_cfa_offset 12
 192              		.cfi_offset 4, -12
 193              		.cfi_offset 5, -8
 194              		.cfi_offset 14, -4
 195 0002 83B0     		sub	sp, sp, #12
 196              	.LCFI2:
 197              		.cfi_def_cfa_offset 24
 896:Middlewares/Third_Party/FreeRTOS/Source/timers.c **** 	/* Check that the list from which active timers are referenced, and the
 897:Middlewares/Third_Party/FreeRTOS/Source/timers.c **** 	queue used to communicate with the timer service, have been
 898:Middlewares/Third_Party/FreeRTOS/Source/timers.c **** 	initialised. */
 899:Middlewares/Third_Party/FreeRTOS/Source/timers.c **** 	taskENTER_CRITICAL();
 198              		.loc 1 899 2 view .LVU43
 199 0004 FFF7FEFF 		bl	vPortEnterCritical
 200              	.LVL20:
 900:Middlewares/Third_Party/FreeRTOS/Source/timers.c **** 	{
 901:Middlewares/Third_Party/FreeRTOS/Source/timers.c **** 		if( xTimerQueue == NULL )
 201              		.loc 1 901 3 view .LVU44
 202              		.loc 1 901 19 is_stmt 0 view .LVU45
 203 0008 114B     		ldr	r3, .L18
 204 000a 1B68     		ldr	r3, [r3]
 205              		.loc 1 901 5 view .LVU46
 206 000c 002B     		cmp	r3, #0
 207 000e 03D0     		beq	.L17
 208              	.L16:
 902:Middlewares/Third_Party/FreeRTOS/Source/timers.c **** 		{
 903:Middlewares/Third_Party/FreeRTOS/Source/timers.c **** 			vListInitialise( &xActiveTimerList1 );
 904:Middlewares/Third_Party/FreeRTOS/Source/timers.c **** 			vListInitialise( &xActiveTimerList2 );
 905:Middlewares/Third_Party/FreeRTOS/Source/timers.c **** 			pxCurrentTimerList = &xActiveTimerList1;
 906:Middlewares/Third_Party/FreeRTOS/Source/timers.c **** 			pxOverflowTimerList = &xActiveTimerList2;
 907:Middlewares/Third_Party/FreeRTOS/Source/timers.c **** 
 908:Middlewares/Third_Party/FreeRTOS/Source/timers.c **** 			#if( configSUPPORT_STATIC_ALLOCATION == 1 )
 909:Middlewares/Third_Party/FreeRTOS/Source/timers.c **** 			{
 910:Middlewares/Third_Party/FreeRTOS/Source/timers.c **** 				/* The timer queue is allocated statically in case
 911:Middlewares/Third_Party/FreeRTOS/Source/timers.c **** 				configSUPPORT_DYNAMIC_ALLOCATION is 0. */
 912:Middlewares/Third_Party/FreeRTOS/Source/timers.c **** 				static StaticQueue_t xStaticTimerQueue; /*lint !e956 Ok to declare in this manner to prevent ad
 913:Middlewares/Third_Party/FreeRTOS/Source/timers.c **** 				static uint8_t ucStaticTimerQueueStorage[ ( size_t ) configTIMER_QUEUE_LENGTH * sizeof( DaemonT
 914:Middlewares/Third_Party/FreeRTOS/Source/timers.c **** 
 915:Middlewares/Third_Party/FreeRTOS/Source/timers.c **** 				xTimerQueue = xQueueCreateStatic( ( UBaseType_t ) configTIMER_QUEUE_LENGTH, ( UBaseType_t ) siz
 916:Middlewares/Third_Party/FreeRTOS/Source/timers.c **** 			}
 917:Middlewares/Third_Party/FreeRTOS/Source/timers.c **** 			#else
 918:Middlewares/Third_Party/FreeRTOS/Source/timers.c **** 			{
ARM GAS  /var/folders/kr/g9ry2bg56g773797gdtkvvkw0000gn/T//cchcobXk.s 			page 21


 919:Middlewares/Third_Party/FreeRTOS/Source/timers.c **** 				xTimerQueue = xQueueCreate( ( UBaseType_t ) configTIMER_QUEUE_LENGTH, sizeof( DaemonTaskMessage
 920:Middlewares/Third_Party/FreeRTOS/Source/timers.c **** 			}
 921:Middlewares/Third_Party/FreeRTOS/Source/timers.c **** 			#endif
 922:Middlewares/Third_Party/FreeRTOS/Source/timers.c **** 
 923:Middlewares/Third_Party/FreeRTOS/Source/timers.c **** 			#if ( configQUEUE_REGISTRY_SIZE > 0 )
 924:Middlewares/Third_Party/FreeRTOS/Source/timers.c **** 			{
 925:Middlewares/Third_Party/FreeRTOS/Source/timers.c **** 				if( xTimerQueue != NULL )
 926:Middlewares/Third_Party/FreeRTOS/Source/timers.c **** 				{
 927:Middlewares/Third_Party/FreeRTOS/Source/timers.c **** 					vQueueAddToRegistry( xTimerQueue, "TmrQ" );
 928:Middlewares/Third_Party/FreeRTOS/Source/timers.c **** 				}
 929:Middlewares/Third_Party/FreeRTOS/Source/timers.c **** 				else
 930:Middlewares/Third_Party/FreeRTOS/Source/timers.c **** 				{
 931:Middlewares/Third_Party/FreeRTOS/Source/timers.c **** 					mtCOVERAGE_TEST_MARKER();
 932:Middlewares/Third_Party/FreeRTOS/Source/timers.c **** 				}
 933:Middlewares/Third_Party/FreeRTOS/Source/timers.c **** 			}
 934:Middlewares/Third_Party/FreeRTOS/Source/timers.c **** 			#endif /* configQUEUE_REGISTRY_SIZE */
 935:Middlewares/Third_Party/FreeRTOS/Source/timers.c **** 		}
 936:Middlewares/Third_Party/FreeRTOS/Source/timers.c **** 		else
 937:Middlewares/Third_Party/FreeRTOS/Source/timers.c **** 		{
 938:Middlewares/Third_Party/FreeRTOS/Source/timers.c **** 			mtCOVERAGE_TEST_MARKER();
 209              		.loc 1 938 28 is_stmt 1 view .LVU47
 939:Middlewares/Third_Party/FreeRTOS/Source/timers.c **** 		}
 940:Middlewares/Third_Party/FreeRTOS/Source/timers.c **** 	}
 941:Middlewares/Third_Party/FreeRTOS/Source/timers.c **** 	taskEXIT_CRITICAL();
 210              		.loc 1 941 2 view .LVU48
 211 0010 FFF7FEFF 		bl	vPortExitCritical
 212              	.LVL21:
 942:Middlewares/Third_Party/FreeRTOS/Source/timers.c **** }
 213              		.loc 1 942 1 is_stmt 0 view .LVU49
 214 0014 03B0     		add	sp, sp, #12
 215              		@ sp needed
 216 0016 30BD     		pop	{r4, r5, pc}
 217              	.L17:
 903:Middlewares/Third_Party/FreeRTOS/Source/timers.c **** 			vListInitialise( &xActiveTimerList2 );
 218              		.loc 1 903 4 is_stmt 1 view .LVU50
 219 0018 0E4D     		ldr	r5, .L18+4
 220 001a 2800     		movs	r0, r5
 221 001c FFF7FEFF 		bl	vListInitialise
 222              	.LVL22:
 904:Middlewares/Third_Party/FreeRTOS/Source/timers.c **** 			pxCurrentTimerList = &xActiveTimerList1;
 223              		.loc 1 904 4 view .LVU51
 224 0020 0D4C     		ldr	r4, .L18+8
 225 0022 2000     		movs	r0, r4
 226 0024 FFF7FEFF 		bl	vListInitialise
 227              	.LVL23:
 905:Middlewares/Third_Party/FreeRTOS/Source/timers.c **** 			pxOverflowTimerList = &xActiveTimerList2;
 228              		.loc 1 905 4 view .LVU52
 905:Middlewares/Third_Party/FreeRTOS/Source/timers.c **** 			pxOverflowTimerList = &xActiveTimerList2;
 229              		.loc 1 905 23 is_stmt 0 view .LVU53
 230 0028 0C4B     		ldr	r3, .L18+12
 231 002a 1D60     		str	r5, [r3]
 906:Middlewares/Third_Party/FreeRTOS/Source/timers.c **** 
 232              		.loc 1 906 4 is_stmt 1 view .LVU54
 906:Middlewares/Third_Party/FreeRTOS/Source/timers.c **** 
 233              		.loc 1 906 24 is_stmt 0 view .LVU55
 234 002c 0C4B     		ldr	r3, .L18+16
 235 002e 1C60     		str	r4, [r3]
ARM GAS  /var/folders/kr/g9ry2bg56g773797gdtkvvkw0000gn/T//cchcobXk.s 			page 22


 236              	.LBB2:
 912:Middlewares/Third_Party/FreeRTOS/Source/timers.c **** 				static uint8_t ucStaticTimerQueueStorage[ ( size_t ) configTIMER_QUEUE_LENGTH * sizeof( DaemonT
 237              		.loc 1 912 5 is_stmt 1 view .LVU56
 913:Middlewares/Third_Party/FreeRTOS/Source/timers.c **** 
 238              		.loc 1 913 5 view .LVU57
 915:Middlewares/Third_Party/FreeRTOS/Source/timers.c **** 			}
 239              		.loc 1 915 5 view .LVU58
 915:Middlewares/Third_Party/FreeRTOS/Source/timers.c **** 			}
 240              		.loc 1 915 19 is_stmt 0 view .LVU59
 241 0030 0C4B     		ldr	r3, .L18+20
 242 0032 0D4A     		ldr	r2, .L18+24
 243 0034 0021     		movs	r1, #0
 244 0036 0091     		str	r1, [sp]
 245 0038 1031     		adds	r1, r1, #16
 246 003a 0A20     		movs	r0, #10
 247 003c FFF7FEFF 		bl	xQueueGenericCreateStatic
 248              	.LVL24:
 915:Middlewares/Third_Party/FreeRTOS/Source/timers.c **** 			}
 249              		.loc 1 915 17 discriminator 1 view .LVU60
 250 0040 034B     		ldr	r3, .L18
 251 0042 1860     		str	r0, [r3]
 252              	.LBE2:
 925:Middlewares/Third_Party/FreeRTOS/Source/timers.c **** 				{
 253              		.loc 1 925 5 is_stmt 1 view .LVU61
 925:Middlewares/Third_Party/FreeRTOS/Source/timers.c **** 				{
 254              		.loc 1 925 7 is_stmt 0 view .LVU62
 255 0044 0028     		cmp	r0, #0
 256 0046 E3D0     		beq	.L16
 927:Middlewares/Third_Party/FreeRTOS/Source/timers.c **** 				}
 257              		.loc 1 927 6 is_stmt 1 view .LVU63
 258 0048 0849     		ldr	r1, .L18+28
 259 004a FFF7FEFF 		bl	vQueueAddToRegistry
 260              	.LVL25:
 261 004e DFE7     		b	.L16
 262              	.L19:
 263              		.align	2
 264              	.L18:
 265 0050 00000000 		.word	xTimerQueue
 266 0054 00000000 		.word	xActiveTimerList1
 267 0058 00000000 		.word	xActiveTimerList2
 268 005c 00000000 		.word	pxCurrentTimerList
 269 0060 00000000 		.word	pxOverflowTimerList
 270 0064 00000000 		.word	xStaticTimerQueue.0
 271 0068 00000000 		.word	ucStaticTimerQueueStorage.1
 272 006c 00000000 		.word	.LC10
 273              		.cfi_endproc
 274              	.LFE17:
 276              		.section	.text.prvInitialiseNewTimer,"ax",%progbits
 277              		.align	1
 278              		.syntax unified
 279              		.code	16
 280              		.thumb_func
 282              	prvInitialiseNewTimer:
 283              	.LVL26:
 284              	.LFB3:
 358:Middlewares/Third_Party/FreeRTOS/Source/timers.c **** 	/* 0 is not a valid value for xTimerPeriodInTicks. */
 285              		.loc 1 358 1 view -0
ARM GAS  /var/folders/kr/g9ry2bg56g773797gdtkvvkw0000gn/T//cchcobXk.s 			page 23


 286              		.cfi_startproc
 287              		@ args = 8, pretend = 0, frame = 8
 288              		@ frame_needed = 0, uses_anonymous_args = 0
 358:Middlewares/Third_Party/FreeRTOS/Source/timers.c **** 	/* 0 is not a valid value for xTimerPeriodInTicks. */
 289              		.loc 1 358 1 is_stmt 0 view .LVU65
 290 0000 F0B5     		push	{r4, r5, r6, r7, lr}
 291              	.LCFI3:
 292              		.cfi_def_cfa_offset 20
 293              		.cfi_offset 4, -20
 294              		.cfi_offset 5, -16
 295              		.cfi_offset 6, -12
 296              		.cfi_offset 7, -8
 297              		.cfi_offset 14, -4
 298 0002 83B0     		sub	sp, sp, #12
 299              	.LCFI4:
 300              		.cfi_def_cfa_offset 32
 301 0004 0700     		movs	r7, r0
 302 0006 0D00     		movs	r5, r1
 303 0008 1600     		movs	r6, r2
 304 000a 0193     		str	r3, [sp, #4]
 305 000c 099C     		ldr	r4, [sp, #36]
 360:Middlewares/Third_Party/FreeRTOS/Source/timers.c **** 
 306              		.loc 1 360 2 is_stmt 1 view .LVU66
 307 000e 0029     		cmp	r1, #0
 308 0010 01D1     		bne	.L21
 360:Middlewares/Third_Party/FreeRTOS/Source/timers.c **** 
 309              		.loc 1 360 2 discriminator 1 view .LVU67
 310              		.syntax divided
 311              	@ 360 "Middlewares/Third_Party/FreeRTOS/Source/timers.c" 1
 312 0012 72B6     		 cpsid i 
 313              	@ 0 "" 2
 314              		.thumb
 315              		.syntax unified
 316              	.L22:
 360:Middlewares/Third_Party/FreeRTOS/Source/timers.c **** 
 317              		.loc 1 360 2 discriminator 3 view .LVU68
 360:Middlewares/Third_Party/FreeRTOS/Source/timers.c **** 
 318              		.loc 1 360 2 discriminator 3 view .LVU69
 319 0014 FEE7     		b	.L22
 320              	.L21:
 360:Middlewares/Third_Party/FreeRTOS/Source/timers.c **** 
 321              		.loc 1 360 45 discriminator 2 view .LVU70
 362:Middlewares/Third_Party/FreeRTOS/Source/timers.c **** 	{
 322              		.loc 1 362 2 view .LVU71
 362:Middlewares/Third_Party/FreeRTOS/Source/timers.c **** 	{
 323              		.loc 1 362 4 is_stmt 0 view .LVU72
 324 0016 002C     		cmp	r4, #0
 325 0018 0BD0     		beq	.L20
 366:Middlewares/Third_Party/FreeRTOS/Source/timers.c **** 
 326              		.loc 1 366 3 is_stmt 1 view .LVU73
 327 001a FFF7FEFF 		bl	prvCheckForValidListAndQueue
 328              	.LVL27:
 370:Middlewares/Third_Party/FreeRTOS/Source/timers.c **** 		pxNewTimer->xTimerPeriodInTicks = xTimerPeriodInTicks;
 329              		.loc 1 370 3 view .LVU74
 370:Middlewares/Third_Party/FreeRTOS/Source/timers.c **** 		pxNewTimer->xTimerPeriodInTicks = xTimerPeriodInTicks;
 330              		.loc 1 370 27 is_stmt 0 view .LVU75
 331 001e 2760     		str	r7, [r4]
ARM GAS  /var/folders/kr/g9ry2bg56g773797gdtkvvkw0000gn/T//cchcobXk.s 			page 24


 371:Middlewares/Third_Party/FreeRTOS/Source/timers.c **** 		pxNewTimer->uxAutoReload = uxAutoReload;
 332              		.loc 1 371 3 is_stmt 1 view .LVU76
 371:Middlewares/Third_Party/FreeRTOS/Source/timers.c **** 		pxNewTimer->uxAutoReload = uxAutoReload;
 333              		.loc 1 371 35 is_stmt 0 view .LVU77
 334 0020 A561     		str	r5, [r4, #24]
 372:Middlewares/Third_Party/FreeRTOS/Source/timers.c **** 		pxNewTimer->pvTimerID = pvTimerID;
 335              		.loc 1 372 3 is_stmt 1 view .LVU78
 372:Middlewares/Third_Party/FreeRTOS/Source/timers.c **** 		pxNewTimer->pvTimerID = pvTimerID;
 336              		.loc 1 372 28 is_stmt 0 view .LVU79
 337 0022 E661     		str	r6, [r4, #28]
 373:Middlewares/Third_Party/FreeRTOS/Source/timers.c **** 		pxNewTimer->pxCallbackFunction = pxCallbackFunction;
 338              		.loc 1 373 3 is_stmt 1 view .LVU80
 373:Middlewares/Third_Party/FreeRTOS/Source/timers.c **** 		pxNewTimer->pxCallbackFunction = pxCallbackFunction;
 339              		.loc 1 373 25 is_stmt 0 view .LVU81
 340 0024 019B     		ldr	r3, [sp, #4]
 341 0026 2362     		str	r3, [r4, #32]
 374:Middlewares/Third_Party/FreeRTOS/Source/timers.c **** 		vListInitialiseItem( &( pxNewTimer->xTimerListItem ) );
 342              		.loc 1 374 3 is_stmt 1 view .LVU82
 374:Middlewares/Third_Party/FreeRTOS/Source/timers.c **** 		vListInitialiseItem( &( pxNewTimer->xTimerListItem ) );
 343              		.loc 1 374 34 is_stmt 0 view .LVU83
 344 0028 089B     		ldr	r3, [sp, #32]
 345 002a 6362     		str	r3, [r4, #36]
 375:Middlewares/Third_Party/FreeRTOS/Source/timers.c **** 		traceTIMER_CREATE( pxNewTimer );
 346              		.loc 1 375 3 is_stmt 1 view .LVU84
 347 002c 201D     		adds	r0, r4, #4
 348 002e FFF7FEFF 		bl	vListInitialiseItem
 349              	.LVL28:
 376:Middlewares/Third_Party/FreeRTOS/Source/timers.c **** 	}
 350              		.loc 1 376 34 view .LVU85
 351              	.L20:
 378:Middlewares/Third_Party/FreeRTOS/Source/timers.c **** /*-----------------------------------------------------------*/
 352              		.loc 1 378 1 is_stmt 0 view .LVU86
 353 0032 03B0     		add	sp, sp, #12
 354              		@ sp needed
 355              	.LVL29:
 356              	.LVL30:
 357              	.LVL31:
 378:Middlewares/Third_Party/FreeRTOS/Source/timers.c **** /*-----------------------------------------------------------*/
 358              		.loc 1 378 1 view .LVU87
 359 0034 F0BD     		pop	{r4, r5, r6, r7, pc}
 360              		.cfi_endproc
 361              	.LFE3:
 363              		.section	.rodata.xTimerCreateTimerTask.str1.4,"aMS",%progbits,1
 364              		.align	2
 365              	.LC13:
 366 0000 546D7220 		.ascii	"Tmr Svc\000"
 366      53766300 
 367              		.section	.text.xTimerCreateTimerTask,"ax",%progbits
 368              		.align	1
 369              		.global	xTimerCreateTimerTask
 370              		.syntax unified
 371              		.code	16
 372              		.thumb_func
 374              	xTimerCreateTimerTask:
 375              	.LFB0:
 224:Middlewares/Third_Party/FreeRTOS/Source/timers.c **** BaseType_t xReturn = pdFAIL;
 376              		.loc 1 224 1 is_stmt 1 view -0
ARM GAS  /var/folders/kr/g9ry2bg56g773797gdtkvvkw0000gn/T//cchcobXk.s 			page 25


 377              		.cfi_startproc
 378              		@ args = 0, pretend = 0, frame = 16
 379              		@ frame_needed = 0, uses_anonymous_args = 0
 380 0000 00B5     		push	{lr}
 381              	.LCFI5:
 382              		.cfi_def_cfa_offset 4
 383              		.cfi_offset 14, -4
 384 0002 89B0     		sub	sp, sp, #36
 385              	.LCFI6:
 386              		.cfi_def_cfa_offset 40
 225:Middlewares/Third_Party/FreeRTOS/Source/timers.c **** 
 387              		.loc 1 225 1 view .LVU89
 388              	.LVL32:
 231:Middlewares/Third_Party/FreeRTOS/Source/timers.c **** 
 389              		.loc 1 231 2 view .LVU90
 390 0004 FFF7FEFF 		bl	prvCheckForValidListAndQueue
 391              	.LVL33:
 233:Middlewares/Third_Party/FreeRTOS/Source/timers.c **** 	{
 392              		.loc 1 233 2 view .LVU91
 233:Middlewares/Third_Party/FreeRTOS/Source/timers.c **** 	{
 393              		.loc 1 233 18 is_stmt 0 view .LVU92
 394 0008 104B     		ldr	r3, .L29
 395 000a 1B68     		ldr	r3, [r3]
 233:Middlewares/Third_Party/FreeRTOS/Source/timers.c **** 	{
 396              		.loc 1 233 4 view .LVU93
 397 000c 002B     		cmp	r3, #0
 398 000e 1AD0     		beq	.L25
 399              	.LBB3:
 237:Middlewares/Third_Party/FreeRTOS/Source/timers.c **** 			StackType_t *pxTimerTaskStackBuffer = NULL;
 400              		.loc 1 237 4 is_stmt 1 view .LVU94
 237:Middlewares/Third_Party/FreeRTOS/Source/timers.c **** 			StackType_t *pxTimerTaskStackBuffer = NULL;
 401              		.loc 1 237 18 is_stmt 0 view .LVU95
 402 0010 0023     		movs	r3, #0
 403 0012 0593     		str	r3, [sp, #20]
 238:Middlewares/Third_Party/FreeRTOS/Source/timers.c **** 			uint32_t ulTimerTaskStackSize;
 404              		.loc 1 238 4 is_stmt 1 view .LVU96
 238:Middlewares/Third_Party/FreeRTOS/Source/timers.c **** 			uint32_t ulTimerTaskStackSize;
 405              		.loc 1 238 17 is_stmt 0 view .LVU97
 406 0014 0693     		str	r3, [sp, #24]
 239:Middlewares/Third_Party/FreeRTOS/Source/timers.c **** 
 407              		.loc 1 239 4 is_stmt 1 view .LVU98
 241:Middlewares/Third_Party/FreeRTOS/Source/timers.c **** 			xTimerTaskHandle = xTaskCreateStatic(	prvTimerTask,
 408              		.loc 1 241 4 view .LVU99
 409 0016 07AA     		add	r2, sp, #28
 410 0018 06A9     		add	r1, sp, #24
 411 001a 05A8     		add	r0, sp, #20
 412 001c FFF7FEFF 		bl	vApplicationGetTimerTaskMemory
 413              	.LVL34:
 242:Middlewares/Third_Party/FreeRTOS/Source/timers.c **** 													configTIMER_SERVICE_TASK_NAME,
 414              		.loc 1 242 4 view .LVU100
 242:Middlewares/Third_Party/FreeRTOS/Source/timers.c **** 													configTIMER_SERVICE_TASK_NAME,
 415              		.loc 1 242 23 is_stmt 0 view .LVU101
 416 0020 079A     		ldr	r2, [sp, #28]
 417 0022 0B49     		ldr	r1, .L29+4
 418 0024 0B48     		ldr	r0, .L29+8
 419 0026 059B     		ldr	r3, [sp, #20]
 420 0028 0293     		str	r3, [sp, #8]
ARM GAS  /var/folders/kr/g9ry2bg56g773797gdtkvvkw0000gn/T//cchcobXk.s 			page 26


 421 002a 069B     		ldr	r3, [sp, #24]
 422 002c 0193     		str	r3, [sp, #4]
 423 002e 0223     		movs	r3, #2
 424 0030 0093     		str	r3, [sp]
 425 0032 0023     		movs	r3, #0
 426 0034 FFF7FEFF 		bl	xTaskCreateStatic
 427              	.LVL35:
 242:Middlewares/Third_Party/FreeRTOS/Source/timers.c **** 													configTIMER_SERVICE_TASK_NAME,
 428              		.loc 1 242 21 discriminator 1 view .LVU102
 429 0038 074B     		ldr	r3, .L29+12
 430 003a 1860     		str	r0, [r3]
 250:Middlewares/Third_Party/FreeRTOS/Source/timers.c **** 			{
 431              		.loc 1 250 4 is_stmt 1 view .LVU103
 250:Middlewares/Third_Party/FreeRTOS/Source/timers.c **** 			{
 432              		.loc 1 250 6 is_stmt 0 view .LVU104
 433 003c 0028     		cmp	r0, #0
 434 003e 02D0     		beq	.L25
 435              	.LBE3:
 273:Middlewares/Third_Party/FreeRTOS/Source/timers.c **** /*-----------------------------------------------------------*/
 436              		.loc 1 273 1 view .LVU105
 437 0040 0120     		movs	r0, #1
 438 0042 09B0     		add	sp, sp, #36
 439              		@ sp needed
 440 0044 00BD     		pop	{pc}
 441              	.L25:
 442              	.LVL36:
 271:Middlewares/Third_Party/FreeRTOS/Source/timers.c **** 	return xReturn;
 443              		.loc 1 271 2 is_stmt 1 discriminator 1 view .LVU106
 444              		.syntax divided
 445              	@ 271 "Middlewares/Third_Party/FreeRTOS/Source/timers.c" 1
 446 0046 72B6     		 cpsid i 
 447              	@ 0 "" 2
 448              		.thumb
 449              		.syntax unified
 450              	.L27:
 271:Middlewares/Third_Party/FreeRTOS/Source/timers.c **** 	return xReturn;
 451              		.loc 1 271 2 discriminator 3 view .LVU107
 271:Middlewares/Third_Party/FreeRTOS/Source/timers.c **** 	return xReturn;
 452              		.loc 1 271 2 discriminator 3 view .LVU108
 453 0048 FEE7     		b	.L27
 454              	.L30:
 455 004a C046     		.align	2
 456              	.L29:
 457 004c 00000000 		.word	xTimerQueue
 458 0050 00000000 		.word	.LC13
 459 0054 00000000 		.word	prvTimerTask
 460 0058 00000000 		.word	xTimerTaskHandle
 461              		.cfi_endproc
 462              	.LFE0:
 464              		.section	.text.xTimerCreate,"ax",%progbits
 465              		.align	1
 466              		.global	xTimerCreate
 467              		.syntax unified
 468              		.code	16
 469              		.thumb_func
 471              	xTimerCreate:
 472              	.LVL37:
ARM GAS  /var/folders/kr/g9ry2bg56g773797gdtkvvkw0000gn/T//cchcobXk.s 			page 27


 473              	.LFB1:
 283:Middlewares/Third_Party/FreeRTOS/Source/timers.c **** 	Timer_t *pxNewTimer;
 474              		.loc 1 283 2 view -0
 475              		.cfi_startproc
 476              		@ args = 4, pretend = 0, frame = 8
 477              		@ frame_needed = 0, uses_anonymous_args = 0
 283:Middlewares/Third_Party/FreeRTOS/Source/timers.c **** 	Timer_t *pxNewTimer;
 478              		.loc 1 283 2 is_stmt 0 view .LVU110
 479 0000 F0B5     		push	{r4, r5, r6, r7, lr}
 480              	.LCFI7:
 481              		.cfi_def_cfa_offset 20
 482              		.cfi_offset 4, -20
 483              		.cfi_offset 5, -16
 484              		.cfi_offset 6, -12
 485              		.cfi_offset 7, -8
 486              		.cfi_offset 14, -4
 487 0002 85B0     		sub	sp, sp, #20
 488              	.LCFI8:
 489              		.cfi_def_cfa_offset 40
 490 0004 0390     		str	r0, [sp, #12]
 491 0006 0D00     		movs	r5, r1
 492 0008 1600     		movs	r6, r2
 493 000a 1F00     		movs	r7, r3
 284:Middlewares/Third_Party/FreeRTOS/Source/timers.c **** 
 494              		.loc 1 284 2 is_stmt 1 view .LVU111
 286:Middlewares/Third_Party/FreeRTOS/Source/timers.c **** 
 495              		.loc 1 286 3 view .LVU112
 286:Middlewares/Third_Party/FreeRTOS/Source/timers.c **** 
 496              		.loc 1 286 30 is_stmt 0 view .LVU113
 497 000c 3020     		movs	r0, #48
 498              	.LVL38:
 286:Middlewares/Third_Party/FreeRTOS/Source/timers.c **** 
 499              		.loc 1 286 30 view .LVU114
 500 000e FFF7FEFF 		bl	pvPortMalloc
 501              	.LVL39:
 286:Middlewares/Third_Party/FreeRTOS/Source/timers.c **** 
 502              		.loc 1 286 30 view .LVU115
 503 0012 041E     		subs	r4, r0, #0
 504              	.LVL40:
 288:Middlewares/Third_Party/FreeRTOS/Source/timers.c **** 		{
 505              		.loc 1 288 3 is_stmt 1 view .LVU116
 288:Middlewares/Third_Party/FreeRTOS/Source/timers.c **** 		{
 506              		.loc 1 288 5 is_stmt 0 view .LVU117
 507 0014 0BD0     		beq	.L31
 290:Middlewares/Third_Party/FreeRTOS/Source/timers.c **** 
 508              		.loc 1 290 4 is_stmt 1 view .LVU118
 509 0016 0190     		str	r0, [sp, #4]
 510 0018 0A9B     		ldr	r3, [sp, #40]
 511 001a 0093     		str	r3, [sp]
 512 001c 3B00     		movs	r3, r7
 513 001e 3200     		movs	r2, r6
 514 0020 2900     		movs	r1, r5
 515 0022 0398     		ldr	r0, [sp, #12]
 516              	.LVL41:
 290:Middlewares/Third_Party/FreeRTOS/Source/timers.c **** 
 517              		.loc 1 290 4 is_stmt 0 view .LVU119
 518 0024 FFF7FEFF 		bl	prvInitialiseNewTimer
ARM GAS  /var/folders/kr/g9ry2bg56g773797gdtkvvkw0000gn/T//cchcobXk.s 			page 28


 519              	.LVL42:
 297:Middlewares/Third_Party/FreeRTOS/Source/timers.c **** 			}
 520              		.loc 1 297 5 is_stmt 1 view .LVU120
 297:Middlewares/Third_Party/FreeRTOS/Source/timers.c **** 			}
 521              		.loc 1 297 39 is_stmt 0 view .LVU121
 522 0028 2C23     		movs	r3, #44
 523 002a 0022     		movs	r2, #0
 524 002c E254     		strb	r2, [r4, r3]
 302:Middlewares/Third_Party/FreeRTOS/Source/timers.c **** 	}
 525              		.loc 1 302 3 is_stmt 1 view .LVU122
 526              	.L31:
 303:Middlewares/Third_Party/FreeRTOS/Source/timers.c **** 
 527              		.loc 1 303 2 is_stmt 0 view .LVU123
 528 002e 2000     		movs	r0, r4
 529 0030 05B0     		add	sp, sp, #20
 530              		@ sp needed
 531              	.LVL43:
 532              	.LVL44:
 533              	.LVL45:
 534              	.LVL46:
 303:Middlewares/Third_Party/FreeRTOS/Source/timers.c **** 
 535              		.loc 1 303 2 view .LVU124
 536 0032 F0BD     		pop	{r4, r5, r6, r7, pc}
 537              		.cfi_endproc
 538              	.LFE1:
 540              		.section	.text.xTimerCreateStatic,"ax",%progbits
 541              		.align	1
 542              		.global	xTimerCreateStatic
 543              		.syntax unified
 544              		.code	16
 545              		.thumb_func
 547              	xTimerCreateStatic:
 548              	.LVL47:
 549              	.LFB2:
 316:Middlewares/Third_Party/FreeRTOS/Source/timers.c **** 	Timer_t *pxNewTimer;
 550              		.loc 1 316 2 is_stmt 1 view -0
 551              		.cfi_startproc
 552              		@ args = 8, pretend = 0, frame = 8
 553              		@ frame_needed = 0, uses_anonymous_args = 0
 316:Middlewares/Third_Party/FreeRTOS/Source/timers.c **** 	Timer_t *pxNewTimer;
 554              		.loc 1 316 2 is_stmt 0 view .LVU126
 555 0000 10B5     		push	{r4, lr}
 556              	.LCFI9:
 557              		.cfi_def_cfa_offset 8
 558              		.cfi_offset 4, -8
 559              		.cfi_offset 14, -4
 560 0002 84B0     		sub	sp, sp, #16
 561              	.LCFI10:
 562              		.cfi_def_cfa_offset 24
 317:Middlewares/Third_Party/FreeRTOS/Source/timers.c **** 
 563              		.loc 1 317 2 is_stmt 1 view .LVU127
 564              	.LBB4:
 324:Middlewares/Third_Party/FreeRTOS/Source/timers.c **** 			configASSERT( xSize == sizeof( Timer_t ) );
 565              		.loc 1 324 4 view .LVU128
 324:Middlewares/Third_Party/FreeRTOS/Source/timers.c **** 			configASSERT( xSize == sizeof( Timer_t ) );
 566              		.loc 1 324 20 is_stmt 0 view .LVU129
 567 0004 3024     		movs	r4, #48
ARM GAS  /var/folders/kr/g9ry2bg56g773797gdtkvvkw0000gn/T//cchcobXk.s 			page 29


 568 0006 0394     		str	r4, [sp, #12]
 325:Middlewares/Third_Party/FreeRTOS/Source/timers.c **** 		}
 569              		.loc 1 325 4 is_stmt 1 view .LVU130
 570 0008 039C     		ldr	r4, [sp, #12]
 571 000a 302C     		cmp	r4, #48
 572 000c 01D0     		beq	.L34
 325:Middlewares/Third_Party/FreeRTOS/Source/timers.c **** 		}
 573              		.loc 1 325 4 discriminator 1 view .LVU131
 574              		.syntax divided
 575              	@ 325 "Middlewares/Third_Party/FreeRTOS/Source/timers.c" 1
 576 000e 72B6     		 cpsid i 
 577              	@ 0 "" 2
 578              		.thumb
 579              		.syntax unified
 580              	.L35:
 325:Middlewares/Third_Party/FreeRTOS/Source/timers.c **** 		}
 581              		.loc 1 325 4 discriminator 3 view .LVU132
 325:Middlewares/Third_Party/FreeRTOS/Source/timers.c **** 		}
 582              		.loc 1 325 4 discriminator 3 view .LVU133
 583 0010 FEE7     		b	.L35
 584              	.L34:
 325:Middlewares/Third_Party/FreeRTOS/Source/timers.c **** 		}
 585              		.loc 1 325 46 discriminator 2 view .LVU134
 586              	.LBE4:
 330:Middlewares/Third_Party/FreeRTOS/Source/timers.c **** 		pxNewTimer = ( Timer_t * ) pxTimerBuffer; /*lint !e740 Unusual cast is ok as the structures are d
 587              		.loc 1 330 3 view .LVU135
 588 0012 079C     		ldr	r4, [sp, #28]
 589 0014 002C     		cmp	r4, #0
 590 0016 0CD0     		beq	.L38
 330:Middlewares/Third_Party/FreeRTOS/Source/timers.c **** 		pxNewTimer = ( Timer_t * ) pxTimerBuffer; /*lint !e740 Unusual cast is ok as the structures are d
 591              		.loc 1 330 32 discriminator 2 view .LVU136
 331:Middlewares/Third_Party/FreeRTOS/Source/timers.c **** 
 592              		.loc 1 331 3 view .LVU137
 593              	.LVL48:
 333:Middlewares/Third_Party/FreeRTOS/Source/timers.c **** 		{
 594              		.loc 1 333 3 view .LVU138
 335:Middlewares/Third_Party/FreeRTOS/Source/timers.c **** 
 595              		.loc 1 335 4 view .LVU139
 596 0018 079C     		ldr	r4, [sp, #28]
 335:Middlewares/Third_Party/FreeRTOS/Source/timers.c **** 
 597              		.loc 1 335 4 is_stmt 0 view .LVU140
 598 001a 0194     		str	r4, [sp, #4]
 599 001c 069C     		ldr	r4, [sp, #24]
 600              	.LVL49:
 335:Middlewares/Third_Party/FreeRTOS/Source/timers.c **** 
 601              		.loc 1 335 4 view .LVU141
 602 001e 0094     		str	r4, [sp]
 603 0020 FFF7FEFF 		bl	prvInitialiseNewTimer
 604              	.LVL50:
 341:Middlewares/Third_Party/FreeRTOS/Source/timers.c **** 			}
 605              		.loc 1 341 5 is_stmt 1 view .LVU142
 341:Middlewares/Third_Party/FreeRTOS/Source/timers.c **** 			}
 606              		.loc 1 341 39 is_stmt 0 view .LVU143
 607 0024 2C23     		movs	r3, #44
 608 0026 0122     		movs	r2, #1
 609 0028 0799     		ldr	r1, [sp, #28]
 610 002a CA54     		strb	r2, [r1, r3]
ARM GAS  /var/folders/kr/g9ry2bg56g773797gdtkvvkw0000gn/T//cchcobXk.s 			page 30


 346:Middlewares/Third_Party/FreeRTOS/Source/timers.c **** 	}
 611              		.loc 1 346 3 is_stmt 1 view .LVU144
 347:Middlewares/Third_Party/FreeRTOS/Source/timers.c **** 
 612              		.loc 1 347 2 is_stmt 0 view .LVU145
 613 002c 0800     		movs	r0, r1
 614 002e 04B0     		add	sp, sp, #16
 615              		@ sp needed
 616 0030 10BD     		pop	{r4, pc}
 617              	.LVL51:
 618              	.L38:
 330:Middlewares/Third_Party/FreeRTOS/Source/timers.c **** 		pxNewTimer = ( Timer_t * ) pxTimerBuffer; /*lint !e740 Unusual cast is ok as the structures are d
 619              		.loc 1 330 3 is_stmt 1 discriminator 1 view .LVU146
 620              		.syntax divided
 621              	@ 330 "Middlewares/Third_Party/FreeRTOS/Source/timers.c" 1
 622 0032 72B6     		 cpsid i 
 623              	@ 0 "" 2
 624              		.thumb
 625              		.syntax unified
 626              	.L37:
 330:Middlewares/Third_Party/FreeRTOS/Source/timers.c **** 		pxNewTimer = ( Timer_t * ) pxTimerBuffer; /*lint !e740 Unusual cast is ok as the structures are d
 627              		.loc 1 330 3 discriminator 3 view .LVU147
 330:Middlewares/Third_Party/FreeRTOS/Source/timers.c **** 		pxNewTimer = ( Timer_t * ) pxTimerBuffer; /*lint !e740 Unusual cast is ok as the structures are d
 628              		.loc 1 330 3 discriminator 3 view .LVU148
 629 0034 FEE7     		b	.L37
 630              		.cfi_endproc
 631              	.LFE2:
 633              		.section	.text.xTimerGenericCommand,"ax",%progbits
 634              		.align	1
 635              		.global	xTimerGenericCommand
 636              		.syntax unified
 637              		.code	16
 638              		.thumb_func
 640              	xTimerGenericCommand:
 641              	.LVL52:
 642              	.LFB4:
 382:Middlewares/Third_Party/FreeRTOS/Source/timers.c **** BaseType_t xReturn = pdFAIL;
 643              		.loc 1 382 1 view -0
 644              		.cfi_startproc
 645              		@ args = 4, pretend = 0, frame = 16
 646              		@ frame_needed = 0, uses_anonymous_args = 0
 382:Middlewares/Third_Party/FreeRTOS/Source/timers.c **** BaseType_t xReturn = pdFAIL;
 647              		.loc 1 382 1 is_stmt 0 view .LVU150
 648 0000 30B5     		push	{r4, r5, lr}
 649              	.LCFI11:
 650              		.cfi_def_cfa_offset 12
 651              		.cfi_offset 4, -12
 652              		.cfi_offset 5, -8
 653              		.cfi_offset 14, -4
 654 0002 85B0     		sub	sp, sp, #20
 655              	.LCFI12:
 656              		.cfi_def_cfa_offset 32
 657 0004 1C00     		movs	r4, r3
 383:Middlewares/Third_Party/FreeRTOS/Source/timers.c **** DaemonTaskMessage_t xMessage;
 658              		.loc 1 383 1 is_stmt 1 view .LVU151
 659              	.LVL53:
 384:Middlewares/Third_Party/FreeRTOS/Source/timers.c **** 
 660              		.loc 1 384 1 view .LVU152
ARM GAS  /var/folders/kr/g9ry2bg56g773797gdtkvvkw0000gn/T//cchcobXk.s 			page 31


 386:Middlewares/Third_Party/FreeRTOS/Source/timers.c **** 
 661              		.loc 1 386 2 view .LVU153
 662 0006 0028     		cmp	r0, #0
 663 0008 14D0     		beq	.L46
 386:Middlewares/Third_Party/FreeRTOS/Source/timers.c **** 
 664              		.loc 1 386 24 discriminator 2 view .LVU154
 390:Middlewares/Third_Party/FreeRTOS/Source/timers.c **** 	{
 665              		.loc 1 390 2 view .LVU155
 390:Middlewares/Third_Party/FreeRTOS/Source/timers.c **** 	{
 666              		.loc 1 390 18 is_stmt 0 view .LVU156
 667 000a 144B     		ldr	r3, .L48
 668              	.LVL54:
 390:Middlewares/Third_Party/FreeRTOS/Source/timers.c **** 	{
 669              		.loc 1 390 18 view .LVU157
 670 000c 1D68     		ldr	r5, [r3]
 390:Middlewares/Third_Party/FreeRTOS/Source/timers.c **** 	{
 671              		.loc 1 390 4 view .LVU158
 672 000e 002D     		cmp	r5, #0
 673 0010 22D0     		beq	.L45
 393:Middlewares/Third_Party/FreeRTOS/Source/timers.c **** 		xMessage.u.xTimerParameters.xMessageValue = xOptionalValue;
 674              		.loc 1 393 3 is_stmt 1 view .LVU159
 393:Middlewares/Third_Party/FreeRTOS/Source/timers.c **** 		xMessage.u.xTimerParameters.xMessageValue = xOptionalValue;
 675              		.loc 1 393 23 is_stmt 0 view .LVU160
 676 0012 0091     		str	r1, [sp]
 394:Middlewares/Third_Party/FreeRTOS/Source/timers.c **** 		xMessage.u.xTimerParameters.pxTimer = ( Timer_t * ) xTimer;
 677              		.loc 1 394 3 is_stmt 1 view .LVU161
 394:Middlewares/Third_Party/FreeRTOS/Source/timers.c **** 		xMessage.u.xTimerParameters.pxTimer = ( Timer_t * ) xTimer;
 678              		.loc 1 394 45 is_stmt 0 view .LVU162
 679 0014 0192     		str	r2, [sp, #4]
 395:Middlewares/Third_Party/FreeRTOS/Source/timers.c **** 
 680              		.loc 1 395 3 is_stmt 1 view .LVU163
 395:Middlewares/Third_Party/FreeRTOS/Source/timers.c **** 
 681              		.loc 1 395 39 is_stmt 0 view .LVU164
 682 0016 0290     		str	r0, [sp, #8]
 397:Middlewares/Third_Party/FreeRTOS/Source/timers.c **** 		{
 683              		.loc 1 397 3 is_stmt 1 view .LVU165
 397:Middlewares/Third_Party/FreeRTOS/Source/timers.c **** 		{
 684              		.loc 1 397 5 is_stmt 0 view .LVU166
 685 0018 0529     		cmp	r1, #5
 686 001a 15DC     		bgt	.L43
 399:Middlewares/Third_Party/FreeRTOS/Source/timers.c **** 			{
 687              		.loc 1 399 4 is_stmt 1 view .LVU167
 399:Middlewares/Third_Party/FreeRTOS/Source/timers.c **** 			{
 688              		.loc 1 399 8 is_stmt 0 view .LVU168
 689 001c FFF7FEFF 		bl	xTaskGetSchedulerState
 690              	.LVL55:
 399:Middlewares/Third_Party/FreeRTOS/Source/timers.c **** 			{
 691              		.loc 1 399 6 discriminator 1 view .LVU169
 692 0020 0228     		cmp	r0, #2
 693 0022 09D0     		beq	.L47
 405:Middlewares/Third_Party/FreeRTOS/Source/timers.c **** 			}
 694              		.loc 1 405 5 is_stmt 1 view .LVU170
 405:Middlewares/Third_Party/FreeRTOS/Source/timers.c **** 			}
 695              		.loc 1 405 15 is_stmt 0 view .LVU171
 696 0024 0D4B     		ldr	r3, .L48
 697 0026 1868     		ldr	r0, [r3]
 698 0028 0023     		movs	r3, #0
ARM GAS  /var/folders/kr/g9ry2bg56g773797gdtkvvkw0000gn/T//cchcobXk.s 			page 32


 699 002a 0022     		movs	r2, #0
 700 002c 6946     		mov	r1, sp
 701 002e FFF7FEFF 		bl	xQueueGenericSend
 702              	.LVL56:
 405:Middlewares/Third_Party/FreeRTOS/Source/timers.c **** 			}
 703              		.loc 1 405 15 view .LVU172
 704 0032 0FE0     		b	.L39
 705              	.LVL57:
 706              	.L46:
 386:Middlewares/Third_Party/FreeRTOS/Source/timers.c **** 
 707              		.loc 1 386 2 is_stmt 1 discriminator 1 view .LVU173
 708              		.syntax divided
 709              	@ 386 "Middlewares/Third_Party/FreeRTOS/Source/timers.c" 1
 710 0034 72B6     		 cpsid i 
 711              	@ 0 "" 2
 712              		.thumb
 713              		.syntax unified
 714              	.L41:
 386:Middlewares/Third_Party/FreeRTOS/Source/timers.c **** 
 715              		.loc 1 386 2 discriminator 3 view .LVU174
 386:Middlewares/Third_Party/FreeRTOS/Source/timers.c **** 
 716              		.loc 1 386 2 discriminator 3 view .LVU175
 717 0036 FEE7     		b	.L41
 718              	.LVL58:
 719              	.L47:
 401:Middlewares/Third_Party/FreeRTOS/Source/timers.c **** 			}
 720              		.loc 1 401 5 view .LVU176
 401:Middlewares/Third_Party/FreeRTOS/Source/timers.c **** 			}
 721              		.loc 1 401 15 is_stmt 0 view .LVU177
 722 0038 084B     		ldr	r3, .L48
 723 003a 1868     		ldr	r0, [r3]
 724 003c 0023     		movs	r3, #0
 725 003e 089A     		ldr	r2, [sp, #32]
 726 0040 6946     		mov	r1, sp
 727 0042 FFF7FEFF 		bl	xQueueGenericSend
 728              	.LVL59:
 401:Middlewares/Third_Party/FreeRTOS/Source/timers.c **** 			}
 729              		.loc 1 401 15 view .LVU178
 730 0046 05E0     		b	.L39
 731              	.LVL60:
 732              	.L43:
 410:Middlewares/Third_Party/FreeRTOS/Source/timers.c **** 		}
 733              		.loc 1 410 4 is_stmt 1 view .LVU179
 410:Middlewares/Third_Party/FreeRTOS/Source/timers.c **** 		}
 734              		.loc 1 410 14 is_stmt 0 view .LVU180
 735 0048 0023     		movs	r3, #0
 736 004a 2200     		movs	r2, r4
 737              	.LVL61:
 410:Middlewares/Third_Party/FreeRTOS/Source/timers.c **** 		}
 738              		.loc 1 410 14 view .LVU181
 739 004c 6946     		mov	r1, sp
 740              	.LVL62:
 410:Middlewares/Third_Party/FreeRTOS/Source/timers.c **** 		}
 741              		.loc 1 410 14 view .LVU182
 742 004e 2800     		movs	r0, r5
 743              	.LVL63:
 410:Middlewares/Third_Party/FreeRTOS/Source/timers.c **** 		}
ARM GAS  /var/folders/kr/g9ry2bg56g773797gdtkvvkw0000gn/T//cchcobXk.s 			page 33


 744              		.loc 1 410 14 view .LVU183
 745 0050 FFF7FEFF 		bl	xQueueGenericSendFromISR
 746              	.LVL64:
 747              	.L39:
 421:Middlewares/Third_Party/FreeRTOS/Source/timers.c **** /*-----------------------------------------------------------*/
 748              		.loc 1 421 1 view .LVU184
 749 0054 05B0     		add	sp, sp, #20
 750              		@ sp needed
 751              	.LVL65:
 421:Middlewares/Third_Party/FreeRTOS/Source/timers.c **** /*-----------------------------------------------------------*/
 752              		.loc 1 421 1 view .LVU185
 753 0056 30BD     		pop	{r4, r5, pc}
 754              	.LVL66:
 755              	.L45:
 383:Middlewares/Third_Party/FreeRTOS/Source/timers.c **** DaemonTaskMessage_t xMessage;
 756              		.loc 1 383 12 view .LVU186
 757 0058 0020     		movs	r0, #0
 758              	.LVL67:
 417:Middlewares/Third_Party/FreeRTOS/Source/timers.c **** 	}
 759              		.loc 1 417 27 is_stmt 1 view .LVU187
 420:Middlewares/Third_Party/FreeRTOS/Source/timers.c **** }
 760              		.loc 1 420 2 view .LVU188
 420:Middlewares/Third_Party/FreeRTOS/Source/timers.c **** }
 761              		.loc 1 420 9 is_stmt 0 view .LVU189
 762 005a FBE7     		b	.L39
 763              	.L49:
 764              		.align	2
 765              	.L48:
 766 005c 00000000 		.word	xTimerQueue
 767              		.cfi_endproc
 768              	.LFE4:
 770              		.section	.text.prvSwitchTimerLists,"ax",%progbits
 771              		.align	1
 772              		.syntax unified
 773              		.code	16
 774              		.thumb_func
 776              	prvSwitchTimerLists:
 777              	.LFB16:
 836:Middlewares/Third_Party/FreeRTOS/Source/timers.c **** TickType_t xNextExpireTime, xReloadTime;
 778              		.loc 1 836 1 is_stmt 1 view -0
 779              		.cfi_startproc
 780              		@ args = 0, pretend = 0, frame = 0
 781              		@ frame_needed = 0, uses_anonymous_args = 0
 782 0000 70B5     		push	{r4, r5, r6, lr}
 783              	.LCFI13:
 784              		.cfi_def_cfa_offset 16
 785              		.cfi_offset 4, -16
 786              		.cfi_offset 5, -12
 787              		.cfi_offset 6, -8
 788              		.cfi_offset 14, -4
 789 0002 82B0     		sub	sp, sp, #8
 790              	.LCFI14:
 791              		.cfi_def_cfa_offset 24
 837:Middlewares/Third_Party/FreeRTOS/Source/timers.c **** List_t *pxTemp;
 792              		.loc 1 837 1 view .LVU191
 838:Middlewares/Third_Party/FreeRTOS/Source/timers.c **** Timer_t *pxTimer;
 793              		.loc 1 838 1 view .LVU192
ARM GAS  /var/folders/kr/g9ry2bg56g773797gdtkvvkw0000gn/T//cchcobXk.s 			page 34


 839:Middlewares/Third_Party/FreeRTOS/Source/timers.c **** BaseType_t xResult;
 794              		.loc 1 839 1 view .LVU193
 840:Middlewares/Third_Party/FreeRTOS/Source/timers.c **** 
 795              		.loc 1 840 1 view .LVU194
 846:Middlewares/Third_Party/FreeRTOS/Source/timers.c **** 	{
 796              		.loc 1 846 2 view .LVU195
 797              	.L52:
 884:Middlewares/Third_Party/FreeRTOS/Source/timers.c **** 		}
 798              		.loc 1 884 28 view .LVU196
 846:Middlewares/Third_Party/FreeRTOS/Source/timers.c **** 	{
 799              		.loc 1 846 49 view .LVU197
 846:Middlewares/Third_Party/FreeRTOS/Source/timers.c **** 	{
 800              		.loc 1 846 9 is_stmt 0 view .LVU198
 801 0004 174B     		ldr	r3, .L58
 802 0006 1B68     		ldr	r3, [r3]
 803 0008 1A68     		ldr	r2, [r3]
 846:Middlewares/Third_Party/FreeRTOS/Source/timers.c **** 	{
 804              		.loc 1 846 49 view .LVU199
 805 000a 002A     		cmp	r2, #0
 806 000c 23D0     		beq	.L57
 848:Middlewares/Third_Party/FreeRTOS/Source/timers.c **** 
 807              		.loc 1 848 3 is_stmt 1 view .LVU200
 848:Middlewares/Third_Party/FreeRTOS/Source/timers.c **** 
 808              		.loc 1 848 21 is_stmt 0 view .LVU201
 809 000e DB68     		ldr	r3, [r3, #12]
 848:Middlewares/Third_Party/FreeRTOS/Source/timers.c **** 
 810              		.loc 1 848 19 view .LVU202
 811 0010 1E68     		ldr	r6, [r3]
 812              	.LVL68:
 851:Middlewares/Third_Party/FreeRTOS/Source/timers.c **** 		( void ) uxListRemove( &( pxTimer->xTimerListItem ) );
 813              		.loc 1 851 3 is_stmt 1 view .LVU203
 851:Middlewares/Third_Party/FreeRTOS/Source/timers.c **** 		( void ) uxListRemove( &( pxTimer->xTimerListItem ) );
 814              		.loc 1 851 11 is_stmt 0 view .LVU204
 815 0012 DC68     		ldr	r4, [r3, #12]
 816              	.LVL69:
 852:Middlewares/Third_Party/FreeRTOS/Source/timers.c **** 		traceTIMER_EXPIRED( pxTimer );
 817              		.loc 1 852 3 is_stmt 1 view .LVU205
 852:Middlewares/Third_Party/FreeRTOS/Source/timers.c **** 		traceTIMER_EXPIRED( pxTimer );
 818              		.loc 1 852 12 is_stmt 0 view .LVU206
 819 0014 251D     		adds	r5, r4, #4
 820 0016 2800     		movs	r0, r5
 821 0018 FFF7FEFF 		bl	uxListRemove
 822              	.LVL70:
 853:Middlewares/Third_Party/FreeRTOS/Source/timers.c **** 
 823              		.loc 1 853 32 is_stmt 1 view .LVU207
 858:Middlewares/Third_Party/FreeRTOS/Source/timers.c **** 
 824              		.loc 1 858 3 view .LVU208
 858:Middlewares/Third_Party/FreeRTOS/Source/timers.c **** 
 825              		.loc 1 858 10 is_stmt 0 view .LVU209
 826 001c 636A     		ldr	r3, [r4, #36]
 858:Middlewares/Third_Party/FreeRTOS/Source/timers.c **** 
 827              		.loc 1 858 3 view .LVU210
 828 001e 2000     		movs	r0, r4
 829 0020 9847     		blx	r3
 830              	.LVL71:
 860:Middlewares/Third_Party/FreeRTOS/Source/timers.c **** 		{
 831              		.loc 1 860 3 is_stmt 1 view .LVU211
ARM GAS  /var/folders/kr/g9ry2bg56g773797gdtkvvkw0000gn/T//cchcobXk.s 			page 35


 860:Middlewares/Third_Party/FreeRTOS/Source/timers.c **** 		{
 832              		.loc 1 860 14 is_stmt 0 view .LVU212
 833 0022 E369     		ldr	r3, [r4, #28]
 860:Middlewares/Third_Party/FreeRTOS/Source/timers.c **** 		{
 834              		.loc 1 860 5 view .LVU213
 835 0024 012B     		cmp	r3, #1
 836 0026 EDD1     		bne	.L52
 868:Middlewares/Third_Party/FreeRTOS/Source/timers.c **** 			if( xReloadTime > xNextExpireTime )
 837              		.loc 1 868 4 is_stmt 1 view .LVU214
 868:Middlewares/Third_Party/FreeRTOS/Source/timers.c **** 			if( xReloadTime > xNextExpireTime )
 838              		.loc 1 868 45 is_stmt 0 view .LVU215
 839 0028 A369     		ldr	r3, [r4, #24]
 868:Middlewares/Third_Party/FreeRTOS/Source/timers.c **** 			if( xReloadTime > xNextExpireTime )
 840              		.loc 1 868 16 view .LVU216
 841 002a 9B19     		adds	r3, r3, r6
 842              	.LVL72:
 869:Middlewares/Third_Party/FreeRTOS/Source/timers.c **** 			{
 843              		.loc 1 869 4 is_stmt 1 view .LVU217
 869:Middlewares/Third_Party/FreeRTOS/Source/timers.c **** 			{
 844              		.loc 1 869 6 is_stmt 0 view .LVU218
 845 002c 9E42     		cmp	r6, r3
 846 002e 07D2     		bcs	.L53
 871:Middlewares/Third_Party/FreeRTOS/Source/timers.c **** 				listSET_LIST_ITEM_OWNER( &( pxTimer->xTimerListItem ), pxTimer );
 847              		.loc 1 871 5 is_stmt 1 view .LVU219
 848 0030 6360     		str	r3, [r4, #4]
 872:Middlewares/Third_Party/FreeRTOS/Source/timers.c **** 				vListInsert( pxCurrentTimerList, &( pxTimer->xTimerListItem ) );
 849              		.loc 1 872 5 view .LVU220
 850 0032 2461     		str	r4, [r4, #16]
 873:Middlewares/Third_Party/FreeRTOS/Source/timers.c **** 			}
 851              		.loc 1 873 5 view .LVU221
 852 0034 0B4B     		ldr	r3, .L58
 853              	.LVL73:
 873:Middlewares/Third_Party/FreeRTOS/Source/timers.c **** 			}
 854              		.loc 1 873 5 is_stmt 0 view .LVU222
 855 0036 1868     		ldr	r0, [r3]
 856 0038 2900     		movs	r1, r5
 857 003a FFF7FEFF 		bl	vListInsert
 858              	.LVL74:
 873:Middlewares/Third_Party/FreeRTOS/Source/timers.c **** 			}
 859              		.loc 1 873 5 view .LVU223
 860 003e E1E7     		b	.L52
 861              	.LVL75:
 862              	.L53:
 877:Middlewares/Third_Party/FreeRTOS/Source/timers.c **** 				configASSERT( xResult );
 863              		.loc 1 877 5 is_stmt 1 view .LVU224
 877:Middlewares/Third_Party/FreeRTOS/Source/timers.c **** 				configASSERT( xResult );
 864              		.loc 1 877 15 is_stmt 0 view .LVU225
 865 0040 0023     		movs	r3, #0
 866              	.LVL76:
 877:Middlewares/Third_Party/FreeRTOS/Source/timers.c **** 				configASSERT( xResult );
 867              		.loc 1 877 15 view .LVU226
 868 0042 0093     		str	r3, [sp]
 869              	.LVL77:
 877:Middlewares/Third_Party/FreeRTOS/Source/timers.c **** 				configASSERT( xResult );
 870              		.loc 1 877 15 view .LVU227
 871 0044 3200     		movs	r2, r6
 872 0046 0021     		movs	r1, #0
ARM GAS  /var/folders/kr/g9ry2bg56g773797gdtkvvkw0000gn/T//cchcobXk.s 			page 36


 873 0048 2000     		movs	r0, r4
 874 004a FFF7FEFF 		bl	xTimerGenericCommand
 875              	.LVL78:
 878:Middlewares/Third_Party/FreeRTOS/Source/timers.c **** 				( void ) xResult;
 876              		.loc 1 878 5 is_stmt 1 view .LVU228
 877 004e 0028     		cmp	r0, #0
 878 0050 D8D1     		bne	.L52
 878:Middlewares/Third_Party/FreeRTOS/Source/timers.c **** 				( void ) xResult;
 879              		.loc 1 878 5 discriminator 1 view .LVU229
 880              		.syntax divided
 881              	@ 878 "Middlewares/Third_Party/FreeRTOS/Source/timers.c" 1
 882 0052 72B6     		 cpsid i 
 883              	@ 0 "" 2
 884              		.thumb
 885              		.syntax unified
 886              	.L55:
 878:Middlewares/Third_Party/FreeRTOS/Source/timers.c **** 				( void ) xResult;
 887              		.loc 1 878 5 discriminator 3 view .LVU230
 878:Middlewares/Third_Party/FreeRTOS/Source/timers.c **** 				( void ) xResult;
 888              		.loc 1 878 5 discriminator 3 view .LVU231
 889 0054 FEE7     		b	.L55
 890              	.LVL79:
 891              	.L57:
 888:Middlewares/Third_Party/FreeRTOS/Source/timers.c **** 	pxCurrentTimerList = pxOverflowTimerList;
 892              		.loc 1 888 2 view .LVU232
 889:Middlewares/Third_Party/FreeRTOS/Source/timers.c **** 	pxOverflowTimerList = pxTemp;
 893              		.loc 1 889 2 view .LVU233
 889:Middlewares/Third_Party/FreeRTOS/Source/timers.c **** 	pxOverflowTimerList = pxTemp;
 894              		.loc 1 889 21 is_stmt 0 view .LVU234
 895 0056 034A     		ldr	r2, .L58
 896 0058 0349     		ldr	r1, .L58+4
 897 005a 0868     		ldr	r0, [r1]
 898 005c 1060     		str	r0, [r2]
 890:Middlewares/Third_Party/FreeRTOS/Source/timers.c **** }
 899              		.loc 1 890 2 is_stmt 1 view .LVU235
 890:Middlewares/Third_Party/FreeRTOS/Source/timers.c **** }
 900              		.loc 1 890 22 is_stmt 0 view .LVU236
 901 005e 0B60     		str	r3, [r1]
 891:Middlewares/Third_Party/FreeRTOS/Source/timers.c **** /*-----------------------------------------------------------*/
 902              		.loc 1 891 1 view .LVU237
 903 0060 02B0     		add	sp, sp, #8
 904              		@ sp needed
 905 0062 70BD     		pop	{r4, r5, r6, pc}
 906              	.L59:
 907              		.align	2
 908              	.L58:
 909 0064 00000000 		.word	pxCurrentTimerList
 910 0068 00000000 		.word	pxOverflowTimerList
 911              		.cfi_endproc
 912              	.LFE16:
 914              		.section	.text.prvSampleTimeNow,"ax",%progbits
 915              		.align	1
 916              		.syntax unified
 917              		.code	16
 918              		.thumb_func
 920              	prvSampleTimeNow:
 921              	.LVL80:
ARM GAS  /var/folders/kr/g9ry2bg56g773797gdtkvvkw0000gn/T//cchcobXk.s 			page 37


 922              	.LFB13:
 625:Middlewares/Third_Party/FreeRTOS/Source/timers.c **** TickType_t xTimeNow;
 923              		.loc 1 625 1 is_stmt 1 view -0
 924              		.cfi_startproc
 925              		@ args = 0, pretend = 0, frame = 0
 926              		@ frame_needed = 0, uses_anonymous_args = 0
 625:Middlewares/Third_Party/FreeRTOS/Source/timers.c **** TickType_t xTimeNow;
 927              		.loc 1 625 1 is_stmt 0 view .LVU239
 928 0000 70B5     		push	{r4, r5, r6, lr}
 929              	.LCFI15:
 930              		.cfi_def_cfa_offset 16
 931              		.cfi_offset 4, -16
 932              		.cfi_offset 5, -12
 933              		.cfi_offset 6, -8
 934              		.cfi_offset 14, -4
 935 0002 0500     		movs	r5, r0
 626:Middlewares/Third_Party/FreeRTOS/Source/timers.c **** PRIVILEGED_DATA static TickType_t xLastTime = ( TickType_t ) 0U; /*lint !e956 Variable is only acce
 936              		.loc 1 626 1 is_stmt 1 view .LVU240
 627:Middlewares/Third_Party/FreeRTOS/Source/timers.c **** 
 937              		.loc 1 627 17 view .LVU241
 629:Middlewares/Third_Party/FreeRTOS/Source/timers.c **** 
 938              		.loc 1 629 2 view .LVU242
 629:Middlewares/Third_Party/FreeRTOS/Source/timers.c **** 
 939              		.loc 1 629 13 is_stmt 0 view .LVU243
 940 0004 FFF7FEFF 		bl	xTaskGetTickCount
 941              	.LVL81:
 629:Middlewares/Third_Party/FreeRTOS/Source/timers.c **** 
 942              		.loc 1 629 13 view .LVU244
 943 0008 0400     		movs	r4, r0
 944              	.LVL82:
 631:Middlewares/Third_Party/FreeRTOS/Source/timers.c **** 	{
 945              		.loc 1 631 2 is_stmt 1 view .LVU245
 631:Middlewares/Third_Party/FreeRTOS/Source/timers.c **** 	{
 946              		.loc 1 631 15 is_stmt 0 view .LVU246
 947 000a 074B     		ldr	r3, .L64
 948 000c 1B68     		ldr	r3, [r3]
 631:Middlewares/Third_Party/FreeRTOS/Source/timers.c **** 	{
 949              		.loc 1 631 4 view .LVU247
 950 000e 8342     		cmp	r3, r0
 951 0010 05D8     		bhi	.L63
 638:Middlewares/Third_Party/FreeRTOS/Source/timers.c **** 	}
 952              		.loc 1 638 3 is_stmt 1 view .LVU248
 638:Middlewares/Third_Party/FreeRTOS/Source/timers.c **** 	}
 953              		.loc 1 638 29 is_stmt 0 view .LVU249
 954 0012 0023     		movs	r3, #0
 955 0014 2B60     		str	r3, [r5]
 956              	.LVL83:
 957              	.L62:
 641:Middlewares/Third_Party/FreeRTOS/Source/timers.c **** 
 958              		.loc 1 641 2 is_stmt 1 view .LVU250
 641:Middlewares/Third_Party/FreeRTOS/Source/timers.c **** 
 959              		.loc 1 641 12 is_stmt 0 view .LVU251
 960 0016 044B     		ldr	r3, .L64
 961 0018 1C60     		str	r4, [r3]
 643:Middlewares/Third_Party/FreeRTOS/Source/timers.c **** }
 962              		.loc 1 643 2 is_stmt 1 view .LVU252
 644:Middlewares/Third_Party/FreeRTOS/Source/timers.c **** /*-----------------------------------------------------------*/
ARM GAS  /var/folders/kr/g9ry2bg56g773797gdtkvvkw0000gn/T//cchcobXk.s 			page 38


 963              		.loc 1 644 1 is_stmt 0 view .LVU253
 964 001a 2000     		movs	r0, r4
 965              		@ sp needed
 966              	.LVL84:
 967              	.LVL85:
 644:Middlewares/Third_Party/FreeRTOS/Source/timers.c **** /*-----------------------------------------------------------*/
 968              		.loc 1 644 1 view .LVU254
 969 001c 70BD     		pop	{r4, r5, r6, pc}
 970              	.LVL86:
 971              	.L63:
 633:Middlewares/Third_Party/FreeRTOS/Source/timers.c **** 		*pxTimerListsWereSwitched = pdTRUE;
 972              		.loc 1 633 3 is_stmt 1 view .LVU255
 973 001e FFF7FEFF 		bl	prvSwitchTimerLists
 974              	.LVL87:
 634:Middlewares/Third_Party/FreeRTOS/Source/timers.c **** 	}
 975              		.loc 1 634 3 view .LVU256
 634:Middlewares/Third_Party/FreeRTOS/Source/timers.c **** 	}
 976              		.loc 1 634 29 is_stmt 0 view .LVU257
 977 0022 0123     		movs	r3, #1
 978 0024 2B60     		str	r3, [r5]
 979 0026 F6E7     		b	.L62
 980              	.L65:
 981              		.align	2
 982              	.L64:
 983 0028 00000000 		.word	xLastTime.2
 984              		.cfi_endproc
 985              	.LFE13:
 987              		.section	.text.prvProcessExpiredTimer,"ax",%progbits
 988              		.align	1
 989              		.syntax unified
 990              		.code	16
 991              		.thumb_func
 993              	prvProcessExpiredTimer:
 994              	.LVL88:
 995              	.LFB9:
 463:Middlewares/Third_Party/FreeRTOS/Source/timers.c **** BaseType_t xResult;
 996              		.loc 1 463 1 is_stmt 1 view -0
 997              		.cfi_startproc
 998              		@ args = 0, pretend = 0, frame = 0
 999              		@ frame_needed = 0, uses_anonymous_args = 0
 463:Middlewares/Third_Party/FreeRTOS/Source/timers.c **** BaseType_t xResult;
 1000              		.loc 1 463 1 is_stmt 0 view .LVU259
 1001 0000 70B5     		push	{r4, r5, r6, lr}
 1002              	.LCFI16:
 1003              		.cfi_def_cfa_offset 16
 1004              		.cfi_offset 4, -16
 1005              		.cfi_offset 5, -12
 1006              		.cfi_offset 6, -8
 1007              		.cfi_offset 14, -4
 1008 0002 82B0     		sub	sp, sp, #8
 1009              	.LCFI17:
 1010              		.cfi_def_cfa_offset 24
 1011 0004 0500     		movs	r5, r0
 1012 0006 0E00     		movs	r6, r1
 464:Middlewares/Third_Party/FreeRTOS/Source/timers.c **** Timer_t * const pxTimer = ( Timer_t * ) listGET_OWNER_OF_HEAD_ENTRY( pxCurrentTimerList );
 1013              		.loc 1 464 1 is_stmt 1 view .LVU260
 465:Middlewares/Third_Party/FreeRTOS/Source/timers.c **** 
ARM GAS  /var/folders/kr/g9ry2bg56g773797gdtkvvkw0000gn/T//cchcobXk.s 			page 39


 1014              		.loc 1 465 1 view .LVU261
 465:Middlewares/Third_Party/FreeRTOS/Source/timers.c **** 
 1015              		.loc 1 465 41 is_stmt 0 view .LVU262
 1016 0008 114B     		ldr	r3, .L70
 1017 000a 1B68     		ldr	r3, [r3]
 1018 000c DB68     		ldr	r3, [r3, #12]
 465:Middlewares/Third_Party/FreeRTOS/Source/timers.c **** 
 1019              		.loc 1 465 17 view .LVU263
 1020 000e DC68     		ldr	r4, [r3, #12]
 1021              	.LVL89:
 469:Middlewares/Third_Party/FreeRTOS/Source/timers.c **** 	traceTIMER_EXPIRED( pxTimer );
 1022              		.loc 1 469 2 is_stmt 1 view .LVU264
 469:Middlewares/Third_Party/FreeRTOS/Source/timers.c **** 	traceTIMER_EXPIRED( pxTimer );
 1023              		.loc 1 469 11 is_stmt 0 view .LVU265
 1024 0010 201D     		adds	r0, r4, #4
 1025              	.LVL90:
 469:Middlewares/Third_Party/FreeRTOS/Source/timers.c **** 	traceTIMER_EXPIRED( pxTimer );
 1026              		.loc 1 469 11 view .LVU266
 1027 0012 FFF7FEFF 		bl	uxListRemove
 1028              	.LVL91:
 470:Middlewares/Third_Party/FreeRTOS/Source/timers.c **** 
 1029              		.loc 1 470 31 is_stmt 1 view .LVU267
 474:Middlewares/Third_Party/FreeRTOS/Source/timers.c **** 	{
 1030              		.loc 1 474 2 view .LVU268
 474:Middlewares/Third_Party/FreeRTOS/Source/timers.c **** 	{
 1031              		.loc 1 474 13 is_stmt 0 view .LVU269
 1032 0016 E369     		ldr	r3, [r4, #28]
 474:Middlewares/Third_Party/FreeRTOS/Source/timers.c **** 	{
 1033              		.loc 1 474 4 view .LVU270
 1034 0018 012B     		cmp	r3, #1
 1035 001a 04D0     		beq	.L69
 1036              	.L67:
 494:Middlewares/Third_Party/FreeRTOS/Source/timers.c **** 	}
 1037              		.loc 1 494 27 is_stmt 1 view .LVU271
 498:Middlewares/Third_Party/FreeRTOS/Source/timers.c **** }
 1038              		.loc 1 498 2 view .LVU272
 498:Middlewares/Third_Party/FreeRTOS/Source/timers.c **** }
 1039              		.loc 1 498 9 is_stmt 0 view .LVU273
 1040 001c 636A     		ldr	r3, [r4, #36]
 498:Middlewares/Third_Party/FreeRTOS/Source/timers.c **** }
 1041              		.loc 1 498 2 view .LVU274
 1042 001e 2000     		movs	r0, r4
 1043 0020 9847     		blx	r3
 1044              	.LVL92:
 499:Middlewares/Third_Party/FreeRTOS/Source/timers.c **** /*-----------------------------------------------------------*/
 1045              		.loc 1 499 1 view .LVU275
 1046 0022 02B0     		add	sp, sp, #8
 1047              		@ sp needed
 1048              	.LVL93:
 1049              	.LVL94:
 1050              	.LVL95:
 499:Middlewares/Third_Party/FreeRTOS/Source/timers.c **** /*-----------------------------------------------------------*/
 1051              		.loc 1 499 1 view .LVU276
 1052 0024 70BD     		pop	{r4, r5, r6, pc}
 1053              	.LVL96:
 1054              	.L69:
 479:Middlewares/Third_Party/FreeRTOS/Source/timers.c **** 		{
ARM GAS  /var/folders/kr/g9ry2bg56g773797gdtkvvkw0000gn/T//cchcobXk.s 			page 40


 1055              		.loc 1 479 3 is_stmt 1 view .LVU277
 479:Middlewares/Third_Party/FreeRTOS/Source/timers.c **** 		{
 1056              		.loc 1 479 71 is_stmt 0 view .LVU278
 1057 0026 A169     		ldr	r1, [r4, #24]
 479:Middlewares/Third_Party/FreeRTOS/Source/timers.c **** 		{
 1058              		.loc 1 479 7 view .LVU279
 1059 0028 4919     		adds	r1, r1, r5
 1060 002a 2B00     		movs	r3, r5
 1061 002c 3200     		movs	r2, r6
 1062 002e 2000     		movs	r0, r4
 1063 0030 FFF7FEFF 		bl	prvInsertTimerInActiveList
 1064              	.LVL97:
 479:Middlewares/Third_Party/FreeRTOS/Source/timers.c **** 		{
 1065              		.loc 1 479 5 discriminator 1 view .LVU280
 1066 0034 0028     		cmp	r0, #0
 1067 0036 F1D0     		beq	.L67
 483:Middlewares/Third_Party/FreeRTOS/Source/timers.c **** 			configASSERT( xResult );
 1068              		.loc 1 483 4 is_stmt 1 view .LVU281
 483:Middlewares/Third_Party/FreeRTOS/Source/timers.c **** 			configASSERT( xResult );
 1069              		.loc 1 483 14 is_stmt 0 view .LVU282
 1070 0038 0023     		movs	r3, #0
 1071 003a 0093     		str	r3, [sp]
 1072 003c 2A00     		movs	r2, r5
 1073 003e 0021     		movs	r1, #0
 1074 0040 2000     		movs	r0, r4
 1075 0042 FFF7FEFF 		bl	xTimerGenericCommand
 1076              	.LVL98:
 484:Middlewares/Third_Party/FreeRTOS/Source/timers.c **** 			( void ) xResult;
 1077              		.loc 1 484 4 is_stmt 1 view .LVU283
 1078 0046 0028     		cmp	r0, #0
 1079 0048 E8D1     		bne	.L67
 484:Middlewares/Third_Party/FreeRTOS/Source/timers.c **** 			( void ) xResult;
 1080              		.loc 1 484 4 discriminator 1 view .LVU284
 1081              		.syntax divided
 1082              	@ 484 "Middlewares/Third_Party/FreeRTOS/Source/timers.c" 1
 1083 004a 72B6     		 cpsid i 
 1084              	@ 0 "" 2
 1085              		.thumb
 1086              		.syntax unified
 1087              	.L68:
 484:Middlewares/Third_Party/FreeRTOS/Source/timers.c **** 			( void ) xResult;
 1088              		.loc 1 484 4 discriminator 3 view .LVU285
 484:Middlewares/Third_Party/FreeRTOS/Source/timers.c **** 			( void ) xResult;
 1089              		.loc 1 484 4 discriminator 3 view .LVU286
 1090 004c FEE7     		b	.L68
 1091              	.L71:
 1092 004e C046     		.align	2
 1093              	.L70:
 1094 0050 00000000 		.word	pxCurrentTimerList
 1095              		.cfi_endproc
 1096              	.LFE9:
 1098              		.section	.text.prvProcessTimerOrBlockTask,"ax",%progbits
 1099              		.align	1
 1100              		.syntax unified
 1101              		.code	16
 1102              		.thumb_func
 1104              	prvProcessTimerOrBlockTask:
ARM GAS  /var/folders/kr/g9ry2bg56g773797gdtkvvkw0000gn/T//cchcobXk.s 			page 41


 1105              	.LVL99:
 1106              	.LFB11:
 539:Middlewares/Third_Party/FreeRTOS/Source/timers.c **** TickType_t xTimeNow;
 1107              		.loc 1 539 1 view -0
 1108              		.cfi_startproc
 1109              		@ args = 0, pretend = 0, frame = 8
 1110              		@ frame_needed = 0, uses_anonymous_args = 0
 539:Middlewares/Third_Party/FreeRTOS/Source/timers.c **** TickType_t xTimeNow;
 1111              		.loc 1 539 1 is_stmt 0 view .LVU288
 1112 0000 70B5     		push	{r4, r5, r6, lr}
 1113              	.LCFI18:
 1114              		.cfi_def_cfa_offset 16
 1115              		.cfi_offset 4, -16
 1116              		.cfi_offset 5, -12
 1117              		.cfi_offset 6, -8
 1118              		.cfi_offset 14, -4
 1119 0002 82B0     		sub	sp, sp, #8
 1120              	.LCFI19:
 1121              		.cfi_def_cfa_offset 24
 1122 0004 0500     		movs	r5, r0
 1123 0006 0C00     		movs	r4, r1
 540:Middlewares/Third_Party/FreeRTOS/Source/timers.c **** BaseType_t xTimerListsWereSwitched;
 1124              		.loc 1 540 1 is_stmt 1 view .LVU289
 541:Middlewares/Third_Party/FreeRTOS/Source/timers.c **** 
 1125              		.loc 1 541 1 view .LVU290
 543:Middlewares/Third_Party/FreeRTOS/Source/timers.c **** 	{
 1126              		.loc 1 543 2 view .LVU291
 1127 0008 FFF7FEFF 		bl	vTaskSuspendAll
 1128              	.LVL100:
 550:Middlewares/Third_Party/FreeRTOS/Source/timers.c **** 		if( xTimerListsWereSwitched == pdFALSE )
 1129              		.loc 1 550 3 view .LVU292
 550:Middlewares/Third_Party/FreeRTOS/Source/timers.c **** 		if( xTimerListsWereSwitched == pdFALSE )
 1130              		.loc 1 550 14 is_stmt 0 view .LVU293
 1131 000c 01A8     		add	r0, sp, #4
 1132 000e FFF7FEFF 		bl	prvSampleTimeNow
 1133              	.LVL101:
 1134 0012 0600     		movs	r6, r0
 1135              	.LVL102:
 551:Middlewares/Third_Party/FreeRTOS/Source/timers.c **** 		{
 1136              		.loc 1 551 3 is_stmt 1 view .LVU294
 551:Middlewares/Third_Party/FreeRTOS/Source/timers.c **** 		{
 1137              		.loc 1 551 31 is_stmt 0 view .LVU295
 1138 0014 019B     		ldr	r3, [sp, #4]
 551:Middlewares/Third_Party/FreeRTOS/Source/timers.c **** 		{
 1139              		.loc 1 551 5 view .LVU296
 1140 0016 002B     		cmp	r3, #0
 1141 0018 1FD1     		bne	.L73
 554:Middlewares/Third_Party/FreeRTOS/Source/timers.c **** 			{
 1142              		.loc 1 554 4 is_stmt 1 view .LVU297
 554:Middlewares/Third_Party/FreeRTOS/Source/timers.c **** 			{
 1143              		.loc 1 554 6 is_stmt 0 view .LVU298
 1144 001a 002C     		cmp	r4, #0
 1145 001c 08D1     		bne	.L74
 554:Middlewares/Third_Party/FreeRTOS/Source/timers.c **** 			{
 1146              		.loc 1 554 37 discriminator 1 view .LVU299
 1147 001e A842     		cmp	r0, r5
 1148 0020 0CD3     		bcc	.L75
ARM GAS  /var/folders/kr/g9ry2bg56g773797gdtkvvkw0000gn/T//cchcobXk.s 			page 42


 556:Middlewares/Third_Party/FreeRTOS/Source/timers.c **** 				prvProcessExpiredTimer( xNextExpireTime, xTimeNow );
 1149              		.loc 1 556 5 is_stmt 1 view .LVU300
 556:Middlewares/Third_Party/FreeRTOS/Source/timers.c **** 				prvProcessExpiredTimer( xNextExpireTime, xTimeNow );
 1150              		.loc 1 556 14 is_stmt 0 view .LVU301
 1151 0022 FFF7FEFF 		bl	xTaskResumeAll
 1152              	.LVL103:
 557:Middlewares/Third_Party/FreeRTOS/Source/timers.c **** 			}
 1153              		.loc 1 557 5 is_stmt 1 view .LVU302
 1154 0026 3100     		movs	r1, r6
 1155 0028 2800     		movs	r0, r5
 1156 002a FFF7FEFF 		bl	prvProcessExpiredTimer
 1157              	.LVL104:
 1158 002e 0FE0     		b	.L72
 1159              	.LVL105:
 1160              	.L74:
 571:Middlewares/Third_Party/FreeRTOS/Source/timers.c **** 				}
 1161              		.loc 1 571 6 view .LVU303
 571:Middlewares/Third_Party/FreeRTOS/Source/timers.c **** 				}
 1162              		.loc 1 571 22 is_stmt 0 view .LVU304
 1163 0030 0B4B     		ldr	r3, .L78
 1164 0032 1B68     		ldr	r3, [r3]
 1165 0034 1C68     		ldr	r4, [r3]
 1166              	.LVL106:
 571:Middlewares/Third_Party/FreeRTOS/Source/timers.c **** 				}
 1167              		.loc 1 571 22 view .LVU305
 1168 0036 6342     		rsbs	r3, r4, #0
 1169 0038 5C41     		adcs	r4, r4, r3
 1170 003a E4B2     		uxtb	r4, r4
 1171              	.LVL107:
 1172              	.L75:
 574:Middlewares/Third_Party/FreeRTOS/Source/timers.c **** 
 1173              		.loc 1 574 5 is_stmt 1 view .LVU306
 1174 003c A91B     		subs	r1, r5, r6
 1175 003e 094B     		ldr	r3, .L78+4
 1176 0040 1868     		ldr	r0, [r3]
 1177              	.LVL108:
 574:Middlewares/Third_Party/FreeRTOS/Source/timers.c **** 
 1178              		.loc 1 574 5 is_stmt 0 view .LVU307
 1179 0042 2200     		movs	r2, r4
 1180 0044 FFF7FEFF 		bl	vQueueWaitForMessageRestricted
 1181              	.LVL109:
 576:Middlewares/Third_Party/FreeRTOS/Source/timers.c **** 				{
 1182              		.loc 1 576 5 is_stmt 1 view .LVU308
 576:Middlewares/Third_Party/FreeRTOS/Source/timers.c **** 				{
 1183              		.loc 1 576 9 is_stmt 0 view .LVU309
 1184 0048 FFF7FEFF 		bl	xTaskResumeAll
 1185              	.LVL110:
 576:Middlewares/Third_Party/FreeRTOS/Source/timers.c **** 				{
 1186              		.loc 1 576 7 discriminator 1 view .LVU310
 1187 004c 0028     		cmp	r0, #0
 1188 004e 01D0     		beq	.L77
 1189              	.L72:
 595:Middlewares/Third_Party/FreeRTOS/Source/timers.c **** /*-----------------------------------------------------------*/
 1190              		.loc 1 595 1 view .LVU311
 1191 0050 02B0     		add	sp, sp, #8
 1192              		@ sp needed
 1193              	.LVL111:
ARM GAS  /var/folders/kr/g9ry2bg56g773797gdtkvvkw0000gn/T//cchcobXk.s 			page 43


 1194              	.LVL112:
 1195              	.LVL113:
 595:Middlewares/Third_Party/FreeRTOS/Source/timers.c **** /*-----------------------------------------------------------*/
 1196              		.loc 1 595 1 view .LVU312
 1197 0052 70BD     		pop	{r4, r5, r6, pc}
 1198              	.LVL114:
 1199              	.L77:
 582:Middlewares/Third_Party/FreeRTOS/Source/timers.c **** 				}
 1200              		.loc 1 582 6 is_stmt 1 view .LVU313
 1201 0054 FFF7FEFF 		bl	vPortYield
 1202              	.LVL115:
 1203 0058 FAE7     		b	.L72
 1204              	.LVL116:
 1205              	.L73:
 592:Middlewares/Third_Party/FreeRTOS/Source/timers.c **** 		}
 1206              		.loc 1 592 4 view .LVU314
 592:Middlewares/Third_Party/FreeRTOS/Source/timers.c **** 		}
 1207              		.loc 1 592 13 is_stmt 0 view .LVU315
 1208 005a FFF7FEFF 		bl	xTaskResumeAll
 1209              	.LVL117:
 595:Middlewares/Third_Party/FreeRTOS/Source/timers.c **** /*-----------------------------------------------------------*/
 1210              		.loc 1 595 1 view .LVU316
 1211 005e F7E7     		b	.L72
 1212              	.L79:
 1213              		.align	2
 1214              	.L78:
 1215 0060 00000000 		.word	pxOverflowTimerList
 1216 0064 00000000 		.word	xTimerQueue
 1217              		.cfi_endproc
 1218              	.LFE11:
 1220              		.section	.text.prvProcessReceivedCommands,"ax",%progbits
 1221              		.align	1
 1222              		.syntax unified
 1223              		.code	16
 1224              		.thumb_func
 1226              	prvProcessReceivedCommands:
 1227              	.LFB15:
 689:Middlewares/Third_Party/FreeRTOS/Source/timers.c **** DaemonTaskMessage_t xMessage;
 1228              		.loc 1 689 1 is_stmt 1 view -0
 1229              		.cfi_startproc
 1230              		@ args = 0, pretend = 0, frame = 24
 1231              		@ frame_needed = 0, uses_anonymous_args = 0
 1232 0000 10B5     		push	{r4, lr}
 1233              	.LCFI20:
 1234              		.cfi_def_cfa_offset 8
 1235              		.cfi_offset 4, -8
 1236              		.cfi_offset 14, -4
 1237 0002 88B0     		sub	sp, sp, #32
 1238              	.LCFI21:
 1239              		.cfi_def_cfa_offset 40
 690:Middlewares/Third_Party/FreeRTOS/Source/timers.c **** Timer_t *pxTimer;
 1240              		.loc 1 690 1 view .LVU318
 691:Middlewares/Third_Party/FreeRTOS/Source/timers.c **** BaseType_t xTimerListsWereSwitched, xResult;
 1241              		.loc 1 691 1 view .LVU319
 692:Middlewares/Third_Party/FreeRTOS/Source/timers.c **** TickType_t xTimeNow;
 1242              		.loc 1 692 1 view .LVU320
 693:Middlewares/Third_Party/FreeRTOS/Source/timers.c **** 
ARM GAS  /var/folders/kr/g9ry2bg56g773797gdtkvvkw0000gn/T//cchcobXk.s 			page 44


 1243              		.loc 1 693 1 view .LVU321
 695:Middlewares/Third_Party/FreeRTOS/Source/timers.c **** 	{
 1244              		.loc 1 695 2 view .LVU322
 695:Middlewares/Third_Party/FreeRTOS/Source/timers.c **** 	{
 1245              		.loc 1 695 7 is_stmt 0 view .LVU323
 1246 0004 02E0     		b	.L83
 1247              	.L82:
 714:Middlewares/Third_Party/FreeRTOS/Source/timers.c **** 			}
 1248              		.loc 1 714 29 is_stmt 1 view .LVU324
 721:Middlewares/Third_Party/FreeRTOS/Source/timers.c **** 		{
 1249              		.loc 1 721 3 view .LVU325
 721:Middlewares/Third_Party/FreeRTOS/Source/timers.c **** 		{
 1250              		.loc 1 721 15 is_stmt 0 view .LVU326
 1251 0006 049B     		ldr	r3, [sp, #16]
 721:Middlewares/Third_Party/FreeRTOS/Source/timers.c **** 		{
 1252              		.loc 1 721 5 view .LVU327
 1253 0008 002B     		cmp	r3, #0
 1254 000a 0FDA     		bge	.L94
 1255              	.L83:
 695:Middlewares/Third_Party/FreeRTOS/Source/timers.c **** 	{
 1256              		.loc 1 695 62 is_stmt 1 view .LVU328
 695:Middlewares/Third_Party/FreeRTOS/Source/timers.c **** 	{
 1257              		.loc 1 695 9 is_stmt 0 view .LVU329
 1258 000c 294B     		ldr	r3, .L97
 1259 000e 1868     		ldr	r0, [r3]
 1260 0010 0022     		movs	r2, #0
 1261 0012 04A9     		add	r1, sp, #16
 1262 0014 FFF7FEFF 		bl	xQueueReceive
 1263              	.LVL118:
 695:Middlewares/Third_Party/FreeRTOS/Source/timers.c **** 	{
 1264              		.loc 1 695 62 discriminator 1 view .LVU330
 1265 0018 0028     		cmp	r0, #0
 1266 001a 48D0     		beq	.L95
 701:Middlewares/Third_Party/FreeRTOS/Source/timers.c **** 			{
 1267              		.loc 1 701 4 is_stmt 1 view .LVU331
 701:Middlewares/Third_Party/FreeRTOS/Source/timers.c **** 			{
 1268              		.loc 1 701 16 is_stmt 0 view .LVU332
 1269 001c 049B     		ldr	r3, [sp, #16]
 701:Middlewares/Third_Party/FreeRTOS/Source/timers.c **** 			{
 1270              		.loc 1 701 6 view .LVU333
 1271 001e 002B     		cmp	r3, #0
 1272 0020 F1DA     		bge	.L82
 1273              	.LBB5:
 703:Middlewares/Third_Party/FreeRTOS/Source/timers.c **** 
 1274              		.loc 1 703 5 is_stmt 1 view .LVU334
 1275              	.LVL119:
 707:Middlewares/Third_Party/FreeRTOS/Source/timers.c **** 
 1276              		.loc 1 707 5 view .LVU335
 707:Middlewares/Third_Party/FreeRTOS/Source/timers.c **** 
 1277              		.loc 1 707 31 discriminator 2 view .LVU336
 710:Middlewares/Third_Party/FreeRTOS/Source/timers.c **** 			}
 1278              		.loc 1 710 5 view .LVU337
 710:Middlewares/Third_Party/FreeRTOS/Source/timers.c **** 			}
 1279              		.loc 1 710 15 is_stmt 0 view .LVU338
 1280 0022 059B     		ldr	r3, [sp, #20]
 710:Middlewares/Third_Party/FreeRTOS/Source/timers.c **** 			}
 1281              		.loc 1 710 47 view .LVU339
ARM GAS  /var/folders/kr/g9ry2bg56g773797gdtkvvkw0000gn/T//cchcobXk.s 			page 45


 1282 0024 0698     		ldr	r0, [sp, #24]
 710:Middlewares/Third_Party/FreeRTOS/Source/timers.c **** 			}
 1283              		.loc 1 710 73 view .LVU340
 1284 0026 0799     		ldr	r1, [sp, #28]
 710:Middlewares/Third_Party/FreeRTOS/Source/timers.c **** 			}
 1285              		.loc 1 710 5 view .LVU341
 1286 0028 9847     		blx	r3
 1287              	.LVL120:
 1288              	.LBE5:
 1289 002a ECE7     		b	.L82
 1290              	.LVL121:
 1291              	.L94:
 725:Middlewares/Third_Party/FreeRTOS/Source/timers.c **** 
 1292              		.loc 1 725 4 is_stmt 1 view .LVU342
 725:Middlewares/Third_Party/FreeRTOS/Source/timers.c **** 
 1293              		.loc 1 725 12 is_stmt 0 view .LVU343
 1294 002c 069C     		ldr	r4, [sp, #24]
 1295              	.LVL122:
 727:Middlewares/Third_Party/FreeRTOS/Source/timers.c **** 			{
 1296              		.loc 1 727 4 is_stmt 1 view .LVU344
 727:Middlewares/Third_Party/FreeRTOS/Source/timers.c **** 			{
 1297              		.loc 1 727 8 is_stmt 0 view .LVU345
 1298 002e 6369     		ldr	r3, [r4, #20]
 727:Middlewares/Third_Party/FreeRTOS/Source/timers.c **** 			{
 1299              		.loc 1 727 6 view .LVU346
 1300 0030 002B     		cmp	r3, #0
 1301 0032 02D0     		beq	.L84
 730:Middlewares/Third_Party/FreeRTOS/Source/timers.c **** 			}
 1302              		.loc 1 730 5 is_stmt 1 view .LVU347
 730:Middlewares/Third_Party/FreeRTOS/Source/timers.c **** 			}
 1303              		.loc 1 730 14 is_stmt 0 view .LVU348
 1304 0034 201D     		adds	r0, r4, #4
 1305 0036 FFF7FEFF 		bl	uxListRemove
 1306              	.LVL123:
 1307              	.L84:
 734:Middlewares/Third_Party/FreeRTOS/Source/timers.c **** 			}
 1308              		.loc 1 734 29 is_stmt 1 view .LVU349
 737:Middlewares/Third_Party/FreeRTOS/Source/timers.c **** 
 1309              		.loc 1 737 106 view .LVU350
 745:Middlewares/Third_Party/FreeRTOS/Source/timers.c **** 
 1310              		.loc 1 745 4 view .LVU351
 745:Middlewares/Third_Party/FreeRTOS/Source/timers.c **** 
 1311              		.loc 1 745 15 is_stmt 0 view .LVU352
 1312 003a 03A8     		add	r0, sp, #12
 1313 003c FFF7FEFF 		bl	prvSampleTimeNow
 1314              	.LVL124:
 1315 0040 0200     		movs	r2, r0
 1316              	.LVL125:
 747:Middlewares/Third_Party/FreeRTOS/Source/timers.c **** 			{
 1317              		.loc 1 747 4 is_stmt 1 view .LVU353
 747:Middlewares/Third_Party/FreeRTOS/Source/timers.c **** 			{
 1318              		.loc 1 747 20 is_stmt 0 view .LVU354
 1319 0042 0499     		ldr	r1, [sp, #16]
 747:Middlewares/Third_Party/FreeRTOS/Source/timers.c **** 			{
 1320              		.loc 1 747 4 view .LVU355
 1321 0044 0929     		cmp	r1, #9
 1322 0046 E1D8     		bhi	.L83
ARM GAS  /var/folders/kr/g9ry2bg56g773797gdtkvvkw0000gn/T//cchcobXk.s 			page 46


 1323 0048 8900     		lsls	r1, r1, #2
 1324 004a 1B4B     		ldr	r3, .L97+4
 1325 004c 5B58     		ldr	r3, [r3, r1]
 1326 004e 9F46     		mov	pc, r3
 1327              		.section	.rodata.prvProcessReceivedCommands,"a",%progbits
 1328              		.align	2
 1329              	.L87:
 1330 0000 50000000 		.word	.L88
 1331 0004 50000000 		.word	.L88
 1332 0008 50000000 		.word	.L88
 1333 000c 0C000000 		.word	.L83
 1334 0010 86000000 		.word	.L86
 1335 0014 9E000000 		.word	.L89
 1336 0018 50000000 		.word	.L88
 1337 001c 50000000 		.word	.L88
 1338 0020 0C000000 		.word	.L83
 1339 0024 86000000 		.word	.L86
 1340              		.section	.text.prvProcessReceivedCommands
 1341              	.L88:
 755:Middlewares/Third_Party/FreeRTOS/Source/timers.c **** 					{
 1342              		.loc 1 755 6 is_stmt 1 view .LVU356
 755:Middlewares/Third_Party/FreeRTOS/Source/timers.c **** 					{
 1343              		.loc 1 755 75 is_stmt 0 view .LVU357
 1344 0050 059B     		ldr	r3, [sp, #20]
 755:Middlewares/Third_Party/FreeRTOS/Source/timers.c **** 					{
 1345              		.loc 1 755 99 view .LVU358
 1346 0052 A169     		ldr	r1, [r4, #24]
 755:Middlewares/Third_Party/FreeRTOS/Source/timers.c **** 					{
 1347              		.loc 1 755 10 view .LVU359
 1348 0054 5918     		adds	r1, r3, r1
 1349 0056 2000     		movs	r0, r4
 1350              	.LVL126:
 755:Middlewares/Third_Party/FreeRTOS/Source/timers.c **** 					{
 1351              		.loc 1 755 10 view .LVU360
 1352 0058 FFF7FEFF 		bl	prvInsertTimerInActiveList
 1353              	.LVL127:
 755:Middlewares/Third_Party/FreeRTOS/Source/timers.c **** 					{
 1354              		.loc 1 755 8 discriminator 1 view .LVU361
 1355 005c 0028     		cmp	r0, #0
 1356 005e D5D0     		beq	.L83
 759:Middlewares/Third_Party/FreeRTOS/Source/timers.c **** 						traceTIMER_EXPIRED( pxTimer );
 1357              		.loc 1 759 7 is_stmt 1 view .LVU362
 759:Middlewares/Third_Party/FreeRTOS/Source/timers.c **** 						traceTIMER_EXPIRED( pxTimer );
 1358              		.loc 1 759 14 is_stmt 0 view .LVU363
 1359 0060 636A     		ldr	r3, [r4, #36]
 759:Middlewares/Third_Party/FreeRTOS/Source/timers.c **** 						traceTIMER_EXPIRED( pxTimer );
 1360              		.loc 1 759 7 view .LVU364
 1361 0062 2000     		movs	r0, r4
 1362 0064 9847     		blx	r3
 1363              	.LVL128:
 760:Middlewares/Third_Party/FreeRTOS/Source/timers.c **** 
 1364              		.loc 1 760 36 is_stmt 1 view .LVU365
 762:Middlewares/Third_Party/FreeRTOS/Source/timers.c **** 						{
 1365              		.loc 1 762 7 view .LVU366
 762:Middlewares/Third_Party/FreeRTOS/Source/timers.c **** 						{
 1366              		.loc 1 762 18 is_stmt 0 view .LVU367
 1367 0066 E369     		ldr	r3, [r4, #28]
ARM GAS  /var/folders/kr/g9ry2bg56g773797gdtkvvkw0000gn/T//cchcobXk.s 			page 47


 762:Middlewares/Third_Party/FreeRTOS/Source/timers.c **** 						{
 1368              		.loc 1 762 9 view .LVU368
 1369 0068 012B     		cmp	r3, #1
 1370 006a CFD1     		bne	.L83
 764:Middlewares/Third_Party/FreeRTOS/Source/timers.c **** 							configASSERT( xResult );
 1371              		.loc 1 764 8 is_stmt 1 view .LVU369
 764:Middlewares/Third_Party/FreeRTOS/Source/timers.c **** 							configASSERT( xResult );
 1372              		.loc 1 764 105 is_stmt 0 view .LVU370
 1373 006c 059A     		ldr	r2, [sp, #20]
 764:Middlewares/Third_Party/FreeRTOS/Source/timers.c **** 							configASSERT( xResult );
 1374              		.loc 1 764 129 view .LVU371
 1375 006e A369     		ldr	r3, [r4, #24]
 764:Middlewares/Third_Party/FreeRTOS/Source/timers.c **** 							configASSERT( xResult );
 1376              		.loc 1 764 18 view .LVU372
 1377 0070 D218     		adds	r2, r2, r3
 1378 0072 0023     		movs	r3, #0
 1379 0074 0093     		str	r3, [sp]
 1380 0076 0021     		movs	r1, #0
 1381 0078 2000     		movs	r0, r4
 1382 007a FFF7FEFF 		bl	xTimerGenericCommand
 1383              	.LVL129:
 765:Middlewares/Third_Party/FreeRTOS/Source/timers.c **** 							( void ) xResult;
 1384              		.loc 1 765 8 is_stmt 1 view .LVU373
 1385 007e 0028     		cmp	r0, #0
 1386 0080 C4D1     		bne	.L83
 765:Middlewares/Third_Party/FreeRTOS/Source/timers.c **** 							( void ) xResult;
 1387              		.loc 1 765 8 discriminator 1 view .LVU374
 1388              		.syntax divided
 1389              	@ 765 "Middlewares/Third_Party/FreeRTOS/Source/timers.c" 1
 1390 0082 72B6     		 cpsid i 
 1391              	@ 0 "" 2
 1392              		.thumb
 1393              		.syntax unified
 1394              	.L90:
 765:Middlewares/Third_Party/FreeRTOS/Source/timers.c **** 							( void ) xResult;
 1395              		.loc 1 765 8 discriminator 3 view .LVU375
 765:Middlewares/Third_Party/FreeRTOS/Source/timers.c **** 							( void ) xResult;
 1396              		.loc 1 765 8 discriminator 3 view .LVU376
 1397 0084 FEE7     		b	.L90
 1398              	.LVL130:
 1399              	.L86:
 787:Middlewares/Third_Party/FreeRTOS/Source/timers.c **** 					configASSERT( ( pxTimer->xTimerPeriodInTicks > 0 ) );
 1400              		.loc 1 787 6 view .LVU377
 787:Middlewares/Third_Party/FreeRTOS/Source/timers.c **** 					configASSERT( ( pxTimer->xTimerPeriodInTicks > 0 ) );
 1401              		.loc 1 787 64 is_stmt 0 view .LVU378
 1402 0086 0599     		ldr	r1, [sp, #20]
 787:Middlewares/Third_Party/FreeRTOS/Source/timers.c **** 					configASSERT( ( pxTimer->xTimerPeriodInTicks > 0 ) );
 1403              		.loc 1 787 35 view .LVU379
 1404 0088 A161     		str	r1, [r4, #24]
 788:Middlewares/Third_Party/FreeRTOS/Source/timers.c **** 
 1405              		.loc 1 788 6 is_stmt 1 view .LVU380
 1406 008a 0029     		cmp	r1, #0
 1407 008c 05D0     		beq	.L96
 788:Middlewares/Third_Party/FreeRTOS/Source/timers.c **** 
 1408              		.loc 1 788 58 discriminator 2 view .LVU381
 796:Middlewares/Third_Party/FreeRTOS/Source/timers.c **** 					break;
 1409              		.loc 1 796 6 view .LVU382
ARM GAS  /var/folders/kr/g9ry2bg56g773797gdtkvvkw0000gn/T//cchcobXk.s 			page 48


 796:Middlewares/Third_Party/FreeRTOS/Source/timers.c **** 					break;
 1410              		.loc 1 796 15 is_stmt 0 view .LVU383
 1411 008e 0918     		adds	r1, r1, r0
 1412 0090 0300     		movs	r3, r0
 1413 0092 2000     		movs	r0, r4
 1414              	.LVL131:
 796:Middlewares/Third_Party/FreeRTOS/Source/timers.c **** 					break;
 1415              		.loc 1 796 15 view .LVU384
 1416 0094 FFF7FEFF 		bl	prvInsertTimerInActiveList
 1417              	.LVL132:
 797:Middlewares/Third_Party/FreeRTOS/Source/timers.c **** 
 1418              		.loc 1 797 6 is_stmt 1 view .LVU385
 1419 0098 B8E7     		b	.L83
 1420              	.LVL133:
 1421              	.L96:
 788:Middlewares/Third_Party/FreeRTOS/Source/timers.c **** 
 1422              		.loc 1 788 6 discriminator 1 view .LVU386
 1423              		.syntax divided
 1424              	@ 788 "Middlewares/Third_Party/FreeRTOS/Source/timers.c" 1
 1425 009a 72B6     		 cpsid i 
 1426              	@ 0 "" 2
 1427              		.thumb
 1428              		.syntax unified
 1429              	.L92:
 788:Middlewares/Third_Party/FreeRTOS/Source/timers.c **** 
 1430              		.loc 1 788 6 discriminator 3 view .LVU387
 788:Middlewares/Third_Party/FreeRTOS/Source/timers.c **** 
 1431              		.loc 1 788 6 discriminator 3 view .LVU388
 1432 009c FEE7     		b	.L92
 1433              	.L89:
 814:Middlewares/Third_Party/FreeRTOS/Source/timers.c **** 						{
 1434              		.loc 1 814 7 view .LVU389
 814:Middlewares/Third_Party/FreeRTOS/Source/timers.c **** 						{
 1435              		.loc 1 814 18 is_stmt 0 view .LVU390
 1436 009e 2C23     		movs	r3, #44
 1437 00a0 E35C     		ldrb	r3, [r4, r3]
 814:Middlewares/Third_Party/FreeRTOS/Source/timers.c **** 						{
 1438              		.loc 1 814 9 view .LVU391
 1439 00a2 002B     		cmp	r3, #0
 1440 00a4 B2D1     		bne	.L83
 816:Middlewares/Third_Party/FreeRTOS/Source/timers.c **** 						}
 1441              		.loc 1 816 8 is_stmt 1 view .LVU392
 1442 00a6 2000     		movs	r0, r4
 1443              	.LVL134:
 816:Middlewares/Third_Party/FreeRTOS/Source/timers.c **** 						}
 1444              		.loc 1 816 8 is_stmt 0 view .LVU393
 1445 00a8 FFF7FEFF 		bl	vPortFree
 1446              	.LVL135:
 816:Middlewares/Third_Party/FreeRTOS/Source/timers.c **** 						}
 1447              		.loc 1 816 8 view .LVU394
 1448 00ac AEE7     		b	.L83
 1449              	.LVL136:
 1450              	.L95:
 832:Middlewares/Third_Party/FreeRTOS/Source/timers.c **** /*-----------------------------------------------------------*/
 1451              		.loc 1 832 1 view .LVU395
 1452 00ae 08B0     		add	sp, sp, #32
 1453              		@ sp needed
ARM GAS  /var/folders/kr/g9ry2bg56g773797gdtkvvkw0000gn/T//cchcobXk.s 			page 49


 1454 00b0 10BD     		pop	{r4, pc}
 1455              	.L98:
 1456 00b2 C046     		.align	2
 1457              	.L97:
 1458 00b4 00000000 		.word	xTimerQueue
 1459 00b8 00000000 		.word	.L87
 1460              		.cfi_endproc
 1461              	.LFE15:
 1463              		.section	.text.prvTimerTask,"ax",%progbits
 1464              		.align	1
 1465              		.syntax unified
 1466              		.code	16
 1467              		.thumb_func
 1469              	prvTimerTask:
 1470              	.LFB10:
 503:Middlewares/Third_Party/FreeRTOS/Source/timers.c **** TickType_t xNextExpireTime;
 1471              		.loc 1 503 1 is_stmt 1 view -0
 1472              		.cfi_startproc
 1473              		@ args = 0, pretend = 0, frame = 8
 1474              		@ frame_needed = 0, uses_anonymous_args = 0
 1475              	.LVL137:
 503:Middlewares/Third_Party/FreeRTOS/Source/timers.c **** TickType_t xNextExpireTime;
 1476              		.loc 1 503 1 is_stmt 0 view .LVU397
 1477 0000 00B5     		push	{lr}
 1478              	.LCFI22:
 1479              		.cfi_def_cfa_offset 4
 1480              		.cfi_offset 14, -4
 1481 0002 83B0     		sub	sp, sp, #12
 1482              	.LCFI23:
 1483              		.cfi_def_cfa_offset 16
 1484              	.LVL138:
 1485              	.L100:
 504:Middlewares/Third_Party/FreeRTOS/Source/timers.c **** BaseType_t xListWasEmpty;
 1486              		.loc 1 504 1 is_stmt 1 view .LVU398
 505:Middlewares/Third_Party/FreeRTOS/Source/timers.c **** 
 1487              		.loc 1 505 1 view .LVU399
 508:Middlewares/Third_Party/FreeRTOS/Source/timers.c **** 
 1488              		.loc 1 508 2 view .LVU400
 522:Middlewares/Third_Party/FreeRTOS/Source/timers.c **** 	{
 1489              		.loc 1 522 2 view .LVU401
 526:Middlewares/Third_Party/FreeRTOS/Source/timers.c **** 
 1490              		.loc 1 526 3 view .LVU402
 526:Middlewares/Third_Party/FreeRTOS/Source/timers.c **** 
 1491              		.loc 1 526 21 is_stmt 0 view .LVU403
 1492 0004 01A8     		add	r0, sp, #4
 1493 0006 FFF7FEFF 		bl	prvGetNextExpireTime
 1494              	.LVL139:
 530:Middlewares/Third_Party/FreeRTOS/Source/timers.c **** 
 1495              		.loc 1 530 3 is_stmt 1 view .LVU404
 1496 000a 0199     		ldr	r1, [sp, #4]
 1497 000c FFF7FEFF 		bl	prvProcessTimerOrBlockTask
 1498              	.LVL140:
 533:Middlewares/Third_Party/FreeRTOS/Source/timers.c **** 	}
 1499              		.loc 1 533 3 discriminator 1 view .LVU405
 1500 0010 FFF7FEFF 		bl	prvProcessReceivedCommands
 1501              	.LVL141:
 522:Middlewares/Third_Party/FreeRTOS/Source/timers.c **** 	{
ARM GAS  /var/folders/kr/g9ry2bg56g773797gdtkvvkw0000gn/T//cchcobXk.s 			page 50


 1502              		.loc 1 522 2 view .LVU406
 1503 0014 F6E7     		b	.L100
 1504              		.cfi_endproc
 1505              	.LFE10:
 1507              		.section	.text.xTimerGetTimerDaemonTaskHandle,"ax",%progbits
 1508              		.align	1
 1509              		.global	xTimerGetTimerDaemonTaskHandle
 1510              		.syntax unified
 1511              		.code	16
 1512              		.thumb_func
 1514              	xTimerGetTimerDaemonTaskHandle:
 1515              	.LFB5:
 425:Middlewares/Third_Party/FreeRTOS/Source/timers.c **** 	/* If xTimerGetTimerDaemonTaskHandle() is called before the scheduler has been
 1516              		.loc 1 425 1 view -0
 1517              		.cfi_startproc
 1518              		@ args = 0, pretend = 0, frame = 0
 1519              		@ frame_needed = 0, uses_anonymous_args = 0
 1520              		@ link register save eliminated.
 428:Middlewares/Third_Party/FreeRTOS/Source/timers.c **** 	return xTimerTaskHandle;
 1521              		.loc 1 428 2 view .LVU408
 1522 0000 034B     		ldr	r3, .L105
 1523 0002 1868     		ldr	r0, [r3]
 1524 0004 0028     		cmp	r0, #0
 1525 0006 00D0     		beq	.L104
 430:Middlewares/Third_Party/FreeRTOS/Source/timers.c **** /*-----------------------------------------------------------*/
 1526              		.loc 1 430 1 is_stmt 0 view .LVU409
 1527              		@ sp needed
 1528 0008 7047     		bx	lr
 1529              	.L104:
 428:Middlewares/Third_Party/FreeRTOS/Source/timers.c **** 	return xTimerTaskHandle;
 1530              		.loc 1 428 2 is_stmt 1 discriminator 1 view .LVU410
 1531              		.syntax divided
 1532              	@ 428 "Middlewares/Third_Party/FreeRTOS/Source/timers.c" 1
 1533 000a 72B6     		 cpsid i 
 1534              	@ 0 "" 2
 1535              		.thumb
 1536              		.syntax unified
 1537              	.L103:
 428:Middlewares/Third_Party/FreeRTOS/Source/timers.c **** 	return xTimerTaskHandle;
 1538              		.loc 1 428 2 discriminator 3 view .LVU411
 428:Middlewares/Third_Party/FreeRTOS/Source/timers.c **** 	return xTimerTaskHandle;
 1539              		.loc 1 428 2 discriminator 3 view .LVU412
 1540 000c FEE7     		b	.L103
 1541              	.L106:
 1542 000e C046     		.align	2
 1543              	.L105:
 1544 0010 00000000 		.word	xTimerTaskHandle
 1545              		.cfi_endproc
 1546              	.LFE5:
 1548              		.section	.text.xTimerGetPeriod,"ax",%progbits
 1549              		.align	1
 1550              		.global	xTimerGetPeriod
 1551              		.syntax unified
 1552              		.code	16
 1553              		.thumb_func
 1555              	xTimerGetPeriod:
 1556              	.LVL142:
ARM GAS  /var/folders/kr/g9ry2bg56g773797gdtkvvkw0000gn/T//cchcobXk.s 			page 51


 1557              	.LFB6:
 434:Middlewares/Third_Party/FreeRTOS/Source/timers.c **** Timer_t *pxTimer = ( Timer_t * ) xTimer;
 1558              		.loc 1 434 1 view -0
 1559              		.cfi_startproc
 1560              		@ args = 0, pretend = 0, frame = 0
 1561              		@ frame_needed = 0, uses_anonymous_args = 0
 1562              		@ link register save eliminated.
 435:Middlewares/Third_Party/FreeRTOS/Source/timers.c **** 
 1563              		.loc 1 435 1 view .LVU414
 437:Middlewares/Third_Party/FreeRTOS/Source/timers.c **** 	return pxTimer->xTimerPeriodInTicks;
 1564              		.loc 1 437 2 view .LVU415
 1565 0000 0028     		cmp	r0, #0
 1566 0002 01D0     		beq	.L110
 437:Middlewares/Third_Party/FreeRTOS/Source/timers.c **** 	return pxTimer->xTimerPeriodInTicks;
 1567              		.loc 1 437 24 discriminator 2 view .LVU416
 438:Middlewares/Third_Party/FreeRTOS/Source/timers.c **** }
 1568              		.loc 1 438 2 view .LVU417
 438:Middlewares/Third_Party/FreeRTOS/Source/timers.c **** }
 1569              		.loc 1 438 16 is_stmt 0 discriminator 1 view .LVU418
 1570 0004 8069     		ldr	r0, [r0, #24]
 1571              	.LVL143:
 439:Middlewares/Third_Party/FreeRTOS/Source/timers.c **** /*-----------------------------------------------------------*/
 1572              		.loc 1 439 1 view .LVU419
 1573              		@ sp needed
 1574 0006 7047     		bx	lr
 1575              	.LVL144:
 1576              	.L110:
 437:Middlewares/Third_Party/FreeRTOS/Source/timers.c **** 	return pxTimer->xTimerPeriodInTicks;
 1577              		.loc 1 437 2 is_stmt 1 discriminator 1 view .LVU420
 1578              		.syntax divided
 1579              	@ 437 "Middlewares/Third_Party/FreeRTOS/Source/timers.c" 1
 1580 0008 72B6     		 cpsid i 
 1581              	@ 0 "" 2
 1582              		.thumb
 1583              		.syntax unified
 1584              	.L109:
 437:Middlewares/Third_Party/FreeRTOS/Source/timers.c **** 	return pxTimer->xTimerPeriodInTicks;
 1585              		.loc 1 437 2 discriminator 3 view .LVU421
 437:Middlewares/Third_Party/FreeRTOS/Source/timers.c **** 	return pxTimer->xTimerPeriodInTicks;
 1586              		.loc 1 437 2 discriminator 3 view .LVU422
 1587 000a FEE7     		b	.L109
 1588              		.cfi_endproc
 1589              	.LFE6:
 1591              		.section	.text.xTimerGetExpiryTime,"ax",%progbits
 1592              		.align	1
 1593              		.global	xTimerGetExpiryTime
 1594              		.syntax unified
 1595              		.code	16
 1596              		.thumb_func
 1598              	xTimerGetExpiryTime:
 1599              	.LVL145:
 1600              	.LFB7:
 443:Middlewares/Third_Party/FreeRTOS/Source/timers.c **** Timer_t * pxTimer = ( Timer_t * ) xTimer;
 1601              		.loc 1 443 1 view -0
 1602              		.cfi_startproc
 1603              		@ args = 0, pretend = 0, frame = 0
 1604              		@ frame_needed = 0, uses_anonymous_args = 0
ARM GAS  /var/folders/kr/g9ry2bg56g773797gdtkvvkw0000gn/T//cchcobXk.s 			page 52


 1605              		@ link register save eliminated.
 444:Middlewares/Third_Party/FreeRTOS/Source/timers.c **** TickType_t xReturn;
 1606              		.loc 1 444 1 view .LVU424
 445:Middlewares/Third_Party/FreeRTOS/Source/timers.c **** 
 1607              		.loc 1 445 1 view .LVU425
 447:Middlewares/Third_Party/FreeRTOS/Source/timers.c **** 	xReturn = listGET_LIST_ITEM_VALUE( &( pxTimer->xTimerListItem ) );
 1608              		.loc 1 447 2 view .LVU426
 1609 0000 0028     		cmp	r0, #0
 1610 0002 01D0     		beq	.L114
 447:Middlewares/Third_Party/FreeRTOS/Source/timers.c **** 	xReturn = listGET_LIST_ITEM_VALUE( &( pxTimer->xTimerListItem ) );
 1611              		.loc 1 447 24 discriminator 2 view .LVU427
 448:Middlewares/Third_Party/FreeRTOS/Source/timers.c **** 	return xReturn;
 1612              		.loc 1 448 2 view .LVU428
 448:Middlewares/Third_Party/FreeRTOS/Source/timers.c **** 	return xReturn;
 1613              		.loc 1 448 10 is_stmt 0 view .LVU429
 1614 0004 4068     		ldr	r0, [r0, #4]
 1615              	.LVL146:
 449:Middlewares/Third_Party/FreeRTOS/Source/timers.c **** }
 1616              		.loc 1 449 2 is_stmt 1 view .LVU430
 450:Middlewares/Third_Party/FreeRTOS/Source/timers.c **** /*-----------------------------------------------------------*/
 1617              		.loc 1 450 1 is_stmt 0 view .LVU431
 1618              		@ sp needed
 1619 0006 7047     		bx	lr
 1620              	.LVL147:
 1621              	.L114:
 447:Middlewares/Third_Party/FreeRTOS/Source/timers.c **** 	xReturn = listGET_LIST_ITEM_VALUE( &( pxTimer->xTimerListItem ) );
 1622              		.loc 1 447 2 is_stmt 1 discriminator 1 view .LVU432
 1623              		.syntax divided
 1624              	@ 447 "Middlewares/Third_Party/FreeRTOS/Source/timers.c" 1
 1625 0008 72B6     		 cpsid i 
 1626              	@ 0 "" 2
 1627              		.thumb
 1628              		.syntax unified
 1629              	.L113:
 447:Middlewares/Third_Party/FreeRTOS/Source/timers.c **** 	xReturn = listGET_LIST_ITEM_VALUE( &( pxTimer->xTimerListItem ) );
 1630              		.loc 1 447 2 discriminator 3 view .LVU433
 447:Middlewares/Third_Party/FreeRTOS/Source/timers.c **** 	xReturn = listGET_LIST_ITEM_VALUE( &( pxTimer->xTimerListItem ) );
 1631              		.loc 1 447 2 discriminator 3 view .LVU434
 1632 000a FEE7     		b	.L113
 1633              		.cfi_endproc
 1634              	.LFE7:
 1636              		.section	.text.pcTimerGetName,"ax",%progbits
 1637              		.align	1
 1638              		.global	pcTimerGetName
 1639              		.syntax unified
 1640              		.code	16
 1641              		.thumb_func
 1643              	pcTimerGetName:
 1644              	.LVL148:
 1645              	.LFB8:
 454:Middlewares/Third_Party/FreeRTOS/Source/timers.c **** Timer_t *pxTimer = ( Timer_t * ) xTimer;
 1646              		.loc 1 454 1 view -0
 1647              		.cfi_startproc
 1648              		@ args = 0, pretend = 0, frame = 0
 1649              		@ frame_needed = 0, uses_anonymous_args = 0
 1650              		@ link register save eliminated.
 455:Middlewares/Third_Party/FreeRTOS/Source/timers.c **** 
ARM GAS  /var/folders/kr/g9ry2bg56g773797gdtkvvkw0000gn/T//cchcobXk.s 			page 53


 1651              		.loc 1 455 1 view .LVU436
 457:Middlewares/Third_Party/FreeRTOS/Source/timers.c **** 	return pxTimer->pcTimerName;
 1652              		.loc 1 457 2 view .LVU437
 1653 0000 0028     		cmp	r0, #0
 1654 0002 01D0     		beq	.L118
 457:Middlewares/Third_Party/FreeRTOS/Source/timers.c **** 	return pxTimer->pcTimerName;
 1655              		.loc 1 457 24 discriminator 2 view .LVU438
 458:Middlewares/Third_Party/FreeRTOS/Source/timers.c **** }
 1656              		.loc 1 458 2 view .LVU439
 458:Middlewares/Third_Party/FreeRTOS/Source/timers.c **** }
 1657              		.loc 1 458 16 is_stmt 0 discriminator 1 view .LVU440
 1658 0004 0068     		ldr	r0, [r0]
 1659              	.LVL149:
 459:Middlewares/Third_Party/FreeRTOS/Source/timers.c **** /*-----------------------------------------------------------*/
 1660              		.loc 1 459 1 view .LVU441
 1661              		@ sp needed
 1662 0006 7047     		bx	lr
 1663              	.LVL150:
 1664              	.L118:
 457:Middlewares/Third_Party/FreeRTOS/Source/timers.c **** 	return pxTimer->pcTimerName;
 1665              		.loc 1 457 2 is_stmt 1 discriminator 1 view .LVU442
 1666              		.syntax divided
 1667              	@ 457 "Middlewares/Third_Party/FreeRTOS/Source/timers.c" 1
 1668 0008 72B6     		 cpsid i 
 1669              	@ 0 "" 2
 1670              		.thumb
 1671              		.syntax unified
 1672              	.L117:
 457:Middlewares/Third_Party/FreeRTOS/Source/timers.c **** 	return pxTimer->pcTimerName;
 1673              		.loc 1 457 2 discriminator 3 view .LVU443
 457:Middlewares/Third_Party/FreeRTOS/Source/timers.c **** 	return pxTimer->pcTimerName;
 1674              		.loc 1 457 2 discriminator 3 view .LVU444
 1675 000a FEE7     		b	.L117
 1676              		.cfi_endproc
 1677              	.LFE8:
 1679              		.section	.text.xTimerIsTimerActive,"ax",%progbits
 1680              		.align	1
 1681              		.global	xTimerIsTimerActive
 1682              		.syntax unified
 1683              		.code	16
 1684              		.thumb_func
 1686              	xTimerIsTimerActive:
 1687              	.LVL151:
 1688              	.LFB18:
 943:Middlewares/Third_Party/FreeRTOS/Source/timers.c **** /*-----------------------------------------------------------*/
 944:Middlewares/Third_Party/FreeRTOS/Source/timers.c **** 
 945:Middlewares/Third_Party/FreeRTOS/Source/timers.c **** BaseType_t xTimerIsTimerActive( TimerHandle_t xTimer )
 946:Middlewares/Third_Party/FreeRTOS/Source/timers.c **** {
 1689              		.loc 1 946 1 view -0
 1690              		.cfi_startproc
 1691              		@ args = 0, pretend = 0, frame = 0
 1692              		@ frame_needed = 0, uses_anonymous_args = 0
 1693              		.loc 1 946 1 is_stmt 0 view .LVU446
 1694 0000 10B5     		push	{r4, lr}
 1695              	.LCFI24:
 1696              		.cfi_def_cfa_offset 8
 1697              		.cfi_offset 4, -8
ARM GAS  /var/folders/kr/g9ry2bg56g773797gdtkvvkw0000gn/T//cchcobXk.s 			page 54


 1698              		.cfi_offset 14, -4
 1699 0002 041E     		subs	r4, r0, #0
 947:Middlewares/Third_Party/FreeRTOS/Source/timers.c **** BaseType_t xTimerIsInActiveList;
 1700              		.loc 1 947 1 is_stmt 1 view .LVU447
 948:Middlewares/Third_Party/FreeRTOS/Source/timers.c **** Timer_t *pxTimer = ( Timer_t * ) xTimer;
 1701              		.loc 1 948 1 view .LVU448
 1702              	.LVL152:
 949:Middlewares/Third_Party/FreeRTOS/Source/timers.c **** 
 950:Middlewares/Third_Party/FreeRTOS/Source/timers.c **** 	configASSERT( xTimer );
 1703              		.loc 1 950 2 view .LVU449
 1704 0004 09D0     		beq	.L122
 1705              		.loc 1 950 24 discriminator 2 view .LVU450
 951:Middlewares/Third_Party/FreeRTOS/Source/timers.c **** 
 952:Middlewares/Third_Party/FreeRTOS/Source/timers.c **** 	/* Is the timer in the list of active timers? */
 953:Middlewares/Third_Party/FreeRTOS/Source/timers.c **** 	taskENTER_CRITICAL();
 1706              		.loc 1 953 2 view .LVU451
 1707 0006 FFF7FEFF 		bl	vPortEnterCritical
 1708              	.LVL153:
 954:Middlewares/Third_Party/FreeRTOS/Source/timers.c **** 	{
 955:Middlewares/Third_Party/FreeRTOS/Source/timers.c **** 		/* Checking to see if it is in the NULL list in effect checks to see if
 956:Middlewares/Third_Party/FreeRTOS/Source/timers.c **** 		it is referenced from either the current or the overflow timer lists in
 957:Middlewares/Third_Party/FreeRTOS/Source/timers.c **** 		one go, but the logic has to be reversed, hence the '!'. */
 958:Middlewares/Third_Party/FreeRTOS/Source/timers.c **** 		xTimerIsInActiveList = ( BaseType_t ) !( listIS_CONTAINED_WITHIN( NULL, &( pxTimer->xTimerListIte
 1709              		.loc 1 958 3 view .LVU452
 1710              		.loc 1 958 44 is_stmt 0 view .LVU453
 1711 000a 6469     		ldr	r4, [r4, #20]
 1712              	.LVL154:
 1713              		.loc 1 958 26 view .LVU454
 1714 000c 631E     		subs	r3, r4, #1
 1715 000e 9C41     		sbcs	r4, r4, r3
 1716 0010 E4B2     		uxtb	r4, r4
 1717              	.LVL155:
 959:Middlewares/Third_Party/FreeRTOS/Source/timers.c **** 	}
 960:Middlewares/Third_Party/FreeRTOS/Source/timers.c **** 	taskEXIT_CRITICAL();
 1718              		.loc 1 960 2 is_stmt 1 view .LVU455
 1719 0012 FFF7FEFF 		bl	vPortExitCritical
 1720              	.LVL156:
 961:Middlewares/Third_Party/FreeRTOS/Source/timers.c **** 
 962:Middlewares/Third_Party/FreeRTOS/Source/timers.c **** 	return xTimerIsInActiveList;
 1721              		.loc 1 962 2 view .LVU456
 963:Middlewares/Third_Party/FreeRTOS/Source/timers.c **** } /*lint !e818 Can't be pointer to const due to the typedef. */
 1722              		.loc 1 963 1 is_stmt 0 view .LVU457
 1723 0016 2000     		movs	r0, r4
 1724              		@ sp needed
 1725              	.LVL157:
 1726              		.loc 1 963 1 view .LVU458
 1727 0018 10BD     		pop	{r4, pc}
 1728              	.LVL158:
 1729              	.L122:
 950:Middlewares/Third_Party/FreeRTOS/Source/timers.c **** 
 1730              		.loc 1 950 2 is_stmt 1 discriminator 1 view .LVU459
 1731              		.syntax divided
 1732              	@ 950 "Middlewares/Third_Party/FreeRTOS/Source/timers.c" 1
 1733 001a 72B6     		 cpsid i 
 1734              	@ 0 "" 2
 1735              		.thumb
 1736              		.syntax unified
ARM GAS  /var/folders/kr/g9ry2bg56g773797gdtkvvkw0000gn/T//cchcobXk.s 			page 55


 1737              	.L121:
 950:Middlewares/Third_Party/FreeRTOS/Source/timers.c **** 
 1738              		.loc 1 950 2 discriminator 3 view .LVU460
 950:Middlewares/Third_Party/FreeRTOS/Source/timers.c **** 
 1739              		.loc 1 950 2 discriminator 3 view .LVU461
 1740 001c FEE7     		b	.L121
 1741              		.cfi_endproc
 1742              	.LFE18:
 1744              		.section	.text.pvTimerGetTimerID,"ax",%progbits
 1745              		.align	1
 1746              		.global	pvTimerGetTimerID
 1747              		.syntax unified
 1748              		.code	16
 1749              		.thumb_func
 1751              	pvTimerGetTimerID:
 1752              	.LVL159:
 1753              	.LFB19:
 964:Middlewares/Third_Party/FreeRTOS/Source/timers.c **** /*-----------------------------------------------------------*/
 965:Middlewares/Third_Party/FreeRTOS/Source/timers.c **** 
 966:Middlewares/Third_Party/FreeRTOS/Source/timers.c **** void *pvTimerGetTimerID( const TimerHandle_t xTimer )
 967:Middlewares/Third_Party/FreeRTOS/Source/timers.c **** {
 1754              		.loc 1 967 1 view -0
 1755              		.cfi_startproc
 1756              		@ args = 0, pretend = 0, frame = 0
 1757              		@ frame_needed = 0, uses_anonymous_args = 0
 1758              		.loc 1 967 1 is_stmt 0 view .LVU463
 1759 0000 10B5     		push	{r4, lr}
 1760              	.LCFI25:
 1761              		.cfi_def_cfa_offset 8
 1762              		.cfi_offset 4, -8
 1763              		.cfi_offset 14, -4
 1764 0002 041E     		subs	r4, r0, #0
 968:Middlewares/Third_Party/FreeRTOS/Source/timers.c **** Timer_t * const pxTimer = ( Timer_t * ) xTimer;
 1765              		.loc 1 968 1 is_stmt 1 view .LVU464
 1766              	.LVL160:
 969:Middlewares/Third_Party/FreeRTOS/Source/timers.c **** void *pvReturn;
 1767              		.loc 1 969 1 view .LVU465
 970:Middlewares/Third_Party/FreeRTOS/Source/timers.c **** 
 971:Middlewares/Third_Party/FreeRTOS/Source/timers.c **** 	configASSERT( xTimer );
 1768              		.loc 1 971 2 view .LVU466
 1769 0004 06D0     		beq	.L126
 1770              		.loc 1 971 24 discriminator 2 view .LVU467
 972:Middlewares/Third_Party/FreeRTOS/Source/timers.c **** 
 973:Middlewares/Third_Party/FreeRTOS/Source/timers.c **** 	taskENTER_CRITICAL();
 1771              		.loc 1 973 2 view .LVU468
 1772 0006 FFF7FEFF 		bl	vPortEnterCritical
 1773              	.LVL161:
 974:Middlewares/Third_Party/FreeRTOS/Source/timers.c **** 	{
 975:Middlewares/Third_Party/FreeRTOS/Source/timers.c **** 		pvReturn = pxTimer->pvTimerID;
 1774              		.loc 1 975 3 view .LVU469
 1775              		.loc 1 975 12 is_stmt 0 view .LVU470
 1776 000a 246A     		ldr	r4, [r4, #32]
 1777              	.LVL162:
 976:Middlewares/Third_Party/FreeRTOS/Source/timers.c **** 	}
 977:Middlewares/Third_Party/FreeRTOS/Source/timers.c **** 	taskEXIT_CRITICAL();
 1778              		.loc 1 977 2 is_stmt 1 view .LVU471
 1779 000c FFF7FEFF 		bl	vPortExitCritical
ARM GAS  /var/folders/kr/g9ry2bg56g773797gdtkvvkw0000gn/T//cchcobXk.s 			page 56


 1780              	.LVL163:
 978:Middlewares/Third_Party/FreeRTOS/Source/timers.c **** 
 979:Middlewares/Third_Party/FreeRTOS/Source/timers.c **** 	return pvReturn;
 1781              		.loc 1 979 2 view .LVU472
 980:Middlewares/Third_Party/FreeRTOS/Source/timers.c **** }
 1782              		.loc 1 980 1 is_stmt 0 view .LVU473
 1783 0010 2000     		movs	r0, r4
 1784              		@ sp needed
 1785              	.LVL164:
 1786              		.loc 1 980 1 view .LVU474
 1787 0012 10BD     		pop	{r4, pc}
 1788              	.LVL165:
 1789              	.L126:
 971:Middlewares/Third_Party/FreeRTOS/Source/timers.c **** 
 1790              		.loc 1 971 2 is_stmt 1 discriminator 1 view .LVU475
 1791              		.syntax divided
 1792              	@ 971 "Middlewares/Third_Party/FreeRTOS/Source/timers.c" 1
 1793 0014 72B6     		 cpsid i 
 1794              	@ 0 "" 2
 1795              		.thumb
 1796              		.syntax unified
 1797              	.L125:
 971:Middlewares/Third_Party/FreeRTOS/Source/timers.c **** 
 1798              		.loc 1 971 2 discriminator 3 view .LVU476
 971:Middlewares/Third_Party/FreeRTOS/Source/timers.c **** 
 1799              		.loc 1 971 2 discriminator 3 view .LVU477
 1800 0016 FEE7     		b	.L125
 1801              		.cfi_endproc
 1802              	.LFE19:
 1804              		.section	.text.vTimerSetTimerID,"ax",%progbits
 1805              		.align	1
 1806              		.global	vTimerSetTimerID
 1807              		.syntax unified
 1808              		.code	16
 1809              		.thumb_func
 1811              	vTimerSetTimerID:
 1812              	.LVL166:
 1813              	.LFB20:
 981:Middlewares/Third_Party/FreeRTOS/Source/timers.c **** /*-----------------------------------------------------------*/
 982:Middlewares/Third_Party/FreeRTOS/Source/timers.c **** 
 983:Middlewares/Third_Party/FreeRTOS/Source/timers.c **** void vTimerSetTimerID( TimerHandle_t xTimer, void *pvNewID )
 984:Middlewares/Third_Party/FreeRTOS/Source/timers.c **** {
 1814              		.loc 1 984 1 view -0
 1815              		.cfi_startproc
 1816              		@ args = 0, pretend = 0, frame = 0
 1817              		@ frame_needed = 0, uses_anonymous_args = 0
 1818              		.loc 1 984 1 is_stmt 0 view .LVU479
 1819 0000 70B5     		push	{r4, r5, r6, lr}
 1820              	.LCFI26:
 1821              		.cfi_def_cfa_offset 16
 1822              		.cfi_offset 4, -16
 1823              		.cfi_offset 5, -12
 1824              		.cfi_offset 6, -8
 1825              		.cfi_offset 14, -4
 1826 0002 0400     		movs	r4, r0
 1827 0004 0D00     		movs	r5, r1
 985:Middlewares/Third_Party/FreeRTOS/Source/timers.c **** Timer_t * const pxTimer = ( Timer_t * ) xTimer;
ARM GAS  /var/folders/kr/g9ry2bg56g773797gdtkvvkw0000gn/T//cchcobXk.s 			page 57


 1828              		.loc 1 985 1 is_stmt 1 view .LVU480
 1829              	.LVL167:
 986:Middlewares/Third_Party/FreeRTOS/Source/timers.c **** 
 987:Middlewares/Third_Party/FreeRTOS/Source/timers.c **** 	configASSERT( xTimer );
 1830              		.loc 1 987 2 view .LVU481
 1831 0006 0028     		cmp	r0, #0
 1832 0008 05D0     		beq	.L130
 1833              		.loc 1 987 24 discriminator 2 view .LVU482
 988:Middlewares/Third_Party/FreeRTOS/Source/timers.c **** 
 989:Middlewares/Third_Party/FreeRTOS/Source/timers.c **** 	taskENTER_CRITICAL();
 1834              		.loc 1 989 2 view .LVU483
 1835 000a FFF7FEFF 		bl	vPortEnterCritical
 1836              	.LVL168:
 990:Middlewares/Third_Party/FreeRTOS/Source/timers.c **** 	{
 991:Middlewares/Third_Party/FreeRTOS/Source/timers.c **** 		pxTimer->pvTimerID = pvNewID;
 1837              		.loc 1 991 3 view .LVU484
 1838              		.loc 1 991 22 is_stmt 0 view .LVU485
 1839 000e 2562     		str	r5, [r4, #32]
 992:Middlewares/Third_Party/FreeRTOS/Source/timers.c **** 	}
 993:Middlewares/Third_Party/FreeRTOS/Source/timers.c **** 	taskEXIT_CRITICAL();
 1840              		.loc 1 993 2 is_stmt 1 view .LVU486
 1841 0010 FFF7FEFF 		bl	vPortExitCritical
 1842              	.LVL169:
 994:Middlewares/Third_Party/FreeRTOS/Source/timers.c **** }
 1843              		.loc 1 994 1 is_stmt 0 view .LVU487
 1844              		@ sp needed
 1845              	.LVL170:
 1846              	.LVL171:
 1847              		.loc 1 994 1 view .LVU488
 1848 0014 70BD     		pop	{r4, r5, r6, pc}
 1849              	.LVL172:
 1850              	.L130:
 987:Middlewares/Third_Party/FreeRTOS/Source/timers.c **** 
 1851              		.loc 1 987 2 is_stmt 1 discriminator 1 view .LVU489
 1852              		.syntax divided
 1853              	@ 987 "Middlewares/Third_Party/FreeRTOS/Source/timers.c" 1
 1854 0016 72B6     		 cpsid i 
 1855              	@ 0 "" 2
 1856              		.thumb
 1857              		.syntax unified
 1858              	.L129:
 987:Middlewares/Third_Party/FreeRTOS/Source/timers.c **** 
 1859              		.loc 1 987 2 discriminator 3 view .LVU490
 987:Middlewares/Third_Party/FreeRTOS/Source/timers.c **** 
 1860              		.loc 1 987 2 discriminator 3 view .LVU491
 1861 0018 FEE7     		b	.L129
 1862              		.cfi_endproc
 1863              	.LFE20:
 1865              		.section	.text.xTimerPendFunctionCallFromISR,"ax",%progbits
 1866              		.align	1
 1867              		.global	xTimerPendFunctionCallFromISR
 1868              		.syntax unified
 1869              		.code	16
 1870              		.thumb_func
 1872              	xTimerPendFunctionCallFromISR:
 1873              	.LVL173:
 1874              	.LFB21:
ARM GAS  /var/folders/kr/g9ry2bg56g773797gdtkvvkw0000gn/T//cchcobXk.s 			page 58


 995:Middlewares/Third_Party/FreeRTOS/Source/timers.c **** /*-----------------------------------------------------------*/
 996:Middlewares/Third_Party/FreeRTOS/Source/timers.c **** 
 997:Middlewares/Third_Party/FreeRTOS/Source/timers.c **** #if( INCLUDE_xTimerPendFunctionCall == 1 )
 998:Middlewares/Third_Party/FreeRTOS/Source/timers.c **** 
 999:Middlewares/Third_Party/FreeRTOS/Source/timers.c **** 	BaseType_t xTimerPendFunctionCallFromISR( PendedFunction_t xFunctionToPend, void *pvParameter1, ui
1000:Middlewares/Third_Party/FreeRTOS/Source/timers.c **** 	{
 1875              		.loc 1 1000 2 view -0
 1876              		.cfi_startproc
 1877              		@ args = 0, pretend = 0, frame = 16
 1878              		@ frame_needed = 0, uses_anonymous_args = 0
 1879              		.loc 1 1000 2 is_stmt 0 view .LVU493
 1880 0000 10B5     		push	{r4, lr}
 1881              	.LCFI27:
 1882              		.cfi_def_cfa_offset 8
 1883              		.cfi_offset 4, -8
 1884              		.cfi_offset 14, -4
 1885 0002 84B0     		sub	sp, sp, #16
 1886              	.LCFI28:
 1887              		.cfi_def_cfa_offset 24
 1888 0004 1400     		movs	r4, r2
 1889 0006 1A00     		movs	r2, r3
 1890              	.LVL174:
1001:Middlewares/Third_Party/FreeRTOS/Source/timers.c **** 	DaemonTaskMessage_t xMessage;
 1891              		.loc 1 1001 2 is_stmt 1 view .LVU494
1002:Middlewares/Third_Party/FreeRTOS/Source/timers.c **** 	BaseType_t xReturn;
 1892              		.loc 1 1002 2 view .LVU495
1003:Middlewares/Third_Party/FreeRTOS/Source/timers.c **** 
1004:Middlewares/Third_Party/FreeRTOS/Source/timers.c **** 		/* Complete the message with the function parameters and post it to the
1005:Middlewares/Third_Party/FreeRTOS/Source/timers.c **** 		daemon task. */
1006:Middlewares/Third_Party/FreeRTOS/Source/timers.c **** 		xMessage.xMessageID = tmrCOMMAND_EXECUTE_CALLBACK_FROM_ISR;
 1893              		.loc 1 1006 3 view .LVU496
 1894              		.loc 1 1006 23 is_stmt 0 view .LVU497
 1895 0008 0223     		movs	r3, #2
 1896              	.LVL175:
 1897              		.loc 1 1006 23 view .LVU498
 1898 000a 5B42     		rsbs	r3, r3, #0
 1899 000c 0093     		str	r3, [sp]
1007:Middlewares/Third_Party/FreeRTOS/Source/timers.c **** 		xMessage.u.xCallbackParameters.pxCallbackFunction = xFunctionToPend;
 1900              		.loc 1 1007 3 is_stmt 1 view .LVU499
 1901              		.loc 1 1007 53 is_stmt 0 view .LVU500
 1902 000e 0190     		str	r0, [sp, #4]
1008:Middlewares/Third_Party/FreeRTOS/Source/timers.c **** 		xMessage.u.xCallbackParameters.pvParameter1 = pvParameter1;
 1903              		.loc 1 1008 3 is_stmt 1 view .LVU501
 1904              		.loc 1 1008 47 is_stmt 0 view .LVU502
 1905 0010 0291     		str	r1, [sp, #8]
1009:Middlewares/Third_Party/FreeRTOS/Source/timers.c **** 		xMessage.u.xCallbackParameters.ulParameter2 = ulParameter2;
 1906              		.loc 1 1009 3 is_stmt 1 view .LVU503
 1907              		.loc 1 1009 47 is_stmt 0 view .LVU504
 1908 0012 0394     		str	r4, [sp, #12]
1010:Middlewares/Third_Party/FreeRTOS/Source/timers.c **** 
1011:Middlewares/Third_Party/FreeRTOS/Source/timers.c **** 		xReturn = xQueueSendFromISR( xTimerQueue, &xMessage, pxHigherPriorityTaskWoken );
 1909              		.loc 1 1011 3 is_stmt 1 view .LVU505
 1910              		.loc 1 1011 13 is_stmt 0 view .LVU506
 1911 0014 034B     		ldr	r3, .L132
 1912 0016 1868     		ldr	r0, [r3]
 1913              	.LVL176:
 1914              		.loc 1 1011 13 view .LVU507
ARM GAS  /var/folders/kr/g9ry2bg56g773797gdtkvvkw0000gn/T//cchcobXk.s 			page 59


 1915 0018 0023     		movs	r3, #0
 1916 001a 6946     		mov	r1, sp
 1917              	.LVL177:
 1918              		.loc 1 1011 13 view .LVU508
 1919 001c FFF7FEFF 		bl	xQueueGenericSendFromISR
 1920              	.LVL178:
1012:Middlewares/Third_Party/FreeRTOS/Source/timers.c **** 
1013:Middlewares/Third_Party/FreeRTOS/Source/timers.c **** 		tracePEND_FUNC_CALL_FROM_ISR( xFunctionToPend, pvParameter1, ulParameter2, xReturn );
 1921              		.loc 1 1013 87 is_stmt 1 view .LVU509
1014:Middlewares/Third_Party/FreeRTOS/Source/timers.c **** 
1015:Middlewares/Third_Party/FreeRTOS/Source/timers.c **** 		return xReturn;
 1922              		.loc 1 1015 3 view .LVU510
1016:Middlewares/Third_Party/FreeRTOS/Source/timers.c **** 	}
 1923              		.loc 1 1016 2 is_stmt 0 view .LVU511
 1924 0020 04B0     		add	sp, sp, #16
 1925              		@ sp needed
 1926              	.LVL179:
 1927              		.loc 1 1016 2 view .LVU512
 1928 0022 10BD     		pop	{r4, pc}
 1929              	.L133:
 1930              		.align	2
 1931              	.L132:
 1932 0024 00000000 		.word	xTimerQueue
 1933              		.cfi_endproc
 1934              	.LFE21:
 1936              		.section	.text.xTimerPendFunctionCall,"ax",%progbits
 1937              		.align	1
 1938              		.global	xTimerPendFunctionCall
 1939              		.syntax unified
 1940              		.code	16
 1941              		.thumb_func
 1943              	xTimerPendFunctionCall:
 1944              	.LVL180:
 1945              	.LFB22:
1017:Middlewares/Third_Party/FreeRTOS/Source/timers.c **** 
1018:Middlewares/Third_Party/FreeRTOS/Source/timers.c **** #endif /* INCLUDE_xTimerPendFunctionCall */
1019:Middlewares/Third_Party/FreeRTOS/Source/timers.c **** /*-----------------------------------------------------------*/
1020:Middlewares/Third_Party/FreeRTOS/Source/timers.c **** 
1021:Middlewares/Third_Party/FreeRTOS/Source/timers.c **** #if( INCLUDE_xTimerPendFunctionCall == 1 )
1022:Middlewares/Third_Party/FreeRTOS/Source/timers.c **** 
1023:Middlewares/Third_Party/FreeRTOS/Source/timers.c **** 	BaseType_t xTimerPendFunctionCall( PendedFunction_t xFunctionToPend, void *pvParameter1, uint32_t 
1024:Middlewares/Third_Party/FreeRTOS/Source/timers.c **** 	{
 1946              		.loc 1 1024 2 is_stmt 1 view -0
 1947              		.cfi_startproc
 1948              		@ args = 0, pretend = 0, frame = 16
 1949              		@ frame_needed = 0, uses_anonymous_args = 0
 1950              		.loc 1 1024 2 is_stmt 0 view .LVU514
 1951 0000 30B5     		push	{r4, r5, lr}
 1952              	.LCFI29:
 1953              		.cfi_def_cfa_offset 12
 1954              		.cfi_offset 4, -12
 1955              		.cfi_offset 5, -8
 1956              		.cfi_offset 14, -4
 1957 0002 85B0     		sub	sp, sp, #20
 1958              	.LCFI30:
 1959              		.cfi_def_cfa_offset 32
 1960 0004 0400     		movs	r4, r0
ARM GAS  /var/folders/kr/g9ry2bg56g773797gdtkvvkw0000gn/T//cchcobXk.s 			page 60


 1961 0006 1500     		movs	r5, r2
 1962 0008 1A00     		movs	r2, r3
 1963              	.LVL181:
1025:Middlewares/Third_Party/FreeRTOS/Source/timers.c **** 	DaemonTaskMessage_t xMessage;
 1964              		.loc 1 1025 2 is_stmt 1 view .LVU515
1026:Middlewares/Third_Party/FreeRTOS/Source/timers.c **** 	BaseType_t xReturn;
 1965              		.loc 1 1026 2 view .LVU516
1027:Middlewares/Third_Party/FreeRTOS/Source/timers.c **** 
1028:Middlewares/Third_Party/FreeRTOS/Source/timers.c **** 		/* This function can only be called after a timer has been created or
1029:Middlewares/Third_Party/FreeRTOS/Source/timers.c **** 		after the scheduler has been started because, until then, the timer
1030:Middlewares/Third_Party/FreeRTOS/Source/timers.c **** 		queue does not exist. */
1031:Middlewares/Third_Party/FreeRTOS/Source/timers.c **** 		configASSERT( xTimerQueue );
 1966              		.loc 1 1031 3 view .LVU517
 1967 000a 094B     		ldr	r3, .L138
 1968              	.LVL182:
 1969              		.loc 1 1031 3 is_stmt 0 view .LVU518
 1970 000c 1868     		ldr	r0, [r3]
 1971              	.LVL183:
 1972              		.loc 1 1031 3 view .LVU519
 1973 000e 0028     		cmp	r0, #0
 1974 0010 0BD0     		beq	.L137
 1975              		.loc 1 1031 30 is_stmt 1 discriminator 2 view .LVU520
1032:Middlewares/Third_Party/FreeRTOS/Source/timers.c **** 
1033:Middlewares/Third_Party/FreeRTOS/Source/timers.c **** 		/* Complete the message with the function parameters and post it to the
1034:Middlewares/Third_Party/FreeRTOS/Source/timers.c **** 		daemon task. */
1035:Middlewares/Third_Party/FreeRTOS/Source/timers.c **** 		xMessage.xMessageID = tmrCOMMAND_EXECUTE_CALLBACK;
 1976              		.loc 1 1035 3 view .LVU521
 1977              		.loc 1 1035 23 is_stmt 0 view .LVU522
 1978 0012 0123     		movs	r3, #1
 1979 0014 5B42     		rsbs	r3, r3, #0
 1980 0016 0093     		str	r3, [sp]
1036:Middlewares/Third_Party/FreeRTOS/Source/timers.c **** 		xMessage.u.xCallbackParameters.pxCallbackFunction = xFunctionToPend;
 1981              		.loc 1 1036 3 is_stmt 1 view .LVU523
 1982              		.loc 1 1036 53 is_stmt 0 view .LVU524
 1983 0018 0194     		str	r4, [sp, #4]
1037:Middlewares/Third_Party/FreeRTOS/Source/timers.c **** 		xMessage.u.xCallbackParameters.pvParameter1 = pvParameter1;
 1984              		.loc 1 1037 3 is_stmt 1 view .LVU525
 1985              		.loc 1 1037 47 is_stmt 0 view .LVU526
 1986 001a 0291     		str	r1, [sp, #8]
1038:Middlewares/Third_Party/FreeRTOS/Source/timers.c **** 		xMessage.u.xCallbackParameters.ulParameter2 = ulParameter2;
 1987              		.loc 1 1038 3 is_stmt 1 view .LVU527
 1988              		.loc 1 1038 47 is_stmt 0 view .LVU528
 1989 001c 0395     		str	r5, [sp, #12]
1039:Middlewares/Third_Party/FreeRTOS/Source/timers.c **** 
1040:Middlewares/Third_Party/FreeRTOS/Source/timers.c **** 		xReturn = xQueueSendToBack( xTimerQueue, &xMessage, xTicksToWait );
 1990              		.loc 1 1040 3 is_stmt 1 view .LVU529
 1991              		.loc 1 1040 13 is_stmt 0 view .LVU530
 1992 001e 0023     		movs	r3, #0
 1993 0020 6946     		mov	r1, sp
 1994              	.LVL184:
 1995              		.loc 1 1040 13 view .LVU531
 1996 0022 FFF7FEFF 		bl	xQueueGenericSend
 1997              	.LVL185:
1041:Middlewares/Third_Party/FreeRTOS/Source/timers.c **** 
1042:Middlewares/Third_Party/FreeRTOS/Source/timers.c **** 		tracePEND_FUNC_CALL( xFunctionToPend, pvParameter1, ulParameter2, xReturn );
 1998              		.loc 1 1042 78 is_stmt 1 view .LVU532
1043:Middlewares/Third_Party/FreeRTOS/Source/timers.c **** 
ARM GAS  /var/folders/kr/g9ry2bg56g773797gdtkvvkw0000gn/T//cchcobXk.s 			page 61


1044:Middlewares/Third_Party/FreeRTOS/Source/timers.c **** 		return xReturn;
 1999              		.loc 1 1044 3 view .LVU533
1045:Middlewares/Third_Party/FreeRTOS/Source/timers.c **** 	}
 2000              		.loc 1 1045 2 is_stmt 0 view .LVU534
 2001 0026 05B0     		add	sp, sp, #20
 2002              		@ sp needed
 2003              	.LVL186:
 2004              	.LVL187:
 2005              		.loc 1 1045 2 view .LVU535
 2006 0028 30BD     		pop	{r4, r5, pc}
 2007              	.LVL188:
 2008              	.L137:
1031:Middlewares/Third_Party/FreeRTOS/Source/timers.c **** 
 2009              		.loc 1 1031 3 is_stmt 1 discriminator 1 view .LVU536
 2010              		.syntax divided
 2011              	@ 1031 "Middlewares/Third_Party/FreeRTOS/Source/timers.c" 1
 2012 002a 72B6     		 cpsid i 
 2013              	@ 0 "" 2
 2014              		.thumb
 2015              		.syntax unified
 2016              	.L136:
1031:Middlewares/Third_Party/FreeRTOS/Source/timers.c **** 
 2017              		.loc 1 1031 3 discriminator 3 view .LVU537
1031:Middlewares/Third_Party/FreeRTOS/Source/timers.c **** 
 2018              		.loc 1 1031 3 discriminator 3 view .LVU538
 2019 002c FEE7     		b	.L136
 2020              	.L139:
 2021 002e C046     		.align	2
 2022              	.L138:
 2023 0030 00000000 		.word	xTimerQueue
 2024              		.cfi_endproc
 2025              	.LFE22:
 2027              		.section	.text.uxTimerGetTimerNumber,"ax",%progbits
 2028              		.align	1
 2029              		.global	uxTimerGetTimerNumber
 2030              		.syntax unified
 2031              		.code	16
 2032              		.thumb_func
 2034              	uxTimerGetTimerNumber:
 2035              	.LVL189:
 2036              	.LFB23:
1046:Middlewares/Third_Party/FreeRTOS/Source/timers.c **** 
1047:Middlewares/Third_Party/FreeRTOS/Source/timers.c **** #endif /* INCLUDE_xTimerPendFunctionCall */
1048:Middlewares/Third_Party/FreeRTOS/Source/timers.c **** /*-----------------------------------------------------------*/
1049:Middlewares/Third_Party/FreeRTOS/Source/timers.c **** 
1050:Middlewares/Third_Party/FreeRTOS/Source/timers.c **** #if ( configUSE_TRACE_FACILITY == 1 )
1051:Middlewares/Third_Party/FreeRTOS/Source/timers.c **** 
1052:Middlewares/Third_Party/FreeRTOS/Source/timers.c **** 	UBaseType_t uxTimerGetTimerNumber( TimerHandle_t xTimer )
1053:Middlewares/Third_Party/FreeRTOS/Source/timers.c **** 	{
 2037              		.loc 1 1053 2 view -0
 2038              		.cfi_startproc
 2039              		@ args = 0, pretend = 0, frame = 0
 2040              		@ frame_needed = 0, uses_anonymous_args = 0
 2041              		@ link register save eliminated.
1054:Middlewares/Third_Party/FreeRTOS/Source/timers.c **** 		return ( ( Timer_t * ) xTimer )->uxTimerNumber;
 2042              		.loc 1 1054 3 view .LVU540
 2043              		.loc 1 1054 34 is_stmt 0 discriminator 1 view .LVU541
ARM GAS  /var/folders/kr/g9ry2bg56g773797gdtkvvkw0000gn/T//cchcobXk.s 			page 62


 2044 0000 806A     		ldr	r0, [r0, #40]
 2045              	.LVL190:
1055:Middlewares/Third_Party/FreeRTOS/Source/timers.c **** 	}
 2046              		.loc 1 1055 2 view .LVU542
 2047              		@ sp needed
 2048 0002 7047     		bx	lr
 2049              		.cfi_endproc
 2050              	.LFE23:
 2052              		.section	.text.vTimerSetTimerNumber,"ax",%progbits
 2053              		.align	1
 2054              		.global	vTimerSetTimerNumber
 2055              		.syntax unified
 2056              		.code	16
 2057              		.thumb_func
 2059              	vTimerSetTimerNumber:
 2060              	.LVL191:
 2061              	.LFB24:
1056:Middlewares/Third_Party/FreeRTOS/Source/timers.c **** 
1057:Middlewares/Third_Party/FreeRTOS/Source/timers.c **** #endif /* configUSE_TRACE_FACILITY */
1058:Middlewares/Third_Party/FreeRTOS/Source/timers.c **** /*-----------------------------------------------------------*/
1059:Middlewares/Third_Party/FreeRTOS/Source/timers.c **** 
1060:Middlewares/Third_Party/FreeRTOS/Source/timers.c **** #if ( configUSE_TRACE_FACILITY == 1 )
1061:Middlewares/Third_Party/FreeRTOS/Source/timers.c **** 
1062:Middlewares/Third_Party/FreeRTOS/Source/timers.c **** 	void vTimerSetTimerNumber( TimerHandle_t xTimer, UBaseType_t uxTimerNumber )
1063:Middlewares/Third_Party/FreeRTOS/Source/timers.c **** 	{
 2062              		.loc 1 1063 2 is_stmt 1 view -0
 2063              		.cfi_startproc
 2064              		@ args = 0, pretend = 0, frame = 0
 2065              		@ frame_needed = 0, uses_anonymous_args = 0
 2066              		@ link register save eliminated.
1064:Middlewares/Third_Party/FreeRTOS/Source/timers.c **** 		( ( Timer_t * ) xTimer )->uxTimerNumber = uxTimerNumber;
 2067              		.loc 1 1064 3 view .LVU544
 2068              		.loc 1 1064 43 is_stmt 0 view .LVU545
 2069 0000 8162     		str	r1, [r0, #40]
1065:Middlewares/Third_Party/FreeRTOS/Source/timers.c **** 	}
 2070              		.loc 1 1065 2 view .LVU546
 2071              		@ sp needed
 2072 0002 7047     		bx	lr
 2073              		.cfi_endproc
 2074              	.LFE24:
 2076              		.section	.bss.xStaticTimerQueue.0,"aw",%nobits
 2077              		.align	2
 2080              	xStaticTimerQueue.0:
 2081 0000 00000000 		.space	80
 2081      00000000 
 2081      00000000 
 2081      00000000 
 2081      00000000 
 2082              		.section	.bss.ucStaticTimerQueueStorage.1,"aw",%nobits
 2083              		.align	2
 2086              	ucStaticTimerQueueStorage.1:
 2087 0000 00000000 		.space	160
 2087      00000000 
 2087      00000000 
 2087      00000000 
 2087      00000000 
 2088              		.section	.bss.xLastTime.2,"aw",%nobits
ARM GAS  /var/folders/kr/g9ry2bg56g773797gdtkvvkw0000gn/T//cchcobXk.s 			page 63


 2089              		.align	2
 2092              	xLastTime.2:
 2093 0000 00000000 		.space	4
 2094              		.section	.bss.xTimerTaskHandle,"aw",%nobits
 2095              		.align	2
 2098              	xTimerTaskHandle:
 2099 0000 00000000 		.space	4
 2100              		.section	.bss.xTimerQueue,"aw",%nobits
 2101              		.align	2
 2104              	xTimerQueue:
 2105 0000 00000000 		.space	4
 2106              		.section	.bss.pxOverflowTimerList,"aw",%nobits
 2107              		.align	2
 2110              	pxOverflowTimerList:
 2111 0000 00000000 		.space	4
 2112              		.section	.bss.pxCurrentTimerList,"aw",%nobits
 2113              		.align	2
 2116              	pxCurrentTimerList:
 2117 0000 00000000 		.space	4
 2118              		.section	.bss.xActiveTimerList2,"aw",%nobits
 2119              		.align	2
 2122              	xActiveTimerList2:
 2123 0000 00000000 		.space	20
 2123      00000000 
 2123      00000000 
 2123      00000000 
 2123      00000000 
 2124              		.section	.bss.xActiveTimerList1,"aw",%nobits
 2125              		.align	2
 2128              	xActiveTimerList1:
 2129 0000 00000000 		.space	20
 2129      00000000 
 2129      00000000 
 2129      00000000 
 2129      00000000 
 2130              		.text
 2131              	.Letext0:
 2132              		.file 2 "/Applications/ArmGNUToolchain/13.2.Rel1/arm-none-eabi/lib/gcc/arm-none-eabi/13.2.1/includ
 2133              		.file 3 "/Applications/ArmGNUToolchain/13.2.Rel1/arm-none-eabi/arm-none-eabi/include/machine/_defa
 2134              		.file 4 "/Applications/ArmGNUToolchain/13.2.Rel1/arm-none-eabi/arm-none-eabi/include/sys/_stdint.h
 2135              		.file 5 "Middlewares/Third_Party/FreeRTOS/Source/include/projdefs.h"
 2136              		.file 6 "Middlewares/Third_Party/FreeRTOS/Source/portable/GCC/ARM_CM0/portmacro.h"
 2137              		.file 7 "Middlewares/Third_Party/FreeRTOS/Source/include/FreeRTOS.h"
 2138              		.file 8 "Middlewares/Third_Party/FreeRTOS/Source/include/list.h"
 2139              		.file 9 "Middlewares/Third_Party/FreeRTOS/Source/include/task.h"
 2140              		.file 10 "Middlewares/Third_Party/FreeRTOS/Source/include/queue.h"
 2141              		.file 11 "Middlewares/Third_Party/FreeRTOS/Source/include/timers.h"
 2142              		.file 12 "Middlewares/Third_Party/FreeRTOS/Source/include/portable.h"
ARM GAS  /var/folders/kr/g9ry2bg56g773797gdtkvvkw0000gn/T//cchcobXk.s 			page 64

